---
triple:          'arm64-apple-darwin'
binary-path:     'project/addons/sentry/bin/ios/temp/libsentry.ios.release.arm64.dylib'
relocations:
  - { offset: 0x20862, size: 0x8, addend: 0x0, symName: __ZN5godot25call_with_ptr_args_helperIN6sentry12SentryLoggerEJRKNS_6StringES5_iS5_S5_biRKNS_10TypedArrayINS_3RefINS_15ScriptBacktraceEEEEEEJLm0ELm1ELm2ELm3ELm4ELm5ELm6ELm7EEEEvPT_MSD_FvDpT0_EPKPKvNS_13IndexSequenceIJXspT1_EEEE, symObjAddr: 0x9554, symBinAddr: 0xD554, symSize: 0x1AC }
  - { offset: 0x3E4E4, size: 0x8, addend: 0x0, symName: __ZNSt3__127__tree_balance_after_insertB8nn190102IPNS_16__tree_node_baseIPvEEEEvT_S5_, symObjAddr: 0x3230, symBinAddr: 0x7230, symSize: 0x1B4 }
  - { offset: 0x3FF5C, size: 0x8, addend: 0x0, symName: __ZSt28__throw_bad_array_new_lengthB8nn190102v, symObjAddr: 0x1FF4, symBinAddr: 0x5FF4, symSize: 0xC }
  - { offset: 0x3FF79, size: 0x8, addend: 0x0, symName: __ZNSt3__112__hash_tableINS_17__hash_value_typeIN5godot10StringNameEPK35GDExtensionInstanceBindingCallbacksEENS_22__unordered_map_hasherIS3_S7_NS_4hashIS3_EENS_8equal_toIS3_EELb1EEENS_21__unordered_map_equalIS3_S7_SC_SA_Lb1EEENS_9allocatorIS7_EEE11__do_rehashILb1EEEvm, symObjAddr: 0x2000, symBinAddr: 0x6000, symSize: 0x1A0 }
  - { offset: 0x40F4C, size: 0x8, addend: 0x0, symName: __ZN5godot6Object22_gde_binding_callbacksE, symObjAddr: 0xD0A0, symBinAddr: 0x15CE30, symSize: 0x0 }
  - { offset: 0x40F60, size: 0x8, addend: 0x0, symName: __ZN5godot16ClassDBSingleton22_gde_binding_callbacksE, symObjAddr: 0xD130, symBinAddr: 0x15CEC0, symSize: 0x0 }
  - { offset: 0x40F74, size: 0x8, addend: 0x0, symName: __ZN5godot10RefCounted22_gde_binding_callbacksE, symObjAddr: 0xD148, symBinAddr: 0x15CED8, symSize: 0x0 }
  - { offset: 0x40F88, size: 0x8, addend: 0x0, symName: __ZN5godot10ConfigFile22_gde_binding_callbacksE, symObjAddr: 0xD1A0, symBinAddr: 0x15CF30, symSize: 0x0 }
  - { offset: 0x40F9C, size: 0x8, addend: 0x0, symName: __ZN5godot6Logger22_gde_binding_callbacksE, symObjAddr: 0xD1F8, symBinAddr: 0x15CF88, symSize: 0x0 }
  - { offset: 0x40FB0, size: 0x8, addend: 0x0, symName: __ZN5godot15ScriptBacktrace22_gde_binding_callbacksE, symObjAddr: 0xD210, symBinAddr: 0x15CFA0, symSize: 0x0 }
  - { offset: 0x40FC4, size: 0x8, addend: 0x0, symName: __ZN5godot5Mutex22_gde_binding_callbacksE, symObjAddr: 0xD268, symBinAddr: 0x15CFF8, symSize: 0x0 }
  - { offset: 0x40FD8, size: 0x8, addend: 0x0, symName: __ZN5godot6Engine22_gde_binding_callbacksE, symObjAddr: 0xD2C0, symBinAddr: 0x15D050, symSize: 0x0 }
  - { offset: 0x40FEC, size: 0x8, addend: 0x0, symName: __ZN5godot8MainLoop22_gde_binding_callbacksE, symObjAddr: 0xD2D8, symBinAddr: 0x15D068, symSize: 0x0 }
  - { offset: 0x41000, size: 0x8, addend: 0x0, symName: __ZN5godot9SceneTree22_gde_binding_callbacksE, symObjAddr: 0xD2F0, symBinAddr: 0x15D080, symSize: 0x0 }
  - { offset: 0x41014, size: 0x8, addend: 0x0, symName: __ZN5godot13DisplayServer22_gde_binding_callbacksE, symObjAddr: 0xD368, symBinAddr: 0x15D0F8, symSize: 0x0 }
  - { offset: 0x41028, size: 0x8, addend: 0x0, symName: __ZN5godot4Node22_gde_binding_callbacksE, symObjAddr: 0xD380, symBinAddr: 0x15D110, symSize: 0x0 }
  - { offset: 0x4103C, size: 0x8, addend: 0x0, symName: __ZN5godot8Viewport22_gde_binding_callbacksE, symObjAddr: 0xD398, symBinAddr: 0x15D128, symSize: 0x0 }
  - { offset: 0x41050, size: 0x8, addend: 0x0, symName: __ZN5godot6Window22_gde_binding_callbacksE, symObjAddr: 0xD450, symBinAddr: 0x15D1E0, symSize: 0x0 }
  - { offset: 0x41064, size: 0x8, addend: 0x0, symName: __ZN6sentry18SentryLoggerLimits22_gde_binding_callbacksE, symObjAddr: 0xD468, symBinAddr: 0x15D1F8, symSize: 0x0 }
  - { offset: 0x45DB9, size: 0x8, addend: 0x0, symName: __ZN6sentry13SentryOptions22_gde_binding_callbacksE, symObjAddr: 0xD4C0, symBinAddr: 0x15D250, symSize: 0x0 }
  - { offset: 0x46034, size: 0x8, addend: 0x0, symName: __ZN6sentry13RuntimeConfig22_gde_binding_callbacksE, symObjAddr: 0xD4D8, symBinAddr: 0x15D268, symSize: 0x0 }
  - { offset: 0x4607A, size: 0x8, addend: 0x0, symName: __ZN6sentry10SentryUser22_gde_binding_callbacksE, symObjAddr: 0xD4F0, symBinAddr: 0x15D280, symSize: 0x0 }
  - { offset: 0x460A2, size: 0x8, addend: 0x0, symName: __ZN6sentry15SentryTimestamp22_gde_binding_callbacksE, symObjAddr: 0xD548, symBinAddr: 0x15D2D8, symSize: 0x0 }
  - { offset: 0x460B6, size: 0x8, addend: 0x0, symName: __ZN6sentry9SentrySDK22_gde_binding_callbacksE, symObjAddr: 0xD5A0, symBinAddr: 0x15D330, symSize: 0x0 }
  - { offset: 0x46955, size: 0x8, addend: 0x0, symName: __ZN6sentry16SentryAttachment22_gde_binding_callbacksE, symObjAddr: 0xD5B8, symBinAddr: 0x15D348, symSize: 0x0 }
  - { offset: 0x4697D, size: 0x8, addend: 0x0, symName: __ZN6sentry11SentryEvent22_gde_binding_callbacksE, symObjAddr: 0xD610, symBinAddr: 0x15D3A0, symSize: 0x0 }
  - { offset: 0x46991, size: 0x8, addend: 0x0, symName: __ZN6sentry16SentryBreadcrumb22_gde_binding_callbacksE, symObjAddr: 0xD628, symBinAddr: 0x15D3B8, symSize: 0x0 }
  - { offset: 0x469B9, size: 0x8, addend: 0x0, symName: __ZN6sentry13DisabledEvent22_gde_binding_callbacksE, symObjAddr: 0xD640, symBinAddr: 0x15D3D0, symSize: 0x0 }
  - { offset: 0x469E1, size: 0x8, addend: 0x0, symName: __ZN6sentry20SentryEventProcessor22_gde_binding_callbacksE, symObjAddr: 0xD768, symBinAddr: 0x15D4F8, symSize: 0x0 }
  - { offset: 0x469F5, size: 0x8, addend: 0x0, symName: __ZN6sentry19ScreenshotProcessor22_gde_binding_callbacksE, symObjAddr: 0xD7C8, symBinAddr: 0x15D558, symSize: 0x0 }
  - { offset: 0x46A1D, size: 0x8, addend: 0x0, symName: __ZN6sentry22ViewHierarchyProcessor22_gde_binding_callbacksE, symObjAddr: 0xD7E0, symBinAddr: 0x15D570, symSize: 0x0 }
  - { offset: 0x46A54, size: 0x8, addend: 0x0, symName: __ZN6sentry12SentryLogger22_gde_binding_callbacksE, symObjAddr: 0xD7F8, symBinAddr: 0x15D588, symSize: 0x0 }
  - { offset: 0x46A68, size: 0x8, addend: 0x0, symName: __ZN6sentry5cocoa10CocoaEvent22_gde_binding_callbacksE, symObjAddr: 0xD810, symBinAddr: 0x15D5A0, symSize: 0x0 }
  - { offset: 0x46AA9, size: 0x8, addend: 0x0, symName: __ZN6sentry5cocoa15CocoaBreadcrumb22_gde_binding_callbacksE, symObjAddr: 0xD828, symBinAddr: 0x15D5B8, symSize: 0x0 }
  - { offset: 0x48E1F, size: 0x8, addend: 0x0, symName: ___cxx_global_var_init, symObjAddr: 0xC998, symBinAddr: 0xE388, symSize: 0x4C }
  - { offset: 0x48EA4, size: 0x8, addend: 0x0, symName: ___cxx_global_var_init.1, symObjAddr: 0xC9E4, symBinAddr: 0xE3D4, symSize: 0x4C }
  - { offset: 0x48F29, size: 0x8, addend: 0x0, symName: ___cxx_global_var_init.2, symObjAddr: 0xCA30, symBinAddr: 0xE420, symSize: 0x4C }
  - { offset: 0x48FAE, size: 0x8, addend: 0x0, symName: ___cxx_global_var_init.3, symObjAddr: 0xCA7C, symBinAddr: 0xE46C, symSize: 0x4C }
  - { offset: 0x49033, size: 0x8, addend: 0x0, symName: ___cxx_global_var_init.4, symObjAddr: 0xCAC8, symBinAddr: 0xE4B8, symSize: 0x4C }
  - { offset: 0x490B8, size: 0x8, addend: 0x0, symName: ___cxx_global_var_init.5, symObjAddr: 0xCB14, symBinAddr: 0xE504, symSize: 0x4C }
  - { offset: 0x4913D, size: 0x8, addend: 0x0, symName: ___cxx_global_var_init.6, symObjAddr: 0xCB60, symBinAddr: 0xE550, symSize: 0x4C }
  - { offset: 0x491C2, size: 0x8, addend: 0x0, symName: ___cxx_global_var_init.7, symObjAddr: 0xCBAC, symBinAddr: 0xE59C, symSize: 0x4C }
  - { offset: 0x49247, size: 0x8, addend: 0x0, symName: ___cxx_global_var_init.8, symObjAddr: 0xCBF8, symBinAddr: 0xE5E8, symSize: 0x4C }
  - { offset: 0x492CC, size: 0x8, addend: 0x0, symName: ___cxx_global_var_init.9, symObjAddr: 0xCC44, symBinAddr: 0xE634, symSize: 0x4C }
  - { offset: 0x49351, size: 0x8, addend: 0x0, symName: ___cxx_global_var_init.10, symObjAddr: 0xCC90, symBinAddr: 0xE680, symSize: 0x4C }
  - { offset: 0x493D6, size: 0x8, addend: 0x0, symName: ___cxx_global_var_init.11, symObjAddr: 0xCCDC, symBinAddr: 0xE6CC, symSize: 0x4C }
  - { offset: 0x4945B, size: 0x8, addend: 0x0, symName: ___cxx_global_var_init.12, symObjAddr: 0xCD28, symBinAddr: 0xE718, symSize: 0x4C }
  - { offset: 0x494E0, size: 0x8, addend: 0x0, symName: ___cxx_global_var_init.13, symObjAddr: 0xCD74, symBinAddr: 0xE764, symSize: 0x4C }
  - { offset: 0x4967C, size: 0x8, addend: 0x0, symName: __Z24register_runtime_classesv, symObjAddr: 0x0, symBinAddr: 0x4000, symSize: 0x10C }
  - { offset: 0x499EF, size: 0x8, addend: 0x0, symName: __ZN5godot7ClassDB15_register_classIN6sentry18SentryLoggerLimitsELb0EEEvbbb, symObjAddr: 0x15BC, symBinAddr: 0x55BC, symSize: 0x32C }
  - { offset: 0x4A2B8, size: 0x8, addend: 0x0, symName: __ZN5godot7ClassDB15_register_classIN6sentry13SentryOptionsELb0EEEvbbb, symObjAddr: 0x3F84, symBinAddr: 0x7F84, symSize: 0x32C }
  - { offset: 0x4AB81, size: 0x8, addend: 0x0, symName: __ZN5godot7ClassDB15_register_classIN6sentry13RuntimeConfigELb0EEEvbbb, symObjAddr: 0x4578, symBinAddr: 0x8578, symSize: 0x328 }
  - { offset: 0x4B44A, size: 0x8, addend: 0x0, symName: __ZN5godot7ClassDB15_register_classIN6sentry10SentryUserELb0EEEvbbb, symObjAddr: 0x4B68, symBinAddr: 0x8B68, symSize: 0x32C }
  - { offset: 0x4BD13, size: 0x8, addend: 0x0, symName: __ZN5godot7ClassDB15_register_classIN6sentry15SentryTimestampELb0EEEvbbb, symObjAddr: 0x52C0, symBinAddr: 0x92C0, symSize: 0x32C }
  - { offset: 0x4C5DC, size: 0x8, addend: 0x0, symName: __ZN5godot7ClassDB15_register_classIN6sentry9SentrySDKELb0EEEvbbb, symObjAddr: 0x5A24, symBinAddr: 0x9A24, symSize: 0x32C }
  - { offset: 0x4CEA5, size: 0x8, addend: 0x0, symName: __ZN5godot7ClassDB15_register_classIN6sentry16SentryAttachmentELb1EEEvbbb, symObjAddr: 0x6020, symBinAddr: 0xA020, symSize: 0x330 }
  - { offset: 0x4D76E, size: 0x8, addend: 0x0, symName: __ZN5godot7ClassDB15_register_classIN6sentry11SentryEventELb1EEEvbbb, symObjAddr: 0x677C, symBinAddr: 0xA77C, symSize: 0x330 }
  - { offset: 0x4E037, size: 0x8, addend: 0x0, symName: __ZN5godot7ClassDB15_register_classIN6sentry16SentryBreadcrumbELb1EEEvbbb, symObjAddr: 0x6CFC, symBinAddr: 0xACFC, symSize: 0x330 }
  - { offset: 0x4E900, size: 0x8, addend: 0x0, symName: __ZN5godot7ClassDB15_register_classIN6sentry13DisabledEventELb0EEEvbbb, symObjAddr: 0x727C, symBinAddr: 0xB27C, symSize: 0x338 }
  - { offset: 0x4F1DF, size: 0x8, addend: 0x0, symName: __ZN5godot7ClassDB15_register_classIN6sentry20SentryEventProcessorELb0EEEvbbb, symObjAddr: 0x7B40, symBinAddr: 0xBB40, symSize: 0x32C }
  - { offset: 0x4FAA8, size: 0x8, addend: 0x0, symName: __ZN5godot7ClassDB15_register_classIN6sentry19ScreenshotProcessorELb0EEEvbbb, symObjAddr: 0x82B8, symBinAddr: 0xC2B8, symSize: 0x338 }
  - { offset: 0x50387, size: 0x8, addend: 0x0, symName: __ZN5godot7ClassDB15_register_classIN6sentry22ViewHierarchyProcessorELb0EEEvbbb, symObjAddr: 0x8888, symBinAddr: 0xC888, symSize: 0x338 }
  - { offset: 0x50C66, size: 0x8, addend: 0x0, symName: __ZN5godot7ClassDB15_register_classIN6sentry12SentryLoggerELb0EEEvbbb, symObjAddr: 0x8E58, symBinAddr: 0xCE58, symSize: 0x330 }
  - { offset: 0x5153C, size: 0x8, addend: 0x0, symName: __ZN5godot7ClassDB15_register_classIN6sentry5cocoa10CocoaEventELb0EEEvbbb, symObjAddr: 0x9794, symBinAddr: 0xD794, symSize: 0x338 }
  - { offset: 0x51E1B, size: 0x8, addend: 0x0, symName: __ZN5godot7ClassDB15_register_classIN6sentry5cocoa15CocoaBreadcrumbELb0EEEvbbb, symObjAddr: 0x9D64, symBinAddr: 0xDD64, symSize: 0x338 }
  - { offset: 0x526FA, size: 0x8, addend: 0x0, symName: __Z23register_editor_classesv, symObjAddr: 0x10C, symBinAddr: 0x410C, symSize: 0x4 }
  - { offset: 0x5271A, size: 0x8, addend: 0x0, symName: __Z17initialize_moduleN5godot25ModuleInitializationLevelE, symObjAddr: 0x110, symBinAddr: 0x4110, symSize: 0x34 }
  - { offset: 0x52765, size: 0x8, addend: 0x0, symName: __Z19uninitialize_moduleN5godot25ModuleInitializationLevelE, symObjAddr: 0x144, symBinAddr: 0x4144, symSize: 0x20 }
  - { offset: 0x5278F, size: 0x8, addend: 0x0, symName: _gdextension_init, symObjAddr: 0x164, symBinAddr: 0x4164, symSize: 0x60 }
  - { offset: 0x527ED, size: 0x8, addend: 0x0, symName: __ZN5godot8internal23EngineClassRegistrationINS_6ObjectEE8callbackEv, symObjAddr: 0x1C4, symBinAddr: 0x41C4, symSize: 0x48 }
  - { offset: 0x52837, size: 0x8, addend: 0x0, symName: __ZN5godot8internal23EngineClassRegistrationINS_6ObjectEE8callbackEv.cold.1, symObjAddr: 0xA334, symBinAddr: 0xDB9F0, symSize: 0x5C }
  - { offset: 0x528AF, size: 0x8, addend: 0x0, symName: __ZN5godot6Object28_gde_binding_create_callbackEPvS1_, symObjAddr: 0x20C, symBinAddr: 0x420C, symSize: 0x44 }
  - { offset: 0x52928, size: 0x8, addend: 0x0, symName: __ZN5godot6Object26_gde_binding_free_callbackEPvS1_S1_, symObjAddr: 0x250, symBinAddr: 0x4250, symSize: 0x34 }
  - { offset: 0x5297D, size: 0x8, addend: 0x0, symName: __ZN5godot6Object31_gde_binding_reference_callbackEPvS1_h, symObjAddr: 0x284, symBinAddr: 0x4284, symSize: 0x8 }
  - { offset: 0x529BD, size: 0x8, addend: 0x0, symName: __ZNK5godot7Wrapped19_is_extension_classEv, symObjAddr: 0x28C, symBinAddr: 0x428C, symSize: 0x8 }
  - { offset: 0x52AC3, size: 0x8, addend: 0x0, symName: __ZN5godot6ObjectD1Ev, symObjAddr: 0x294, symBinAddr: 0x4294, symSize: 0x8C }
  - { offset: 0x52C35, size: 0x8, addend: 0x0, symName: __ZN5godot4ListINS_12PropertyInfoENS_16DefaultAllocatorEE5_Data5eraseEPNS3_7ElementE, symObjAddr: 0x494, symBinAddr: 0x4494, symSize: 0xE4 }
  - { offset: 0x52D2D, size: 0x8, addend: 0x0, symName: __ZN5godot6ObjectD1Ev.cold.1, symObjAddr: 0xA390, symBinAddr: 0xDBA4C, symSize: 0x1C }
  - { offset: 0x52D48, size: 0x8, addend: 0x0, symName: __ZN5godot6ObjectD1Ev.cold.1, symObjAddr: 0xA390, symBinAddr: 0xDBA4C, symSize: 0x1C }
  - { offset: 0x52D5C, size: 0x8, addend: 0x0, symName: __ZN5godot6ObjectD1Ev.cold.1, symObjAddr: 0xA390, symBinAddr: 0xDBA4C, symSize: 0x1C }
  - { offset: 0x52D70, size: 0x8, addend: 0x0, symName: __ZN5godot6ObjectD1Ev.cold.1, symObjAddr: 0xA390, symBinAddr: 0xDBA4C, symSize: 0x1C }
  - { offset: 0x52D85, size: 0x8, addend: 0x0, symName: __ZN5godot6ObjectD1Ev.cold.1, symObjAddr: 0xA390, symBinAddr: 0xDBA4C, symSize: 0x1C }
  - { offset: 0x52DB5, size: 0x8, addend: 0x0, symName: __ZN5godot6ObjectD0Ev, symObjAddr: 0x320, symBinAddr: 0x4320, symSize: 0x74 }
  - { offset: 0x52ED2, size: 0x8, addend: 0x0, symName: __ZN5godot6ObjectD0Ev.cold.1, symObjAddr: 0xA3AC, symBinAddr: 0xDBA68, symSize: 0x1C }
  - { offset: 0x52EED, size: 0x8, addend: 0x0, symName: __ZN5godot6ObjectD0Ev.cold.1, symObjAddr: 0xA3AC, symBinAddr: 0xDBA68, symSize: 0x1C }
  - { offset: 0x52F01, size: 0x8, addend: 0x0, symName: __ZN5godot6ObjectD0Ev.cold.1, symObjAddr: 0xA3AC, symBinAddr: 0xDBA68, symSize: 0x1C }
  - { offset: 0x52F15, size: 0x8, addend: 0x0, symName: __ZN5godot6ObjectD0Ev.cold.1, symObjAddr: 0xA3AC, symBinAddr: 0xDBA68, symSize: 0x1C }
  - { offset: 0x52F29, size: 0x8, addend: 0x0, symName: __ZN5godot6ObjectD0Ev.cold.1, symObjAddr: 0xA3AC, symBinAddr: 0xDBA68, symSize: 0x1C }
  - { offset: 0x52F3E, size: 0x8, addend: 0x0, symName: __ZN5godot6ObjectD0Ev.cold.1, symObjAddr: 0xA3AC, symBinAddr: 0xDBA68, symSize: 0x1C }
  - { offset: 0x52F55, size: 0x8, addend: 0x0, symName: __ZN5godot7WrappedD1Ev, symObjAddr: 0x394, symBinAddr: 0x4394, symSize: 0x8C }
  - { offset: 0x530B1, size: 0x8, addend: 0x0, symName: __ZN5godot7WrappedD1Ev.cold.1, symObjAddr: 0xA3C8, symBinAddr: 0xDBA84, symSize: 0x1C }
  - { offset: 0x530CC, size: 0x8, addend: 0x0, symName: __ZN5godot7WrappedD1Ev.cold.1, symObjAddr: 0xA3C8, symBinAddr: 0xDBA84, symSize: 0x1C }
  - { offset: 0x530E0, size: 0x8, addend: 0x0, symName: __ZN5godot7WrappedD1Ev.cold.1, symObjAddr: 0xA3C8, symBinAddr: 0xDBA84, symSize: 0x1C }
  - { offset: 0x530F5, size: 0x8, addend: 0x0, symName: __ZN5godot7WrappedD1Ev.cold.1, symObjAddr: 0xA3C8, symBinAddr: 0xDBA84, symSize: 0x1C }
  - { offset: 0x53124, size: 0x8, addend: 0x0, symName: __ZN5godot7WrappedD0Ev, symObjAddr: 0x420, symBinAddr: 0x4420, symSize: 0x74 }
  - { offset: 0x5322B, size: 0x8, addend: 0x0, symName: __ZN5godot7WrappedD0Ev.cold.1, symObjAddr: 0xA3E4, symBinAddr: 0xDBAA0, symSize: 0x1C }
  - { offset: 0x53246, size: 0x8, addend: 0x0, symName: __ZN5godot7WrappedD0Ev.cold.1, symObjAddr: 0xA3E4, symBinAddr: 0xDBAA0, symSize: 0x1C }
  - { offset: 0x5325A, size: 0x8, addend: 0x0, symName: __ZN5godot7WrappedD0Ev.cold.1, symObjAddr: 0xA3E4, symBinAddr: 0xDBAA0, symSize: 0x1C }
  - { offset: 0x5326E, size: 0x8, addend: 0x0, symName: __ZN5godot7WrappedD0Ev.cold.1, symObjAddr: 0xA3E4, symBinAddr: 0xDBAA0, symSize: 0x1C }
  - { offset: 0x53283, size: 0x8, addend: 0x0, symName: __ZN5godot7WrappedD0Ev.cold.1, symObjAddr: 0xA3E4, symBinAddr: 0xDBAA0, symSize: 0x1C }
  - { offset: 0x53309, size: 0x8, addend: 0x0, symName: __ZN5godot4ListINS_12PropertyInfoENS_16DefaultAllocatorEE5_Data5eraseEPNS3_7ElementE.cold.2, symObjAddr: 0xA420, symBinAddr: 0xDBADC, symSize: 0x20 }
  - { offset: 0x53321, size: 0x8, addend: 0x0, symName: __ZN5godot4ListINS_12PropertyInfoENS_16DefaultAllocatorEE5_Data5eraseEPNS3_7ElementE.cold.1, symObjAddr: 0xA400, symBinAddr: 0xDBABC, symSize: 0x20 }
  - { offset: 0x53340, size: 0x8, addend: 0x0, symName: __ZN5godot8internal23EngineClassRegistrationINS_16ClassDBSingletonEE8callbackEv, symObjAddr: 0x578, symBinAddr: 0x4578, symSize: 0x48 }
  - { offset: 0x5338A, size: 0x8, addend: 0x0, symName: __ZN5godot8internal23EngineClassRegistrationINS_16ClassDBSingletonEE8callbackEv.cold.1, symObjAddr: 0xA440, symBinAddr: 0xDBAFC, symSize: 0x5C }
  - { offset: 0x53402, size: 0x8, addend: 0x0, symName: __ZN5godot16ClassDBSingleton28_gde_binding_create_callbackEPvS1_, symObjAddr: 0x5C0, symBinAddr: 0x45C0, symSize: 0x48 }
  - { offset: 0x5349E, size: 0x8, addend: 0x0, symName: __ZN5godot16ClassDBSingleton26_gde_binding_free_callbackEPvS1_S1_, symObjAddr: 0x608, symBinAddr: 0x4608, symSize: 0x34 }
  - { offset: 0x534F3, size: 0x8, addend: 0x0, symName: __ZN5godot16ClassDBSingleton31_gde_binding_reference_callbackEPvS1_h, symObjAddr: 0x63C, symBinAddr: 0x463C, symSize: 0x8 }
  - { offset: 0x5353A, size: 0x8, addend: 0x0, symName: __ZN5godot8internal23EngineClassRegistrationINS_10RefCountedEE8callbackEv, symObjAddr: 0x644, symBinAddr: 0x4644, symSize: 0x48 }
  - { offset: 0x53584, size: 0x8, addend: 0x0, symName: __ZN5godot8internal23EngineClassRegistrationINS_10RefCountedEE8callbackEv.cold.1, symObjAddr: 0xA49C, symBinAddr: 0xDBB58, symSize: 0x5C }
  - { offset: 0x535FC, size: 0x8, addend: 0x0, symName: __ZN5godot10RefCounted28_gde_binding_create_callbackEPvS1_, symObjAddr: 0x68C, symBinAddr: 0x468C, symSize: 0x44 }
  - { offset: 0x53698, size: 0x8, addend: 0x0, symName: __ZN5godot10RefCounted26_gde_binding_free_callbackEPvS1_S1_, symObjAddr: 0x6D0, symBinAddr: 0x46D0, symSize: 0x34 }
  - { offset: 0x536ED, size: 0x8, addend: 0x0, symName: __ZN5godot10RefCounted31_gde_binding_reference_callbackEPvS1_h, symObjAddr: 0x704, symBinAddr: 0x4704, symSize: 0x8 }
  - { offset: 0x53749, size: 0x8, addend: 0x0, symName: __ZN5godot10RefCountedD1Ev, symObjAddr: 0x70C, symBinAddr: 0x470C, symSize: 0x8C }
  - { offset: 0x538D1, size: 0x8, addend: 0x0, symName: __ZN5godot10RefCountedD1Ev.cold.1, symObjAddr: 0xA4F8, symBinAddr: 0xDBBB4, symSize: 0x1C }
  - { offset: 0x538EC, size: 0x8, addend: 0x0, symName: __ZN5godot10RefCountedD1Ev.cold.1, symObjAddr: 0xA4F8, symBinAddr: 0xDBBB4, symSize: 0x1C }
  - { offset: 0x53900, size: 0x8, addend: 0x0, symName: __ZN5godot10RefCountedD1Ev.cold.1, symObjAddr: 0xA4F8, symBinAddr: 0xDBBB4, symSize: 0x1C }
  - { offset: 0x53914, size: 0x8, addend: 0x0, symName: __ZN5godot10RefCountedD1Ev.cold.1, symObjAddr: 0xA4F8, symBinAddr: 0xDBBB4, symSize: 0x1C }
  - { offset: 0x53928, size: 0x8, addend: 0x0, symName: __ZN5godot10RefCountedD1Ev.cold.1, symObjAddr: 0xA4F8, symBinAddr: 0xDBBB4, symSize: 0x1C }
  - { offset: 0x5393D, size: 0x8, addend: 0x0, symName: __ZN5godot10RefCountedD1Ev.cold.1, symObjAddr: 0xA4F8, symBinAddr: 0xDBBB4, symSize: 0x1C }
  - { offset: 0x53970, size: 0x8, addend: 0x0, symName: __ZN5godot10RefCountedD0Ev, symObjAddr: 0x798, symBinAddr: 0x4798, symSize: 0x74 }
  - { offset: 0x53AA5, size: 0x8, addend: 0x0, symName: __ZN5godot10RefCountedD0Ev.cold.1, symObjAddr: 0xA514, symBinAddr: 0xDBBD0, symSize: 0x1C }
  - { offset: 0x53AC0, size: 0x8, addend: 0x0, symName: __ZN5godot10RefCountedD0Ev.cold.1, symObjAddr: 0xA514, symBinAddr: 0xDBBD0, symSize: 0x1C }
  - { offset: 0x53AD4, size: 0x8, addend: 0x0, symName: __ZN5godot10RefCountedD0Ev.cold.1, symObjAddr: 0xA514, symBinAddr: 0xDBBD0, symSize: 0x1C }
  - { offset: 0x53AE8, size: 0x8, addend: 0x0, symName: __ZN5godot10RefCountedD0Ev.cold.1, symObjAddr: 0xA514, symBinAddr: 0xDBBD0, symSize: 0x1C }
  - { offset: 0x53AFC, size: 0x8, addend: 0x0, symName: __ZN5godot10RefCountedD0Ev.cold.1, symObjAddr: 0xA514, symBinAddr: 0xDBBD0, symSize: 0x1C }
  - { offset: 0x53B10, size: 0x8, addend: 0x0, symName: __ZN5godot10RefCountedD0Ev.cold.1, symObjAddr: 0xA514, symBinAddr: 0xDBBD0, symSize: 0x1C }
  - { offset: 0x53B25, size: 0x8, addend: 0x0, symName: __ZN5godot10RefCountedD0Ev.cold.1, symObjAddr: 0xA514, symBinAddr: 0xDBBD0, symSize: 0x1C }
  - { offset: 0x53B44, size: 0x8, addend: 0x0, symName: __ZN5godot8internal23EngineClassRegistrationINS_10ConfigFileEE8callbackEv, symObjAddr: 0x80C, symBinAddr: 0x480C, symSize: 0x48 }
  - { offset: 0x53B8E, size: 0x8, addend: 0x0, symName: __ZN5godot8internal23EngineClassRegistrationINS_10ConfigFileEE8callbackEv.cold.1, symObjAddr: 0xA530, symBinAddr: 0xDBBEC, symSize: 0x5C }
  - { offset: 0x53C06, size: 0x8, addend: 0x0, symName: __ZN5godot10ConfigFile28_gde_binding_create_callbackEPvS1_, symObjAddr: 0x854, symBinAddr: 0x4854, symSize: 0x44 }
  - { offset: 0x53CC5, size: 0x8, addend: 0x0, symName: __ZN5godot10ConfigFile26_gde_binding_free_callbackEPvS1_S1_, symObjAddr: 0x898, symBinAddr: 0x4898, symSize: 0x34 }
  - { offset: 0x53D1A, size: 0x8, addend: 0x0, symName: __ZN5godot10ConfigFile31_gde_binding_reference_callbackEPvS1_h, symObjAddr: 0x8CC, symBinAddr: 0x48CC, symSize: 0x8 }
  - { offset: 0x53D76, size: 0x8, addend: 0x0, symName: __ZN5godot10ConfigFileD1Ev, symObjAddr: 0x8D4, symBinAddr: 0x48D4, symSize: 0x8C }
  - { offset: 0x53F14, size: 0x8, addend: 0x0, symName: __ZN5godot10ConfigFileD1Ev.cold.1, symObjAddr: 0xA58C, symBinAddr: 0xDBC48, symSize: 0x1C }
  - { offset: 0x53F2F, size: 0x8, addend: 0x0, symName: __ZN5godot10ConfigFileD1Ev.cold.1, symObjAddr: 0xA58C, symBinAddr: 0xDBC48, symSize: 0x1C }
  - { offset: 0x53F43, size: 0x8, addend: 0x0, symName: __ZN5godot10ConfigFileD1Ev.cold.1, symObjAddr: 0xA58C, symBinAddr: 0xDBC48, symSize: 0x1C }
  - { offset: 0x53F57, size: 0x8, addend: 0x0, symName: __ZN5godot10ConfigFileD1Ev.cold.1, symObjAddr: 0xA58C, symBinAddr: 0xDBC48, symSize: 0x1C }
  - { offset: 0x53F6B, size: 0x8, addend: 0x0, symName: __ZN5godot10ConfigFileD1Ev.cold.1, symObjAddr: 0xA58C, symBinAddr: 0xDBC48, symSize: 0x1C }
  - { offset: 0x53F7F, size: 0x8, addend: 0x0, symName: __ZN5godot10ConfigFileD1Ev.cold.1, symObjAddr: 0xA58C, symBinAddr: 0xDBC48, symSize: 0x1C }
  - { offset: 0x53F94, size: 0x8, addend: 0x0, symName: __ZN5godot10ConfigFileD1Ev.cold.1, symObjAddr: 0xA58C, symBinAddr: 0xDBC48, symSize: 0x1C }
  - { offset: 0x53FC8, size: 0x8, addend: 0x0, symName: __ZN5godot10ConfigFileD0Ev, symObjAddr: 0x960, symBinAddr: 0x4960, symSize: 0x74 }
  - { offset: 0x54113, size: 0x8, addend: 0x0, symName: __ZN5godot10ConfigFileD0Ev.cold.1, symObjAddr: 0xA5A8, symBinAddr: 0xDBC64, symSize: 0x1C }
  - { offset: 0x5412E, size: 0x8, addend: 0x0, symName: __ZN5godot10ConfigFileD0Ev.cold.1, symObjAddr: 0xA5A8, symBinAddr: 0xDBC64, symSize: 0x1C }
  - { offset: 0x54142, size: 0x8, addend: 0x0, symName: __ZN5godot10ConfigFileD0Ev.cold.1, symObjAddr: 0xA5A8, symBinAddr: 0xDBC64, symSize: 0x1C }
  - { offset: 0x54156, size: 0x8, addend: 0x0, symName: __ZN5godot10ConfigFileD0Ev.cold.1, symObjAddr: 0xA5A8, symBinAddr: 0xDBC64, symSize: 0x1C }
  - { offset: 0x5416A, size: 0x8, addend: 0x0, symName: __ZN5godot10ConfigFileD0Ev.cold.1, symObjAddr: 0xA5A8, symBinAddr: 0xDBC64, symSize: 0x1C }
  - { offset: 0x5417E, size: 0x8, addend: 0x0, symName: __ZN5godot10ConfigFileD0Ev.cold.1, symObjAddr: 0xA5A8, symBinAddr: 0xDBC64, symSize: 0x1C }
  - { offset: 0x54192, size: 0x8, addend: 0x0, symName: __ZN5godot10ConfigFileD0Ev.cold.1, symObjAddr: 0xA5A8, symBinAddr: 0xDBC64, symSize: 0x1C }
  - { offset: 0x541A7, size: 0x8, addend: 0x0, symName: __ZN5godot10ConfigFileD0Ev.cold.1, symObjAddr: 0xA5A8, symBinAddr: 0xDBC64, symSize: 0x1C }
  - { offset: 0x541C7, size: 0x8, addend: 0x0, symName: __ZN5godot8internal23EngineClassRegistrationINS_6LoggerEE8callbackEv, symObjAddr: 0x9D4, symBinAddr: 0x49D4, symSize: 0x48 }
  - { offset: 0x54211, size: 0x8, addend: 0x0, symName: __ZN5godot8internal23EngineClassRegistrationINS_6LoggerEE8callbackEv.cold.1, symObjAddr: 0xA5C4, symBinAddr: 0xDBC80, symSize: 0x5C }
  - { offset: 0x54289, size: 0x8, addend: 0x0, symName: __ZN5godot6Logger28_gde_binding_create_callbackEPvS1_, symObjAddr: 0xA1C, symBinAddr: 0x4A1C, symSize: 0x48 }
  - { offset: 0x54348, size: 0x8, addend: 0x0, symName: __ZN5godot6Logger26_gde_binding_free_callbackEPvS1_S1_, symObjAddr: 0xA64, symBinAddr: 0x4A64, symSize: 0x34 }
  - { offset: 0x5439D, size: 0x8, addend: 0x0, symName: __ZN5godot6Logger31_gde_binding_reference_callbackEPvS1_h, symObjAddr: 0xA98, symBinAddr: 0x4A98, symSize: 0x8 }
  - { offset: 0x543E4, size: 0x8, addend: 0x0, symName: __ZN5godot8internal23EngineClassRegistrationINS_15ScriptBacktraceEE8callbackEv, symObjAddr: 0xAA0, symBinAddr: 0x4AA0, symSize: 0x48 }
  - { offset: 0x5442E, size: 0x8, addend: 0x0, symName: __ZN5godot8internal23EngineClassRegistrationINS_15ScriptBacktraceEE8callbackEv.cold.1, symObjAddr: 0xA620, symBinAddr: 0xDBCDC, symSize: 0x5C }
  - { offset: 0x544A6, size: 0x8, addend: 0x0, symName: __ZN5godot15ScriptBacktrace28_gde_binding_create_callbackEPvS1_, symObjAddr: 0xAE8, symBinAddr: 0x4AE8, symSize: 0x44 }
  - { offset: 0x54565, size: 0x8, addend: 0x0, symName: __ZN5godot15ScriptBacktrace26_gde_binding_free_callbackEPvS1_S1_, symObjAddr: 0xB2C, symBinAddr: 0x4B2C, symSize: 0x34 }
  - { offset: 0x545BA, size: 0x8, addend: 0x0, symName: __ZN5godot15ScriptBacktrace31_gde_binding_reference_callbackEPvS1_h, symObjAddr: 0xB60, symBinAddr: 0x4B60, symSize: 0x8 }
  - { offset: 0x54616, size: 0x8, addend: 0x0, symName: __ZN5godot15ScriptBacktraceD1Ev, symObjAddr: 0xB68, symBinAddr: 0x4B68, symSize: 0x8C }
  - { offset: 0x547B4, size: 0x8, addend: 0x0, symName: __ZN5godot15ScriptBacktraceD1Ev.cold.1, symObjAddr: 0xA67C, symBinAddr: 0xDBD38, symSize: 0x1C }
  - { offset: 0x547CF, size: 0x8, addend: 0x0, symName: __ZN5godot15ScriptBacktraceD1Ev.cold.1, symObjAddr: 0xA67C, symBinAddr: 0xDBD38, symSize: 0x1C }
  - { offset: 0x547E3, size: 0x8, addend: 0x0, symName: __ZN5godot15ScriptBacktraceD1Ev.cold.1, symObjAddr: 0xA67C, symBinAddr: 0xDBD38, symSize: 0x1C }
  - { offset: 0x547F7, size: 0x8, addend: 0x0, symName: __ZN5godot15ScriptBacktraceD1Ev.cold.1, symObjAddr: 0xA67C, symBinAddr: 0xDBD38, symSize: 0x1C }
  - { offset: 0x5480B, size: 0x8, addend: 0x0, symName: __ZN5godot15ScriptBacktraceD1Ev.cold.1, symObjAddr: 0xA67C, symBinAddr: 0xDBD38, symSize: 0x1C }
  - { offset: 0x5481F, size: 0x8, addend: 0x0, symName: __ZN5godot15ScriptBacktraceD1Ev.cold.1, symObjAddr: 0xA67C, symBinAddr: 0xDBD38, symSize: 0x1C }
  - { offset: 0x54834, size: 0x8, addend: 0x0, symName: __ZN5godot15ScriptBacktraceD1Ev.cold.1, symObjAddr: 0xA67C, symBinAddr: 0xDBD38, symSize: 0x1C }
  - { offset: 0x54868, size: 0x8, addend: 0x0, symName: __ZN5godot15ScriptBacktraceD0Ev, symObjAddr: 0xBF4, symBinAddr: 0x4BF4, symSize: 0x74 }
  - { offset: 0x549B3, size: 0x8, addend: 0x0, symName: __ZN5godot15ScriptBacktraceD0Ev.cold.1, symObjAddr: 0xA698, symBinAddr: 0xDBD54, symSize: 0x1C }
  - { offset: 0x549CE, size: 0x8, addend: 0x0, symName: __ZN5godot15ScriptBacktraceD0Ev.cold.1, symObjAddr: 0xA698, symBinAddr: 0xDBD54, symSize: 0x1C }
  - { offset: 0x549E2, size: 0x8, addend: 0x0, symName: __ZN5godot15ScriptBacktraceD0Ev.cold.1, symObjAddr: 0xA698, symBinAddr: 0xDBD54, symSize: 0x1C }
  - { offset: 0x549F6, size: 0x8, addend: 0x0, symName: __ZN5godot15ScriptBacktraceD0Ev.cold.1, symObjAddr: 0xA698, symBinAddr: 0xDBD54, symSize: 0x1C }
  - { offset: 0x54A0A, size: 0x8, addend: 0x0, symName: __ZN5godot15ScriptBacktraceD0Ev.cold.1, symObjAddr: 0xA698, symBinAddr: 0xDBD54, symSize: 0x1C }
  - { offset: 0x54A1E, size: 0x8, addend: 0x0, symName: __ZN5godot15ScriptBacktraceD0Ev.cold.1, symObjAddr: 0xA698, symBinAddr: 0xDBD54, symSize: 0x1C }
  - { offset: 0x54A32, size: 0x8, addend: 0x0, symName: __ZN5godot15ScriptBacktraceD0Ev.cold.1, symObjAddr: 0xA698, symBinAddr: 0xDBD54, symSize: 0x1C }
  - { offset: 0x54A47, size: 0x8, addend: 0x0, symName: __ZN5godot15ScriptBacktraceD0Ev.cold.1, symObjAddr: 0xA698, symBinAddr: 0xDBD54, symSize: 0x1C }
  - { offset: 0x54A67, size: 0x8, addend: 0x0, symName: __ZN5godot8internal23EngineClassRegistrationINS_5MutexEE8callbackEv, symObjAddr: 0xC68, symBinAddr: 0x4C68, symSize: 0x48 }
  - { offset: 0x54AB1, size: 0x8, addend: 0x0, symName: __ZN5godot8internal23EngineClassRegistrationINS_5MutexEE8callbackEv.cold.1, symObjAddr: 0xA6B4, symBinAddr: 0xDBD70, symSize: 0x5C }
  - { offset: 0x54B29, size: 0x8, addend: 0x0, symName: __ZN5godot5Mutex28_gde_binding_create_callbackEPvS1_, symObjAddr: 0xCB0, symBinAddr: 0x4CB0, symSize: 0x44 }
  - { offset: 0x54BE8, size: 0x8, addend: 0x0, symName: __ZN5godot5Mutex26_gde_binding_free_callbackEPvS1_S1_, symObjAddr: 0xCF4, symBinAddr: 0x4CF4, symSize: 0x34 }
  - { offset: 0x54C3D, size: 0x8, addend: 0x0, symName: __ZN5godot5Mutex31_gde_binding_reference_callbackEPvS1_h, symObjAddr: 0xD28, symBinAddr: 0x4D28, symSize: 0x8 }
  - { offset: 0x54C99, size: 0x8, addend: 0x0, symName: __ZN5godot5MutexD1Ev, symObjAddr: 0xD30, symBinAddr: 0x4D30, symSize: 0x8C }
  - { offset: 0x54E37, size: 0x8, addend: 0x0, symName: __ZN5godot5MutexD1Ev.cold.1, symObjAddr: 0xA710, symBinAddr: 0xDBDCC, symSize: 0x1C }
  - { offset: 0x54E52, size: 0x8, addend: 0x0, symName: __ZN5godot5MutexD1Ev.cold.1, symObjAddr: 0xA710, symBinAddr: 0xDBDCC, symSize: 0x1C }
  - { offset: 0x54E66, size: 0x8, addend: 0x0, symName: __ZN5godot5MutexD1Ev.cold.1, symObjAddr: 0xA710, symBinAddr: 0xDBDCC, symSize: 0x1C }
  - { offset: 0x54E7A, size: 0x8, addend: 0x0, symName: __ZN5godot5MutexD1Ev.cold.1, symObjAddr: 0xA710, symBinAddr: 0xDBDCC, symSize: 0x1C }
  - { offset: 0x54E8E, size: 0x8, addend: 0x0, symName: __ZN5godot5MutexD1Ev.cold.1, symObjAddr: 0xA710, symBinAddr: 0xDBDCC, symSize: 0x1C }
  - { offset: 0x54EA2, size: 0x8, addend: 0x0, symName: __ZN5godot5MutexD1Ev.cold.1, symObjAddr: 0xA710, symBinAddr: 0xDBDCC, symSize: 0x1C }
  - { offset: 0x54EB7, size: 0x8, addend: 0x0, symName: __ZN5godot5MutexD1Ev.cold.1, symObjAddr: 0xA710, symBinAddr: 0xDBDCC, symSize: 0x1C }
  - { offset: 0x54EEB, size: 0x8, addend: 0x0, symName: __ZN5godot5MutexD0Ev, symObjAddr: 0xDBC, symBinAddr: 0x4DBC, symSize: 0x74 }
  - { offset: 0x55036, size: 0x8, addend: 0x0, symName: __ZN5godot5MutexD0Ev.cold.1, symObjAddr: 0xA72C, symBinAddr: 0xDBDE8, symSize: 0x1C }
  - { offset: 0x55051, size: 0x8, addend: 0x0, symName: __ZN5godot5MutexD0Ev.cold.1, symObjAddr: 0xA72C, symBinAddr: 0xDBDE8, symSize: 0x1C }
  - { offset: 0x55065, size: 0x8, addend: 0x0, symName: __ZN5godot5MutexD0Ev.cold.1, symObjAddr: 0xA72C, symBinAddr: 0xDBDE8, symSize: 0x1C }
  - { offset: 0x55079, size: 0x8, addend: 0x0, symName: __ZN5godot5MutexD0Ev.cold.1, symObjAddr: 0xA72C, symBinAddr: 0xDBDE8, symSize: 0x1C }
  - { offset: 0x5508D, size: 0x8, addend: 0x0, symName: __ZN5godot5MutexD0Ev.cold.1, symObjAddr: 0xA72C, symBinAddr: 0xDBDE8, symSize: 0x1C }
  - { offset: 0x550A1, size: 0x8, addend: 0x0, symName: __ZN5godot5MutexD0Ev.cold.1, symObjAddr: 0xA72C, symBinAddr: 0xDBDE8, symSize: 0x1C }
  - { offset: 0x550B5, size: 0x8, addend: 0x0, symName: __ZN5godot5MutexD0Ev.cold.1, symObjAddr: 0xA72C, symBinAddr: 0xDBDE8, symSize: 0x1C }
  - { offset: 0x550CA, size: 0x8, addend: 0x0, symName: __ZN5godot5MutexD0Ev.cold.1, symObjAddr: 0xA72C, symBinAddr: 0xDBDE8, symSize: 0x1C }
  - { offset: 0x550EA, size: 0x8, addend: 0x0, symName: __ZN5godot8internal23EngineClassRegistrationINS_6EngineEE8callbackEv, symObjAddr: 0xE30, symBinAddr: 0x4E30, symSize: 0x48 }
  - { offset: 0x55134, size: 0x8, addend: 0x0, symName: __ZN5godot8internal23EngineClassRegistrationINS_6EngineEE8callbackEv.cold.1, symObjAddr: 0xA748, symBinAddr: 0xDBE04, symSize: 0x5C }
  - { offset: 0x551AC, size: 0x8, addend: 0x0, symName: __ZN5godot6Engine28_gde_binding_create_callbackEPvS1_, symObjAddr: 0xE78, symBinAddr: 0x4E78, symSize: 0x48 }
  - { offset: 0x55248, size: 0x8, addend: 0x0, symName: __ZN5godot6Engine26_gde_binding_free_callbackEPvS1_S1_, symObjAddr: 0xEC0, symBinAddr: 0x4EC0, symSize: 0x34 }
  - { offset: 0x5529D, size: 0x8, addend: 0x0, symName: __ZN5godot6Engine31_gde_binding_reference_callbackEPvS1_h, symObjAddr: 0xEF4, symBinAddr: 0x4EF4, symSize: 0x8 }
  - { offset: 0x552E4, size: 0x8, addend: 0x0, symName: __ZN5godot8internal23EngineClassRegistrationINS_8MainLoopEE8callbackEv, symObjAddr: 0xEFC, symBinAddr: 0x4EFC, symSize: 0x48 }
  - { offset: 0x5532E, size: 0x8, addend: 0x0, symName: __ZN5godot8internal23EngineClassRegistrationINS_8MainLoopEE8callbackEv.cold.1, symObjAddr: 0xA7A4, symBinAddr: 0xDBE60, symSize: 0x5C }
  - { offset: 0x553AB, size: 0x8, addend: 0x0, symName: __ZN5godot8MainLoop28_gde_binding_create_callbackEPvS1_, symObjAddr: 0xF44, symBinAddr: 0x4F44, symSize: 0x48 }
  - { offset: 0x55447, size: 0x8, addend: 0x0, symName: __ZN5godot8MainLoop26_gde_binding_free_callbackEPvS1_S1_, symObjAddr: 0xF8C, symBinAddr: 0x4F8C, symSize: 0x34 }
  - { offset: 0x5549C, size: 0x8, addend: 0x0, symName: __ZN5godot8MainLoop31_gde_binding_reference_callbackEPvS1_h, symObjAddr: 0xFC0, symBinAddr: 0x4FC0, symSize: 0x8 }
  - { offset: 0x554E3, size: 0x8, addend: 0x0, symName: __ZN5godot8internal23EngineClassRegistrationINS_9SceneTreeEE8callbackEv, symObjAddr: 0xFC8, symBinAddr: 0x4FC8, symSize: 0x48 }
  - { offset: 0x5552D, size: 0x8, addend: 0x0, symName: __ZN5godot8internal23EngineClassRegistrationINS_9SceneTreeEE8callbackEv.cold.1, symObjAddr: 0xA800, symBinAddr: 0xDBEBC, symSize: 0x5C }
  - { offset: 0x555A5, size: 0x8, addend: 0x0, symName: __ZN5godot9SceneTree28_gde_binding_create_callbackEPvS1_, symObjAddr: 0x1010, symBinAddr: 0x5010, symSize: 0x44 }
  - { offset: 0x55664, size: 0x8, addend: 0x0, symName: __ZN5godot9SceneTree26_gde_binding_free_callbackEPvS1_S1_, symObjAddr: 0x1054, symBinAddr: 0x5054, symSize: 0x34 }
  - { offset: 0x556B9, size: 0x8, addend: 0x0, symName: __ZN5godot9SceneTree31_gde_binding_reference_callbackEPvS1_h, symObjAddr: 0x1088, symBinAddr: 0x5088, symSize: 0x8 }
  - { offset: 0x55731, size: 0x8, addend: 0x0, symName: __ZN5godot9SceneTreeD1Ev, symObjAddr: 0x1090, symBinAddr: 0x5090, symSize: 0x8C }
  - { offset: 0x558CF, size: 0x8, addend: 0x0, symName: __ZN5godot9SceneTreeD1Ev.cold.1, symObjAddr: 0xA85C, symBinAddr: 0xDBF18, symSize: 0x1C }
  - { offset: 0x558EA, size: 0x8, addend: 0x0, symName: __ZN5godot9SceneTreeD1Ev.cold.1, symObjAddr: 0xA85C, symBinAddr: 0xDBF18, symSize: 0x1C }
  - { offset: 0x558FE, size: 0x8, addend: 0x0, symName: __ZN5godot9SceneTreeD1Ev.cold.1, symObjAddr: 0xA85C, symBinAddr: 0xDBF18, symSize: 0x1C }
  - { offset: 0x55912, size: 0x8, addend: 0x0, symName: __ZN5godot9SceneTreeD1Ev.cold.1, symObjAddr: 0xA85C, symBinAddr: 0xDBF18, symSize: 0x1C }
  - { offset: 0x55926, size: 0x8, addend: 0x0, symName: __ZN5godot9SceneTreeD1Ev.cold.1, symObjAddr: 0xA85C, symBinAddr: 0xDBF18, symSize: 0x1C }
  - { offset: 0x5593A, size: 0x8, addend: 0x0, symName: __ZN5godot9SceneTreeD1Ev.cold.1, symObjAddr: 0xA85C, symBinAddr: 0xDBF18, symSize: 0x1C }
  - { offset: 0x5594F, size: 0x8, addend: 0x0, symName: __ZN5godot9SceneTreeD1Ev.cold.1, symObjAddr: 0xA85C, symBinAddr: 0xDBF18, symSize: 0x1C }
  - { offset: 0x55983, size: 0x8, addend: 0x0, symName: __ZN5godot9SceneTreeD0Ev, symObjAddr: 0x111C, symBinAddr: 0x511C, symSize: 0x74 }
  - { offset: 0x55ACE, size: 0x8, addend: 0x0, symName: __ZN5godot9SceneTreeD0Ev.cold.1, symObjAddr: 0xA878, symBinAddr: 0xDBF34, symSize: 0x1C }
  - { offset: 0x55AE9, size: 0x8, addend: 0x0, symName: __ZN5godot9SceneTreeD0Ev.cold.1, symObjAddr: 0xA878, symBinAddr: 0xDBF34, symSize: 0x1C }
  - { offset: 0x55AFD, size: 0x8, addend: 0x0, symName: __ZN5godot9SceneTreeD0Ev.cold.1, symObjAddr: 0xA878, symBinAddr: 0xDBF34, symSize: 0x1C }
  - { offset: 0x55B11, size: 0x8, addend: 0x0, symName: __ZN5godot9SceneTreeD0Ev.cold.1, symObjAddr: 0xA878, symBinAddr: 0xDBF34, symSize: 0x1C }
  - { offset: 0x55B25, size: 0x8, addend: 0x0, symName: __ZN5godot9SceneTreeD0Ev.cold.1, symObjAddr: 0xA878, symBinAddr: 0xDBF34, symSize: 0x1C }
  - { offset: 0x55B39, size: 0x8, addend: 0x0, symName: __ZN5godot9SceneTreeD0Ev.cold.1, symObjAddr: 0xA878, symBinAddr: 0xDBF34, symSize: 0x1C }
  - { offset: 0x55B4D, size: 0x8, addend: 0x0, symName: __ZN5godot9SceneTreeD0Ev.cold.1, symObjAddr: 0xA878, symBinAddr: 0xDBF34, symSize: 0x1C }
  - { offset: 0x55B62, size: 0x8, addend: 0x0, symName: __ZN5godot9SceneTreeD0Ev.cold.1, symObjAddr: 0xA878, symBinAddr: 0xDBF34, symSize: 0x1C }
  - { offset: 0x55B82, size: 0x8, addend: 0x0, symName: __ZN5godot8internal23EngineClassRegistrationINS_13DisplayServerEE8callbackEv, symObjAddr: 0x1190, symBinAddr: 0x5190, symSize: 0x48 }
  - { offset: 0x55BCC, size: 0x8, addend: 0x0, symName: __ZN5godot8internal23EngineClassRegistrationINS_13DisplayServerEE8callbackEv.cold.1, symObjAddr: 0xA894, symBinAddr: 0xDBF50, symSize: 0x5C }
  - { offset: 0x55C44, size: 0x8, addend: 0x0, symName: __ZN5godot13DisplayServer28_gde_binding_create_callbackEPvS1_, symObjAddr: 0x11D8, symBinAddr: 0x51D8, symSize: 0x48 }
  - { offset: 0x55CE0, size: 0x8, addend: 0x0, symName: __ZN5godot13DisplayServer26_gde_binding_free_callbackEPvS1_S1_, symObjAddr: 0x1220, symBinAddr: 0x5220, symSize: 0x34 }
  - { offset: 0x55D35, size: 0x8, addend: 0x0, symName: __ZN5godot13DisplayServer31_gde_binding_reference_callbackEPvS1_h, symObjAddr: 0x1254, symBinAddr: 0x5254, symSize: 0x8 }
  - { offset: 0x55D7C, size: 0x8, addend: 0x0, symName: __ZN5godot8internal23EngineClassRegistrationINS_4NodeEE8callbackEv, symObjAddr: 0x125C, symBinAddr: 0x525C, symSize: 0x48 }
  - { offset: 0x55DC6, size: 0x8, addend: 0x0, symName: __ZN5godot8internal23EngineClassRegistrationINS_4NodeEE8callbackEv.cold.1, symObjAddr: 0xA8F0, symBinAddr: 0xDBFAC, symSize: 0x5C }
  - { offset: 0x55E43, size: 0x8, addend: 0x0, symName: __ZN5godot4Node28_gde_binding_create_callbackEPvS1_, symObjAddr: 0x12A4, symBinAddr: 0x52A4, symSize: 0x48 }
  - { offset: 0x55EDF, size: 0x8, addend: 0x0, symName: __ZN5godot4Node26_gde_binding_free_callbackEPvS1_S1_, symObjAddr: 0x12EC, symBinAddr: 0x52EC, symSize: 0x34 }
  - { offset: 0x55F34, size: 0x8, addend: 0x0, symName: __ZN5godot4Node31_gde_binding_reference_callbackEPvS1_h, symObjAddr: 0x1320, symBinAddr: 0x5320, symSize: 0x8 }
  - { offset: 0x55F7B, size: 0x8, addend: 0x0, symName: __ZN5godot8internal23EngineClassRegistrationINS_8ViewportEE8callbackEv, symObjAddr: 0x1328, symBinAddr: 0x5328, symSize: 0x48 }
  - { offset: 0x55FC5, size: 0x8, addend: 0x0, symName: __ZN5godot8internal23EngineClassRegistrationINS_8ViewportEE8callbackEv.cold.1, symObjAddr: 0xA94C, symBinAddr: 0xDC008, symSize: 0x5C }
  - { offset: 0x5603D, size: 0x8, addend: 0x0, symName: __ZN5godot8Viewport28_gde_binding_create_callbackEPvS1_, symObjAddr: 0x1370, symBinAddr: 0x5370, symSize: 0x44 }
  - { offset: 0x560FC, size: 0x8, addend: 0x0, symName: __ZN5godot8Viewport26_gde_binding_free_callbackEPvS1_S1_, symObjAddr: 0x13B4, symBinAddr: 0x53B4, symSize: 0x34 }
  - { offset: 0x56151, size: 0x8, addend: 0x0, symName: __ZN5godot8Viewport31_gde_binding_reference_callbackEPvS1_h, symObjAddr: 0x13E8, symBinAddr: 0x53E8, symSize: 0x8 }
  - { offset: 0x561C9, size: 0x8, addend: 0x0, symName: __ZN5godot8ViewportD1Ev, symObjAddr: 0x13F0, symBinAddr: 0x53F0, symSize: 0x8C }
  - { offset: 0x56367, size: 0x8, addend: 0x0, symName: __ZN5godot8ViewportD1Ev.cold.1, symObjAddr: 0xA9A8, symBinAddr: 0xDC064, symSize: 0x1C }
  - { offset: 0x56382, size: 0x8, addend: 0x0, symName: __ZN5godot8ViewportD1Ev.cold.1, symObjAddr: 0xA9A8, symBinAddr: 0xDC064, symSize: 0x1C }
  - { offset: 0x56396, size: 0x8, addend: 0x0, symName: __ZN5godot8ViewportD1Ev.cold.1, symObjAddr: 0xA9A8, symBinAddr: 0xDC064, symSize: 0x1C }
  - { offset: 0x563AA, size: 0x8, addend: 0x0, symName: __ZN5godot8ViewportD1Ev.cold.1, symObjAddr: 0xA9A8, symBinAddr: 0xDC064, symSize: 0x1C }
  - { offset: 0x563BE, size: 0x8, addend: 0x0, symName: __ZN5godot8ViewportD1Ev.cold.1, symObjAddr: 0xA9A8, symBinAddr: 0xDC064, symSize: 0x1C }
  - { offset: 0x563D2, size: 0x8, addend: 0x0, symName: __ZN5godot8ViewportD1Ev.cold.1, symObjAddr: 0xA9A8, symBinAddr: 0xDC064, symSize: 0x1C }
  - { offset: 0x563E7, size: 0x8, addend: 0x0, symName: __ZN5godot8ViewportD1Ev.cold.1, symObjAddr: 0xA9A8, symBinAddr: 0xDC064, symSize: 0x1C }
  - { offset: 0x5641B, size: 0x8, addend: 0x0, symName: __ZN5godot8ViewportD0Ev, symObjAddr: 0x147C, symBinAddr: 0x547C, symSize: 0x74 }
  - { offset: 0x56566, size: 0x8, addend: 0x0, symName: __ZN5godot8ViewportD0Ev.cold.1, symObjAddr: 0xA9C4, symBinAddr: 0xDC080, symSize: 0x1C }
  - { offset: 0x56581, size: 0x8, addend: 0x0, symName: __ZN5godot8ViewportD0Ev.cold.1, symObjAddr: 0xA9C4, symBinAddr: 0xDC080, symSize: 0x1C }
  - { offset: 0x56595, size: 0x8, addend: 0x0, symName: __ZN5godot8ViewportD0Ev.cold.1, symObjAddr: 0xA9C4, symBinAddr: 0xDC080, symSize: 0x1C }
  - { offset: 0x565A9, size: 0x8, addend: 0x0, symName: __ZN5godot8ViewportD0Ev.cold.1, symObjAddr: 0xA9C4, symBinAddr: 0xDC080, symSize: 0x1C }
  - { offset: 0x565BD, size: 0x8, addend: 0x0, symName: __ZN5godot8ViewportD0Ev.cold.1, symObjAddr: 0xA9C4, symBinAddr: 0xDC080, symSize: 0x1C }
  - { offset: 0x565D1, size: 0x8, addend: 0x0, symName: __ZN5godot8ViewportD0Ev.cold.1, symObjAddr: 0xA9C4, symBinAddr: 0xDC080, symSize: 0x1C }
  - { offset: 0x565E5, size: 0x8, addend: 0x0, symName: __ZN5godot8ViewportD0Ev.cold.1, symObjAddr: 0xA9C4, symBinAddr: 0xDC080, symSize: 0x1C }
  - { offset: 0x565FA, size: 0x8, addend: 0x0, symName: __ZN5godot8ViewportD0Ev.cold.1, symObjAddr: 0xA9C4, symBinAddr: 0xDC080, symSize: 0x1C }
  - { offset: 0x5661A, size: 0x8, addend: 0x0, symName: __ZN5godot8internal23EngineClassRegistrationINS_6WindowEE8callbackEv, symObjAddr: 0x14F0, symBinAddr: 0x54F0, symSize: 0x48 }
  - { offset: 0x56664, size: 0x8, addend: 0x0, symName: __ZN5godot8internal23EngineClassRegistrationINS_6WindowEE8callbackEv.cold.1, symObjAddr: 0xA9E0, symBinAddr: 0xDC09C, symSize: 0x5C }
  - { offset: 0x566E1, size: 0x8, addend: 0x0, symName: __ZN5godot6Window28_gde_binding_create_callbackEPvS1_, symObjAddr: 0x1538, symBinAddr: 0x5538, symSize: 0x48 }
  - { offset: 0x567C3, size: 0x8, addend: 0x0, symName: __ZN5godot6Window26_gde_binding_free_callbackEPvS1_S1_, symObjAddr: 0x1580, symBinAddr: 0x5580, symSize: 0x34 }
  - { offset: 0x56818, size: 0x8, addend: 0x0, symName: __ZN5godot6Window31_gde_binding_reference_callbackEPvS1_h, symObjAddr: 0x15B4, symBinAddr: 0x55B4, symSize: 0x8 }
  - { offset: 0x56F29, size: 0x8, addend: 0x0, symName: __ZNSt3__112__hash_tableINS_17__hash_value_typeIN5godot10StringNameEPK35GDExtensionInstanceBindingCallbacksEENS_22__unordered_map_hasherIS3_S7_NS_4hashIS3_EENS_8equal_toIS3_EELb1EEENS_21__unordered_map_equalIS3_S7_SC_SA_Lb1EEENS_9allocatorIS7_EEE25__emplace_unique_key_argsIS3_JRKNS_21piecewise_construct_tENS_5tupleIJRKS3_EEENSN_IJEEEEEENS_4pairINS_15__hash_iteratorIPNS_11__hash_nodeIS7_PvEEEEbEERKT_DpOT0_, symObjAddr: 0x1CCC, symBinAddr: 0x5CCC, symSize: 0x328 }
  - { offset: 0x575B3, size: 0x8, addend: 0x0, symName: __ZNSt3__112__hash_tableINS_17__hash_value_typeIN5godot10StringNameENS2_7ClassDB9ClassInfoEEENS_22__unordered_map_hasherIS3_S6_NS_4hashIS3_EENS_8equal_toIS3_EELb1EEENS_21__unordered_map_equalIS3_S6_SB_S9_Lb1EEENS_9allocatorIS6_EEE4findIS3_EENS_15__hash_iteratorIPNS_11__hash_nodeIS6_PvEEEERKT_, symObjAddr: 0x21A0, symBinAddr: 0x61A0, symSize: 0x138 }
  - { offset: 0x57794, size: 0x8, addend: 0x0, symName: __ZNSt3__112__hash_tableINS_17__hash_value_typeIN5godot10StringNameENS2_7ClassDB9ClassInfoEEENS_22__unordered_map_hasherIS3_S6_NS_4hashIS3_EENS_8equal_toIS3_EELb1EEENS_21__unordered_map_equalIS3_S6_SB_S9_Lb1EEENS_9allocatorIS6_EEE25__emplace_unique_key_argsIS3_JRKNS_21piecewise_construct_tENS_5tupleIJRKS3_EEENSM_IJEEEEEENS_4pairINS_15__hash_iteratorIPNS_11__hash_nodeIS6_PvEEEEbEERKT_DpOT0_, symObjAddr: 0x22D8, symBinAddr: 0x62D8, symSize: 0x3B8 }
  - { offset: 0x5837A, size: 0x8, addend: 0x0, symName: __ZN5godot7ClassDB9ClassInfoaSERKS1_, symObjAddr: 0x18E8, symBinAddr: 0x58E8, symSize: 0xAC }
  - { offset: 0x586DF, size: 0x8, addend: 0x0, symName: __ZNSt3__16vectorIN5godot10StringNameENS_9allocatorIS2_EEE21__push_back_slow_pathIRKS2_EEPS2_OT_, symObjAddr: 0x3AF0, symBinAddr: 0x7AF0, symSize: 0x114 }
  - { offset: 0x58B76, size: 0x8, addend: 0x0, symName: __ZN5godot12PropertyInfoC1EPK23GDExtensionPropertyInfo, symObjAddr: 0x3C04, symBinAddr: 0x7C04, symSize: 0xDC }
  - { offset: 0x58B8A, size: 0x8, addend: 0x0, symName: __ZN5godot7ClassDB9ClassInfoD2Ev, symObjAddr: 0x3EC8, symBinAddr: 0x7EC8, symSize: 0xBC }
  - { offset: 0x593B2, size: 0x8, addend: 0x0, symName: __ZN5godot7ClassDB15_register_classIN6sentry18SentryLoggerLimitsELb0EEEvbbb.cold.1, symObjAddr: 0xAA3C, symBinAddr: 0xDC0F8, symSize: 0x5C }
  - { offset: 0x593E0, size: 0x8, addend: 0x0, symName: __ZN5godot7ClassDB15_register_classIN6sentry18SentryLoggerLimitsELb0EEEvbbb.cold.2, symObjAddr: 0xAA98, symBinAddr: 0xDC154, symSize: 0x58 }
  - { offset: 0x5940E, size: 0x8, addend: 0x0, symName: __ZN5godot7ClassDB15_register_classIN6sentry18SentryLoggerLimitsELb0EEEvbbb.cold.3, symObjAddr: 0xAAF0, symBinAddr: 0xDC1AC, symSize: 0x58 }
  - { offset: 0x59451, size: 0x8, addend: 0x0, symName: __ZN5godot7ClassDB15_register_classIN6sentry18SentryLoggerLimitsELb0EEEvbbb.cold.4, symObjAddr: 0xAB48, symBinAddr: 0xDC204, symSize: 0x58 }
  - { offset: 0x595FB, size: 0x8, addend: 0x0, symName: __ZNSt3__112__hash_tableINS_17__hash_value_typeIN5godot10StringNameEPNS2_10MethodBindEEENS_22__unordered_map_hasherIS3_S6_NS_4hashIS3_EENS_8equal_toIS3_EELb1EEENS_21__unordered_map_equalIS3_S6_SB_S9_Lb1EEENS_9allocatorIS6_EEE14__assign_multiINS_21__hash_const_iteratorIPNS_11__hash_nodeIS6_PvEEEEEEvT_SP_, symObjAddr: 0x2830, symBinAddr: 0x6830, symSize: 0x100 }
  - { offset: 0x59BF4, size: 0x8, addend: 0x0, symName: __ZNSt3__16__treeIN5godot10StringNameENS_4lessIS2_EENS_9allocatorIS2_EEE14__assign_multiINS_21__tree_const_iteratorIS2_PNS_11__tree_nodeIS2_PvEElEEEEvT_SF_, symObjAddr: 0x2EF0, symBinAddr: 0x6EF0, symSize: 0x340 }
  - { offset: 0x5A1D7, size: 0x8, addend: 0x0, symName: __ZNSt3__112__hash_tableINS_17__hash_value_typeIN5godot10StringNameENS2_7ClassDB9ClassInfo13VirtualMethodEEENS_22__unordered_map_hasherIS3_S7_NS_4hashIS3_EENS_8equal_toIS3_EELb1EEENS_21__unordered_map_equalIS3_S7_SC_SA_Lb1EEENS_9allocatorIS7_EEE14__assign_multiINS_21__hash_const_iteratorIPNS_11__hash_nodeIS7_PvEEEEEEvT_SQ_, symObjAddr: 0x3430, symBinAddr: 0x7430, symSize: 0x100 }
  - { offset: 0x5A7D2, size: 0x8, addend: 0x0, symName: __ZN6sentry18SentryLoggerLimits8set_bindEPvPKvS3_, symObjAddr: 0x1994, symBinAddr: 0x5994, symSize: 0x8 }
  - { offset: 0x5A812, size: 0x8, addend: 0x0, symName: __ZN6sentry18SentryLoggerLimits8get_bindEPvPKvS1_, symObjAddr: 0x199C, symBinAddr: 0x599C, symSize: 0x8 }
  - { offset: 0x5A86D, size: 0x8, addend: 0x0, symName: __ZN6sentry18SentryLoggerLimits22get_property_list_bindEPvPj, symObjAddr: 0x19A4, symBinAddr: 0x59A4, symSize: 0x40 }
  - { offset: 0x5A8F9, size: 0x8, addend: 0x0, symName: __ZN6sentry18SentryLoggerLimits22get_property_list_bindEPvPj.cold.1, symObjAddr: 0xABA0, symBinAddr: 0xDC25C, symSize: 0x28 }
  - { offset: 0x5A911, size: 0x8, addend: 0x0, symName: __ZN6sentry18SentryLoggerLimits23free_property_list_bindEPvPK23GDExtensionPropertyInfoj, symObjAddr: 0x19E4, symBinAddr: 0x59E4, symSize: 0x58 }
  - { offset: 0x5AA2B, size: 0x8, addend: 0x0, symName: __ZN6sentry18SentryLoggerLimits24property_can_revert_bindEPvPKv, symObjAddr: 0x1A3C, symBinAddr: 0x5A3C, symSize: 0x8 }
  - { offset: 0x5AA5D, size: 0x8, addend: 0x0, symName: __ZN6sentry18SentryLoggerLimits24property_get_revert_bindEPvPKvS1_, symObjAddr: 0x1A44, symBinAddr: 0x5A44, symSize: 0x8 }
  - { offset: 0x5AABE, size: 0x8, addend: 0x0, symName: __ZN6sentry18SentryLoggerLimits22validate_property_bindEPvP23GDExtensionPropertyInfo, symObjAddr: 0x1A4C, symBinAddr: 0x5A4C, symSize: 0xB8 }
  - { offset: 0x5AB81, size: 0x8, addend: 0x0, symName: __ZN5godot12PropertyInfoC1EPK23GDExtensionPropertyInfo, symObjAddr: 0x3C04, symBinAddr: 0x7C04, symSize: 0xDC }
  - { offset: 0x5AC99, size: 0x8, addend: 0x0, symName: __ZN6sentry18SentryLoggerLimits17notification_bindEPvih, symObjAddr: 0x1B04, symBinAddr: 0x5B04, symSize: 0x4 }
  - { offset: 0x5ACD8, size: 0x8, addend: 0x0, symName: __ZN6sentry18SentryLoggerLimits14to_string_bindEPvPhS1_, symObjAddr: 0x1B08, symBinAddr: 0x5B08, symSize: 0x7C }
  - { offset: 0x5AD4E, size: 0x8, addend: 0x0, symName: __ZNK5godot6Object10_to_stringEv, symObjAddr: 0x3CE0, symBinAddr: 0x7CE0, symSize: 0xE0 }
  - { offset: 0x5AE71, size: 0x8, addend: 0x0, symName: __ZN5godot7ClassDB21_create_instance_funcIN6sentry18SentryLoggerLimitsEEEPvS4_h, symObjAddr: 0x1B84, symBinAddr: 0x5B84, symSize: 0xF0 }
  - { offset: 0x5AF9D, size: 0x8, addend: 0x0, symName: __ZN5godot7ClassDB21_create_instance_funcIN6sentry18SentryLoggerLimitsEEEPvS4_h.cold.1, symObjAddr: 0xABC8, symBinAddr: 0xDC284, symSize: 0x5C }
  - { offset: 0x5AFF5, size: 0x8, addend: 0x0, symName: __ZN6sentry18SentryLoggerLimits4freeEPvS1_, symObjAddr: 0x1C74, symBinAddr: 0x5C74, symSize: 0x3C }
  - { offset: 0x5B050, size: 0x8, addend: 0x0, symName: __ZN5godot7ClassDB23_recreate_instance_funcIN6sentry18SentryLoggerLimitsEEEPvS4_S4_, symObjAddr: 0x1CB0, symBinAddr: 0x5CB0, symSize: 0x8 }
  - { offset: 0x5B08B, size: 0x8, addend: 0x0, symName: __ZN6sentry18SentryLoggerLimits28_gde_binding_create_callbackEPvS1_, symObjAddr: 0x1CB8, symBinAddr: 0x5CB8, symSize: 0x8 }
  - { offset: 0x5B0B6, size: 0x8, addend: 0x0, symName: __ZN6sentry18SentryLoggerLimits26_gde_binding_free_callbackEPvS1_S1_, symObjAddr: 0x1CC0, symBinAddr: 0x5CC0, symSize: 0x4 }
  - { offset: 0x5B0E9, size: 0x8, addend: 0x0, symName: __ZN6sentry18SentryLoggerLimits31_gde_binding_reference_callbackEPvS1_h, symObjAddr: 0x1CC4, symBinAddr: 0x5CC4, symSize: 0x8 }
  - { offset: 0x5B613, size: 0x8, addend: 0x0, symName: __ZNSt3__112__hash_tableINS_17__hash_value_typeIN5godot10StringNameEPK35GDExtensionInstanceBindingCallbacksEENS_22__unordered_map_hasherIS3_S7_NS_4hashIS3_EENS_8equal_toIS3_EELb1EEENS_21__unordered_map_equalIS3_S7_SC_SA_Lb1EEENS_9allocatorIS7_EEE11__do_rehashILb1EEEvm, symObjAddr: 0x2000, symBinAddr: 0x6000, symSize: 0x1A0 }
  - { offset: 0x5BA8B, size: 0x8, addend: 0x0, symName: __ZNSt3__112__hash_tableINS_17__hash_value_typeIN5godot10StringNameENS2_7ClassDB9ClassInfoEEENS_22__unordered_map_hasherIS3_S6_NS_4hashIS3_EENS_8equal_toIS3_EELb1EEENS_21__unordered_map_equalIS3_S6_SB_S9_Lb1EEENS_9allocatorIS6_EEE4findIS3_EENS_15__hash_iteratorIPNS_11__hash_nodeIS6_PvEEEERKT_, symObjAddr: 0x21A0, symBinAddr: 0x61A0, symSize: 0x138 }
  - { offset: 0x5C047, size: 0x8, addend: 0x0, symName: __ZNSt3__112__hash_tableINS_17__hash_value_typeIN5godot10StringNameENS2_7ClassDB9ClassInfoEEENS_22__unordered_map_hasherIS3_S6_NS_4hashIS3_EENS_8equal_toIS3_EELb1EEENS_21__unordered_map_equalIS3_S6_SB_S9_Lb1EEENS_9allocatorIS6_EEE11__do_rehashILb1EEEvm, symObjAddr: 0x2690, symBinAddr: 0x6690, symSize: 0x1A0 }
  - { offset: 0x5C4BF, size: 0x8, addend: 0x0, symName: __ZNSt3__112__hash_tableINS_17__hash_value_typeIN5godot10StringNameEPNS2_10MethodBindEEENS_22__unordered_map_hasherIS3_S6_NS_4hashIS3_EENS_8equal_toIS3_EELb1EEENS_21__unordered_map_equalIS3_S6_SB_S9_Lb1EEENS_9allocatorIS6_EEE14__assign_multiINS_21__hash_const_iteratorIPNS_11__hash_nodeIS6_PvEEEEEEvT_SP_, symObjAddr: 0x2830, symBinAddr: 0x6830, symSize: 0x100 }
  - { offset: 0x5CA90, size: 0x8, addend: 0x0, symName: __ZNSt3__112__hash_tableINS_17__hash_value_typeIN5godot10StringNameEPNS2_10MethodBindEEENS_22__unordered_map_hasherIS3_S6_NS_4hashIS3_EENS_8equal_toIS3_EELb1EEENS_21__unordered_map_equalIS3_S6_SB_S9_Lb1EEENS_9allocatorIS6_EEE19__node_insert_multiEPNS_11__hash_nodeIS6_PvEE, symObjAddr: 0x2930, symBinAddr: 0x6930, symSize: 0x124 }
  - { offset: 0x5CD2B, size: 0x8, addend: 0x0, symName: __ZNSt3__112__hash_tableINS_17__hash_value_typeIN5godot10StringNameEPNS2_10MethodBindEEENS_22__unordered_map_hasherIS3_S6_NS_4hashIS3_EENS_8equal_toIS3_EELb1EEENS_21__unordered_map_equalIS3_S6_SB_S9_Lb1EEENS_9allocatorIS6_EEE27__node_insert_multi_prepareEmRS6_, symObjAddr: 0x2A54, symBinAddr: 0x6A54, symSize: 0x27C }
  - { offset: 0x5D0A0, size: 0x8, addend: 0x0, symName: __ZNSt3__112__hash_tableINS_17__hash_value_typeIN5godot10StringNameEPNS2_10MethodBindEEENS_22__unordered_map_hasherIS3_S6_NS_4hashIS3_EENS_8equal_toIS3_EELb1EEENS_21__unordered_map_equalIS3_S6_SB_S9_Lb1EEENS_9allocatorIS6_EEE11__do_rehashILb0EEEvm, symObjAddr: 0x2CD0, symBinAddr: 0x6CD0, symSize: 0x220 }
  - { offset: 0x5D55D, size: 0x8, addend: 0x0, symName: __ZNSt3__16__treeIN5godot10StringNameENS_4lessIS2_EENS_9allocatorIS2_EEE14__assign_multiINS_21__tree_const_iteratorIS2_PNS_11__tree_nodeIS2_PvEElEEEEvT_SF_, symObjAddr: 0x2EF0, symBinAddr: 0x6EF0, symSize: 0x340 }
  - { offset: 0x5DA40, size: 0x8, addend: 0x0, symName: __ZNSt3__16__treeIN5godot10StringNameENS_4lessIS2_EENS_9allocatorIS2_EEE7destroyEPNS_11__tree_nodeIS2_PvEE, symObjAddr: 0x33E4, symBinAddr: 0x73E4, symSize: 0x4C }
  - { offset: 0x5E120, size: 0x8, addend: 0x0, symName: __ZNSt3__112__hash_tableINS_17__hash_value_typeIN5godot10StringNameENS2_7ClassDB9ClassInfo13VirtualMethodEEENS_22__unordered_map_hasherIS3_S7_NS_4hashIS3_EENS_8equal_toIS3_EELb1EEENS_21__unordered_map_equalIS3_S7_SC_SA_Lb1EEENS_9allocatorIS7_EEE19__node_insert_multiEPNS_11__hash_nodeIS7_PvEE, symObjAddr: 0x3530, symBinAddr: 0x7530, symSize: 0x124 }
  - { offset: 0x5E3BB, size: 0x8, addend: 0x0, symName: __ZNSt3__112__hash_tableINS_17__hash_value_typeIN5godot10StringNameENS2_7ClassDB9ClassInfo13VirtualMethodEEENS_22__unordered_map_hasherIS3_S7_NS_4hashIS3_EENS_8equal_toIS3_EELb1EEENS_21__unordered_map_equalIS3_S7_SC_SA_Lb1EEENS_9allocatorIS7_EEE27__node_insert_multi_prepareEmRS7_, symObjAddr: 0x3654, symBinAddr: 0x7654, symSize: 0x27C }
  - { offset: 0x5E730, size: 0x8, addend: 0x0, symName: __ZNSt3__112__hash_tableINS_17__hash_value_typeIN5godot10StringNameENS2_7ClassDB9ClassInfo13VirtualMethodEEENS_22__unordered_map_hasherIS3_S7_NS_4hashIS3_EENS_8equal_toIS3_EELb1EEENS_21__unordered_map_equalIS3_S7_SC_SA_Lb1EEENS_9allocatorIS7_EEE11__do_rehashILb0EEEvm, symObjAddr: 0x38D0, symBinAddr: 0x78D0, symSize: 0x220 }
  - { offset: 0x5EBED, size: 0x8, addend: 0x0, symName: __ZNSt3__16vectorIN5godot10StringNameENS_9allocatorIS2_EEE21__push_back_slow_pathIRKS2_EEPS2_OT_, symObjAddr: 0x3AF0, symBinAddr: 0x7AF0, symSize: 0x114 }
  - { offset: 0x5F0F4, size: 0x8, addend: 0x0, symName: __ZNK6sentry18SentryLoggerLimits19_is_extension_classEv, symObjAddr: 0x3DC0, symBinAddr: 0x7DC0, symSize: 0x8 }
  - { offset: 0x5F137, size: 0x8, addend: 0x0, symName: __ZN6sentry18SentryLoggerLimitsD1Ev, symObjAddr: 0x3DC8, symBinAddr: 0x7DC8, symSize: 0x8C }
  - { offset: 0x5F2D5, size: 0x8, addend: 0x0, symName: __ZN6sentry18SentryLoggerLimitsD1Ev.cold.1, symObjAddr: 0xAC24, symBinAddr: 0xDC2E0, symSize: 0x1C }
  - { offset: 0x5F2F0, size: 0x8, addend: 0x0, symName: __ZN6sentry18SentryLoggerLimitsD1Ev.cold.1, symObjAddr: 0xAC24, symBinAddr: 0xDC2E0, symSize: 0x1C }
  - { offset: 0x5F304, size: 0x8, addend: 0x0, symName: __ZN6sentry18SentryLoggerLimitsD1Ev.cold.1, symObjAddr: 0xAC24, symBinAddr: 0xDC2E0, symSize: 0x1C }
  - { offset: 0x5F318, size: 0x8, addend: 0x0, symName: __ZN6sentry18SentryLoggerLimitsD1Ev.cold.1, symObjAddr: 0xAC24, symBinAddr: 0xDC2E0, symSize: 0x1C }
  - { offset: 0x5F32C, size: 0x8, addend: 0x0, symName: __ZN6sentry18SentryLoggerLimitsD1Ev.cold.1, symObjAddr: 0xAC24, symBinAddr: 0xDC2E0, symSize: 0x1C }
  - { offset: 0x5F340, size: 0x8, addend: 0x0, symName: __ZN6sentry18SentryLoggerLimitsD1Ev.cold.1, symObjAddr: 0xAC24, symBinAddr: 0xDC2E0, symSize: 0x1C }
  - { offset: 0x5F355, size: 0x8, addend: 0x0, symName: __ZN6sentry18SentryLoggerLimitsD1Ev.cold.1, symObjAddr: 0xAC24, symBinAddr: 0xDC2E0, symSize: 0x1C }
  - { offset: 0x5F389, size: 0x8, addend: 0x0, symName: __ZN6sentry18SentryLoggerLimitsD0Ev, symObjAddr: 0x3E54, symBinAddr: 0x7E54, symSize: 0x74 }
  - { offset: 0x5F4D4, size: 0x8, addend: 0x0, symName: __ZN6sentry18SentryLoggerLimitsD0Ev.cold.1, symObjAddr: 0xAC40, symBinAddr: 0xDC2FC, symSize: 0x1C }
  - { offset: 0x5F4EF, size: 0x8, addend: 0x0, symName: __ZN6sentry18SentryLoggerLimitsD0Ev.cold.1, symObjAddr: 0xAC40, symBinAddr: 0xDC2FC, symSize: 0x1C }
  - { offset: 0x5F503, size: 0x8, addend: 0x0, symName: __ZN6sentry18SentryLoggerLimitsD0Ev.cold.1, symObjAddr: 0xAC40, symBinAddr: 0xDC2FC, symSize: 0x1C }
  - { offset: 0x5F517, size: 0x8, addend: 0x0, symName: __ZN6sentry18SentryLoggerLimitsD0Ev.cold.1, symObjAddr: 0xAC40, symBinAddr: 0xDC2FC, symSize: 0x1C }
  - { offset: 0x5F52B, size: 0x8, addend: 0x0, symName: __ZN6sentry18SentryLoggerLimitsD0Ev.cold.1, symObjAddr: 0xAC40, symBinAddr: 0xDC2FC, symSize: 0x1C }
  - { offset: 0x5F53F, size: 0x8, addend: 0x0, symName: __ZN6sentry18SentryLoggerLimitsD0Ev.cold.1, symObjAddr: 0xAC40, symBinAddr: 0xDC2FC, symSize: 0x1C }
  - { offset: 0x5F553, size: 0x8, addend: 0x0, symName: __ZN6sentry18SentryLoggerLimitsD0Ev.cold.1, symObjAddr: 0xAC40, symBinAddr: 0xDC2FC, symSize: 0x1C }
  - { offset: 0x5F568, size: 0x8, addend: 0x0, symName: __ZN6sentry18SentryLoggerLimitsD0Ev.cold.1, symObjAddr: 0xAC40, symBinAddr: 0xDC2FC, symSize: 0x1C }
  - { offset: 0x5F78E, size: 0x8, addend: 0x0, symName: __ZN5godot7ClassDB15_register_classIN6sentry13SentryOptionsELb0EEEvbbb.cold.1, symObjAddr: 0xAC5C, symBinAddr: 0xDC318, symSize: 0x5C }
  - { offset: 0x5F7BC, size: 0x8, addend: 0x0, symName: __ZN5godot7ClassDB15_register_classIN6sentry13SentryOptionsELb0EEEvbbb.cold.2, symObjAddr: 0xACB8, symBinAddr: 0xDC374, symSize: 0x58 }
  - { offset: 0x5F7EA, size: 0x8, addend: 0x0, symName: __ZN5godot7ClassDB15_register_classIN6sentry13SentryOptionsELb0EEEvbbb.cold.3, symObjAddr: 0xAD10, symBinAddr: 0xDC3CC, symSize: 0x58 }
  - { offset: 0x5F82D, size: 0x8, addend: 0x0, symName: __ZN5godot7ClassDB15_register_classIN6sentry13SentryOptionsELb0EEEvbbb.cold.4, symObjAddr: 0xAD68, symBinAddr: 0xDC424, symSize: 0x58 }
  - { offset: 0x5F85C, size: 0x8, addend: 0x0, symName: __ZN6sentry13SentryOptions8set_bindEPvPKvS3_, symObjAddr: 0x42B0, symBinAddr: 0x82B0, symSize: 0x8 }
  - { offset: 0x5F89C, size: 0x8, addend: 0x0, symName: __ZN6sentry13SentryOptions8get_bindEPvPKvS1_, symObjAddr: 0x42B8, symBinAddr: 0x82B8, symSize: 0x8 }
  - { offset: 0x5F8DC, size: 0x8, addend: 0x0, symName: __ZN6sentry13SentryOptions22get_property_list_bindEPvPj, symObjAddr: 0x42C0, symBinAddr: 0x82C0, symSize: 0x40 }
  - { offset: 0x5F968, size: 0x8, addend: 0x0, symName: __ZN6sentry13SentryOptions22get_property_list_bindEPvPj.cold.1, symObjAddr: 0xADC0, symBinAddr: 0xDC47C, symSize: 0x28 }
  - { offset: 0x5F980, size: 0x8, addend: 0x0, symName: __ZN6sentry13SentryOptions23free_property_list_bindEPvPK23GDExtensionPropertyInfoj, symObjAddr: 0x4300, symBinAddr: 0x8300, symSize: 0x58 }
  - { offset: 0x5FA9A, size: 0x8, addend: 0x0, symName: __ZN6sentry13SentryOptions24property_can_revert_bindEPvPKv, symObjAddr: 0x4358, symBinAddr: 0x8358, symSize: 0x8 }
  - { offset: 0x5FACC, size: 0x8, addend: 0x0, symName: __ZN6sentry13SentryOptions24property_get_revert_bindEPvPKvS1_, symObjAddr: 0x4360, symBinAddr: 0x8360, symSize: 0x8 }
  - { offset: 0x5FB0C, size: 0x8, addend: 0x0, symName: __ZN6sentry13SentryOptions22validate_property_bindEPvP23GDExtensionPropertyInfo, symObjAddr: 0x4368, symBinAddr: 0x8368, symSize: 0xB8 }
  - { offset: 0x5FBCF, size: 0x8, addend: 0x0, symName: __ZN6sentry13SentryOptions17notification_bindEPvih, symObjAddr: 0x4420, symBinAddr: 0x8420, symSize: 0x4 }
  - { offset: 0x5FC0E, size: 0x8, addend: 0x0, symName: __ZN6sentry13SentryOptions14to_string_bindEPvPhS1_, symObjAddr: 0x4424, symBinAddr: 0x8424, symSize: 0x7C }
  - { offset: 0x5FCA9, size: 0x8, addend: 0x0, symName: __ZN5godot7ClassDB21_create_instance_funcIN6sentry13SentryOptionsEEEPvS4_h, symObjAddr: 0x44A0, symBinAddr: 0x84A0, symSize: 0x80 }
  - { offset: 0x5FD37, size: 0x8, addend: 0x0, symName: __ZN5godot7ClassDB21_create_instance_funcIN6sentry13SentryOptionsEEEPvS4_h.cold.1, symObjAddr: 0xADE8, symBinAddr: 0xDC4A4, symSize: 0x5C }
  - { offset: 0x5FD8F, size: 0x8, addend: 0x0, symName: __ZN6sentry13SentryOptions4freeEPvS1_, symObjAddr: 0x4520, symBinAddr: 0x8520, symSize: 0x3C }
  - { offset: 0x5FDEA, size: 0x8, addend: 0x0, symName: __ZN5godot7ClassDB23_recreate_instance_funcIN6sentry13SentryOptionsEEEPvS4_S4_, symObjAddr: 0x455C, symBinAddr: 0x855C, symSize: 0x8 }
  - { offset: 0x5FE25, size: 0x8, addend: 0x0, symName: __ZN6sentry13SentryOptions28_gde_binding_create_callbackEPvS1_, symObjAddr: 0x4564, symBinAddr: 0x8564, symSize: 0x8 }
  - { offset: 0x5FE50, size: 0x8, addend: 0x0, symName: __ZN6sentry13SentryOptions26_gde_binding_free_callbackEPvS1_S1_, symObjAddr: 0x456C, symBinAddr: 0x856C, symSize: 0x4 }
  - { offset: 0x5FE83, size: 0x8, addend: 0x0, symName: __ZN6sentry13SentryOptions31_gde_binding_reference_callbackEPvS1_h, symObjAddr: 0x4570, symBinAddr: 0x8570, symSize: 0x8 }
  - { offset: 0x5FECD, size: 0x8, addend: 0x0, symName: __ZN5godot7ClassDB15_register_classIN6sentry13RuntimeConfigELb0EEEvbbb.cold.1, symObjAddr: 0xAE44, symBinAddr: 0xDC500, symSize: 0x5C }
  - { offset: 0x5FEFB, size: 0x8, addend: 0x0, symName: __ZN5godot7ClassDB15_register_classIN6sentry13RuntimeConfigELb0EEEvbbb.cold.2, symObjAddr: 0xAEA0, symBinAddr: 0xDC55C, symSize: 0x58 }
  - { offset: 0x5FF29, size: 0x8, addend: 0x0, symName: __ZN5godot7ClassDB15_register_classIN6sentry13RuntimeConfigELb0EEEvbbb.cold.3, symObjAddr: 0xAEF8, symBinAddr: 0xDC5B4, symSize: 0x58 }
  - { offset: 0x5FF6C, size: 0x8, addend: 0x0, symName: __ZN5godot7ClassDB15_register_classIN6sentry13RuntimeConfigELb0EEEvbbb.cold.4, symObjAddr: 0xAF50, symBinAddr: 0xDC60C, symSize: 0x58 }
  - { offset: 0x5FF9B, size: 0x8, addend: 0x0, symName: __ZN6sentry13RuntimeConfig8set_bindEPvPKvS3_, symObjAddr: 0x48A0, symBinAddr: 0x88A0, symSize: 0x8 }
  - { offset: 0x5FFDB, size: 0x8, addend: 0x0, symName: __ZN6sentry13RuntimeConfig8get_bindEPvPKvS1_, symObjAddr: 0x48A8, symBinAddr: 0x88A8, symSize: 0x8 }
  - { offset: 0x6001B, size: 0x8, addend: 0x0, symName: __ZN6sentry13RuntimeConfig22get_property_list_bindEPvPj, symObjAddr: 0x48B0, symBinAddr: 0x88B0, symSize: 0x40 }
  - { offset: 0x600A7, size: 0x8, addend: 0x0, symName: __ZN6sentry13RuntimeConfig22get_property_list_bindEPvPj.cold.1, symObjAddr: 0xAFA8, symBinAddr: 0xDC664, symSize: 0x28 }
  - { offset: 0x600BF, size: 0x8, addend: 0x0, symName: __ZN6sentry13RuntimeConfig23free_property_list_bindEPvPK23GDExtensionPropertyInfoj, symObjAddr: 0x48F0, symBinAddr: 0x88F0, symSize: 0x58 }
  - { offset: 0x601D9, size: 0x8, addend: 0x0, symName: __ZN6sentry13RuntimeConfig24property_can_revert_bindEPvPKv, symObjAddr: 0x4948, symBinAddr: 0x8948, symSize: 0x8 }
  - { offset: 0x6020B, size: 0x8, addend: 0x0, symName: __ZN6sentry13RuntimeConfig24property_get_revert_bindEPvPKvS1_, symObjAddr: 0x4950, symBinAddr: 0x8950, symSize: 0x8 }
  - { offset: 0x6024B, size: 0x8, addend: 0x0, symName: __ZN6sentry13RuntimeConfig22validate_property_bindEPvP23GDExtensionPropertyInfo, symObjAddr: 0x4958, symBinAddr: 0x8958, symSize: 0xB8 }
  - { offset: 0x6030E, size: 0x8, addend: 0x0, symName: __ZN6sentry13RuntimeConfig17notification_bindEPvih, symObjAddr: 0x4A10, symBinAddr: 0x8A10, symSize: 0x4 }
  - { offset: 0x6034D, size: 0x8, addend: 0x0, symName: __ZN6sentry13RuntimeConfig14to_string_bindEPvPhS1_, symObjAddr: 0x4A14, symBinAddr: 0x8A14, symSize: 0x7C }
  - { offset: 0x603E8, size: 0x8, addend: 0x0, symName: __ZN5godot7ClassDB21_create_instance_funcIN6sentry13RuntimeConfigEEEPvS4_h, symObjAddr: 0x4A90, symBinAddr: 0x8A90, symSize: 0x80 }
  - { offset: 0x60476, size: 0x8, addend: 0x0, symName: __ZN5godot7ClassDB21_create_instance_funcIN6sentry13RuntimeConfigEEEPvS4_h.cold.1, symObjAddr: 0xAFD0, symBinAddr: 0xDC68C, symSize: 0x5C }
  - { offset: 0x604CE, size: 0x8, addend: 0x0, symName: __ZN6sentry13RuntimeConfig4freeEPvS1_, symObjAddr: 0x4B10, symBinAddr: 0x8B10, symSize: 0x3C }
  - { offset: 0x60529, size: 0x8, addend: 0x0, symName: __ZN5godot7ClassDB23_recreate_instance_funcIN6sentry13RuntimeConfigEEEPvS4_S4_, symObjAddr: 0x4B4C, symBinAddr: 0x8B4C, symSize: 0x8 }
  - { offset: 0x60564, size: 0x8, addend: 0x0, symName: __ZN6sentry13RuntimeConfig28_gde_binding_create_callbackEPvS1_, symObjAddr: 0x4B54, symBinAddr: 0x8B54, symSize: 0x8 }
  - { offset: 0x6058F, size: 0x8, addend: 0x0, symName: __ZN6sentry13RuntimeConfig26_gde_binding_free_callbackEPvS1_S1_, symObjAddr: 0x4B5C, symBinAddr: 0x8B5C, symSize: 0x4 }
  - { offset: 0x605C2, size: 0x8, addend: 0x0, symName: __ZN6sentry13RuntimeConfig31_gde_binding_reference_callbackEPvS1_h, symObjAddr: 0x4B60, symBinAddr: 0x8B60, symSize: 0x8 }
  - { offset: 0x6060C, size: 0x8, addend: 0x0, symName: __ZN5godot7ClassDB15_register_classIN6sentry10SentryUserELb0EEEvbbb.cold.1, symObjAddr: 0xB02C, symBinAddr: 0xDC6E8, symSize: 0x5C }
  - { offset: 0x6063A, size: 0x8, addend: 0x0, symName: __ZN5godot7ClassDB15_register_classIN6sentry10SentryUserELb0EEEvbbb.cold.2, symObjAddr: 0xB088, symBinAddr: 0xDC744, symSize: 0x58 }
  - { offset: 0x60668, size: 0x8, addend: 0x0, symName: __ZN5godot7ClassDB15_register_classIN6sentry10SentryUserELb0EEEvbbb.cold.3, symObjAddr: 0xB0E0, symBinAddr: 0xDC79C, symSize: 0x58 }
  - { offset: 0x606AB, size: 0x8, addend: 0x0, symName: __ZN5godot7ClassDB15_register_classIN6sentry10SentryUserELb0EEEvbbb.cold.4, symObjAddr: 0xB138, symBinAddr: 0xDC7F4, symSize: 0x58 }
  - { offset: 0x606DA, size: 0x8, addend: 0x0, symName: __ZN6sentry10SentryUser8set_bindEPvPKvS3_, symObjAddr: 0x4E94, symBinAddr: 0x8E94, symSize: 0x8 }
  - { offset: 0x6071A, size: 0x8, addend: 0x0, symName: __ZN6sentry10SentryUser8get_bindEPvPKvS1_, symObjAddr: 0x4E9C, symBinAddr: 0x8E9C, symSize: 0x8 }
  - { offset: 0x6075A, size: 0x8, addend: 0x0, symName: __ZN6sentry10SentryUser22get_property_list_bindEPvPj, symObjAddr: 0x4EA4, symBinAddr: 0x8EA4, symSize: 0x40 }
  - { offset: 0x607E6, size: 0x8, addend: 0x0, symName: __ZN6sentry10SentryUser22get_property_list_bindEPvPj.cold.1, symObjAddr: 0xB190, symBinAddr: 0xDC84C, symSize: 0x28 }
  - { offset: 0x607FE, size: 0x8, addend: 0x0, symName: __ZN6sentry10SentryUser23free_property_list_bindEPvPK23GDExtensionPropertyInfoj, symObjAddr: 0x4EE4, symBinAddr: 0x8EE4, symSize: 0x58 }
  - { offset: 0x60918, size: 0x8, addend: 0x0, symName: __ZN6sentry10SentryUser24property_can_revert_bindEPvPKv, symObjAddr: 0x4F3C, symBinAddr: 0x8F3C, symSize: 0x8 }
  - { offset: 0x6094A, size: 0x8, addend: 0x0, symName: __ZN6sentry10SentryUser24property_get_revert_bindEPvPKvS1_, symObjAddr: 0x4F44, symBinAddr: 0x8F44, symSize: 0x8 }
  - { offset: 0x6098A, size: 0x8, addend: 0x0, symName: __ZN6sentry10SentryUser22validate_property_bindEPvP23GDExtensionPropertyInfo, symObjAddr: 0x4F4C, symBinAddr: 0x8F4C, symSize: 0xB8 }
  - { offset: 0x60A4D, size: 0x8, addend: 0x0, symName: __ZN6sentry10SentryUser17notification_bindEPvih, symObjAddr: 0x5004, symBinAddr: 0x9004, symSize: 0x4 }
  - { offset: 0x60A8C, size: 0x8, addend: 0x0, symName: __ZN6sentry10SentryUser14to_string_bindEPvPhS1_, symObjAddr: 0x5008, symBinAddr: 0x9008, symSize: 0x7C }
  - { offset: 0x60B4A, size: 0x8, addend: 0x0, symName: __ZN5godot7ClassDB21_create_instance_funcIN6sentry10SentryUserEEEPvS4_h, symObjAddr: 0x5084, symBinAddr: 0x9084, symSize: 0x110 }
  - { offset: 0x60C76, size: 0x8, addend: 0x0, symName: __ZN5godot7ClassDB21_create_instance_funcIN6sentry10SentryUserEEEPvS4_h.cold.1, symObjAddr: 0xB1B8, symBinAddr: 0xDC874, symSize: 0x5C }
  - { offset: 0x60CCE, size: 0x8, addend: 0x0, symName: __ZN6sentry10SentryUser4freeEPvS1_, symObjAddr: 0x5194, symBinAddr: 0x9194, symSize: 0x3C }
  - { offset: 0x60D29, size: 0x8, addend: 0x0, symName: __ZN5godot7ClassDB23_recreate_instance_funcIN6sentry10SentryUserEEEPvS4_S4_, symObjAddr: 0x51D0, symBinAddr: 0x91D0, symSize: 0x8 }
  - { offset: 0x60D64, size: 0x8, addend: 0x0, symName: __ZN6sentry10SentryUser28_gde_binding_create_callbackEPvS1_, symObjAddr: 0x51D8, symBinAddr: 0x91D8, symSize: 0x8 }
  - { offset: 0x60D8F, size: 0x8, addend: 0x0, symName: __ZN6sentry10SentryUser26_gde_binding_free_callbackEPvS1_S1_, symObjAddr: 0x51E0, symBinAddr: 0x91E0, symSize: 0x4 }
  - { offset: 0x60DC2, size: 0x8, addend: 0x0, symName: __ZN6sentry10SentryUser31_gde_binding_reference_callbackEPvS1_h, symObjAddr: 0x51E4, symBinAddr: 0x91E4, symSize: 0x8 }
  - { offset: 0x60DF7, size: 0x8, addend: 0x0, symName: __ZNK6sentry10SentryUser19_is_extension_classEv, symObjAddr: 0x51EC, symBinAddr: 0x91EC, symSize: 0x8 }
  - { offset: 0x60E1E, size: 0x8, addend: 0x0, symName: __ZN6sentry10SentryUserD1Ev, symObjAddr: 0x51F4, symBinAddr: 0x91F4, symSize: 0x4 }
  - { offset: 0x60E41, size: 0x8, addend: 0x0, symName: __ZN6sentry10SentryUserD1Ev, symObjAddr: 0x51F4, symBinAddr: 0x91F4, symSize: 0x4 }
  - { offset: 0x60E54, size: 0x8, addend: 0x0, symName: __ZN6sentry10SentryUserD2Ev, symObjAddr: 0x520C, symBinAddr: 0x920C, symSize: 0xB4 }
  - { offset: 0x61003, size: 0x8, addend: 0x0, symName: __ZN6sentry10SentryUserD0Ev, symObjAddr: 0x51F8, symBinAddr: 0x91F8, symSize: 0x14 }
  - { offset: 0x61060, size: 0x8, addend: 0x0, symName: __ZN6sentry10SentryUserD2Ev.cold.1, symObjAddr: 0xB214, symBinAddr: 0xDC8D0, symSize: 0x1C }
  - { offset: 0x6107B, size: 0x8, addend: 0x0, symName: __ZN6sentry10SentryUserD2Ev.cold.1, symObjAddr: 0xB214, symBinAddr: 0xDC8D0, symSize: 0x1C }
  - { offset: 0x6108F, size: 0x8, addend: 0x0, symName: __ZN6sentry10SentryUserD2Ev.cold.1, symObjAddr: 0xB214, symBinAddr: 0xDC8D0, symSize: 0x1C }
  - { offset: 0x610A3, size: 0x8, addend: 0x0, symName: __ZN6sentry10SentryUserD2Ev.cold.1, symObjAddr: 0xB214, symBinAddr: 0xDC8D0, symSize: 0x1C }
  - { offset: 0x610B7, size: 0x8, addend: 0x0, symName: __ZN6sentry10SentryUserD2Ev.cold.1, symObjAddr: 0xB214, symBinAddr: 0xDC8D0, symSize: 0x1C }
  - { offset: 0x610CC, size: 0x8, addend: 0x0, symName: __ZN6sentry10SentryUserD2Ev.cold.1, symObjAddr: 0xB214, symBinAddr: 0xDC8D0, symSize: 0x1C }
  - { offset: 0x610F8, size: 0x8, addend: 0x0, symName: __ZN5godot7ClassDB15_register_classIN6sentry15SentryTimestampELb0EEEvbbb.cold.1, symObjAddr: 0xB230, symBinAddr: 0xDC8EC, symSize: 0x5C }
  - { offset: 0x61126, size: 0x8, addend: 0x0, symName: __ZN5godot7ClassDB15_register_classIN6sentry15SentryTimestampELb0EEEvbbb.cold.2, symObjAddr: 0xB28C, symBinAddr: 0xDC948, symSize: 0x58 }
  - { offset: 0x61154, size: 0x8, addend: 0x0, symName: __ZN5godot7ClassDB15_register_classIN6sentry15SentryTimestampELb0EEEvbbb.cold.3, symObjAddr: 0xB2E4, symBinAddr: 0xDC9A0, symSize: 0x58 }
  - { offset: 0x61197, size: 0x8, addend: 0x0, symName: __ZN5godot7ClassDB15_register_classIN6sentry15SentryTimestampELb0EEEvbbb.cold.4, symObjAddr: 0xB33C, symBinAddr: 0xDC9F8, symSize: 0x58 }
  - { offset: 0x611C6, size: 0x8, addend: 0x0, symName: __ZN6sentry15SentryTimestamp8set_bindEPvPKvS3_, symObjAddr: 0x55EC, symBinAddr: 0x95EC, symSize: 0x8 }
  - { offset: 0x61206, size: 0x8, addend: 0x0, symName: __ZN6sentry15SentryTimestamp8get_bindEPvPKvS1_, symObjAddr: 0x55F4, symBinAddr: 0x95F4, symSize: 0x8 }
  - { offset: 0x61246, size: 0x8, addend: 0x0, symName: __ZN6sentry15SentryTimestamp22get_property_list_bindEPvPj, symObjAddr: 0x55FC, symBinAddr: 0x95FC, symSize: 0x40 }
  - { offset: 0x612D2, size: 0x8, addend: 0x0, symName: __ZN6sentry15SentryTimestamp22get_property_list_bindEPvPj.cold.1, symObjAddr: 0xB394, symBinAddr: 0xDCA50, symSize: 0x28 }
  - { offset: 0x612EA, size: 0x8, addend: 0x0, symName: __ZN6sentry15SentryTimestamp23free_property_list_bindEPvPK23GDExtensionPropertyInfoj, symObjAddr: 0x563C, symBinAddr: 0x963C, symSize: 0x58 }
  - { offset: 0x61404, size: 0x8, addend: 0x0, symName: __ZN6sentry15SentryTimestamp24property_can_revert_bindEPvPKv, symObjAddr: 0x5694, symBinAddr: 0x9694, symSize: 0x8 }
  - { offset: 0x61436, size: 0x8, addend: 0x0, symName: __ZN6sentry15SentryTimestamp24property_get_revert_bindEPvPKvS1_, symObjAddr: 0x569C, symBinAddr: 0x969C, symSize: 0x8 }
  - { offset: 0x61476, size: 0x8, addend: 0x0, symName: __ZN6sentry15SentryTimestamp22validate_property_bindEPvP23GDExtensionPropertyInfo, symObjAddr: 0x56A4, symBinAddr: 0x96A4, symSize: 0xB8 }
  - { offset: 0x61539, size: 0x8, addend: 0x0, symName: __ZN6sentry15SentryTimestamp17notification_bindEPvih, symObjAddr: 0x575C, symBinAddr: 0x975C, symSize: 0x4 }
  - { offset: 0x6158E, size: 0x8, addend: 0x0, symName: __ZN6sentry15SentryTimestamp14to_string_bindEPvPhS1_, symObjAddr: 0x5760, symBinAddr: 0x9760, symSize: 0x7C }
  - { offset: 0x61668, size: 0x8, addend: 0x0, symName: __ZN5godot7ClassDB21_create_instance_funcIN6sentry15SentryTimestampEEEPvS4_h, symObjAddr: 0x57DC, symBinAddr: 0x97DC, symSize: 0xE8 }
  - { offset: 0x61794, size: 0x8, addend: 0x0, symName: __ZN5godot7ClassDB21_create_instance_funcIN6sentry15SentryTimestampEEEPvS4_h.cold.1, symObjAddr: 0xB3BC, symBinAddr: 0xDCA78, symSize: 0x5C }
  - { offset: 0x617EC, size: 0x8, addend: 0x0, symName: __ZN6sentry15SentryTimestamp4freeEPvS1_, symObjAddr: 0x58C4, symBinAddr: 0x98C4, symSize: 0x3C }
  - { offset: 0x61847, size: 0x8, addend: 0x0, symName: __ZN5godot7ClassDB23_recreate_instance_funcIN6sentry15SentryTimestampEEEPvS4_S4_, symObjAddr: 0x5900, symBinAddr: 0x9900, symSize: 0x8 }
  - { offset: 0x61882, size: 0x8, addend: 0x0, symName: __ZN6sentry15SentryTimestamp28_gde_binding_create_callbackEPvS1_, symObjAddr: 0x5908, symBinAddr: 0x9908, symSize: 0x8 }
  - { offset: 0x618AD, size: 0x8, addend: 0x0, symName: __ZN6sentry15SentryTimestamp26_gde_binding_free_callbackEPvS1_S1_, symObjAddr: 0x5910, symBinAddr: 0x9910, symSize: 0x4 }
  - { offset: 0x618E0, size: 0x8, addend: 0x0, symName: __ZN6sentry15SentryTimestamp31_gde_binding_reference_callbackEPvS1_h, symObjAddr: 0x5914, symBinAddr: 0x9914, symSize: 0x8 }
  - { offset: 0x61915, size: 0x8, addend: 0x0, symName: __ZNK6sentry15SentryTimestamp19_is_extension_classEv, symObjAddr: 0x591C, symBinAddr: 0x991C, symSize: 0x8 }
  - { offset: 0x61958, size: 0x8, addend: 0x0, symName: __ZN6sentry15SentryTimestampD1Ev, symObjAddr: 0x5924, symBinAddr: 0x9924, symSize: 0x8C }
  - { offset: 0x61AF6, size: 0x8, addend: 0x0, symName: __ZN6sentry15SentryTimestampD1Ev.cold.1, symObjAddr: 0xB418, symBinAddr: 0xDCAD4, symSize: 0x1C }
  - { offset: 0x61B11, size: 0x8, addend: 0x0, symName: __ZN6sentry15SentryTimestampD1Ev.cold.1, symObjAddr: 0xB418, symBinAddr: 0xDCAD4, symSize: 0x1C }
  - { offset: 0x61B25, size: 0x8, addend: 0x0, symName: __ZN6sentry15SentryTimestampD1Ev.cold.1, symObjAddr: 0xB418, symBinAddr: 0xDCAD4, symSize: 0x1C }
  - { offset: 0x61B39, size: 0x8, addend: 0x0, symName: __ZN6sentry15SentryTimestampD1Ev.cold.1, symObjAddr: 0xB418, symBinAddr: 0xDCAD4, symSize: 0x1C }
  - { offset: 0x61B4D, size: 0x8, addend: 0x0, symName: __ZN6sentry15SentryTimestampD1Ev.cold.1, symObjAddr: 0xB418, symBinAddr: 0xDCAD4, symSize: 0x1C }
  - { offset: 0x61B61, size: 0x8, addend: 0x0, symName: __ZN6sentry15SentryTimestampD1Ev.cold.1, symObjAddr: 0xB418, symBinAddr: 0xDCAD4, symSize: 0x1C }
  - { offset: 0x61B76, size: 0x8, addend: 0x0, symName: __ZN6sentry15SentryTimestampD1Ev.cold.1, symObjAddr: 0xB418, symBinAddr: 0xDCAD4, symSize: 0x1C }
  - { offset: 0x61BAA, size: 0x8, addend: 0x0, symName: __ZN6sentry15SentryTimestampD0Ev, symObjAddr: 0x59B0, symBinAddr: 0x99B0, symSize: 0x74 }
  - { offset: 0x61CF5, size: 0x8, addend: 0x0, symName: __ZN6sentry15SentryTimestampD0Ev.cold.1, symObjAddr: 0xB434, symBinAddr: 0xDCAF0, symSize: 0x1C }
  - { offset: 0x61D10, size: 0x8, addend: 0x0, symName: __ZN6sentry15SentryTimestampD0Ev.cold.1, symObjAddr: 0xB434, symBinAddr: 0xDCAF0, symSize: 0x1C }
  - { offset: 0x61D24, size: 0x8, addend: 0x0, symName: __ZN6sentry15SentryTimestampD0Ev.cold.1, symObjAddr: 0xB434, symBinAddr: 0xDCAF0, symSize: 0x1C }
  - { offset: 0x61D38, size: 0x8, addend: 0x0, symName: __ZN6sentry15SentryTimestampD0Ev.cold.1, symObjAddr: 0xB434, symBinAddr: 0xDCAF0, symSize: 0x1C }
  - { offset: 0x61D4C, size: 0x8, addend: 0x0, symName: __ZN6sentry15SentryTimestampD0Ev.cold.1, symObjAddr: 0xB434, symBinAddr: 0xDCAF0, symSize: 0x1C }
  - { offset: 0x61D60, size: 0x8, addend: 0x0, symName: __ZN6sentry15SentryTimestampD0Ev.cold.1, symObjAddr: 0xB434, symBinAddr: 0xDCAF0, symSize: 0x1C }
  - { offset: 0x61D74, size: 0x8, addend: 0x0, symName: __ZN6sentry15SentryTimestampD0Ev.cold.1, symObjAddr: 0xB434, symBinAddr: 0xDCAF0, symSize: 0x1C }
  - { offset: 0x61D89, size: 0x8, addend: 0x0, symName: __ZN6sentry15SentryTimestampD0Ev.cold.1, symObjAddr: 0xB434, symBinAddr: 0xDCAF0, symSize: 0x1C }
  - { offset: 0x61DB7, size: 0x8, addend: 0x0, symName: __ZN5godot7ClassDB15_register_classIN6sentry9SentrySDKELb0EEEvbbb.cold.1, symObjAddr: 0xB450, symBinAddr: 0xDCB0C, symSize: 0x5C }
  - { offset: 0x61DE5, size: 0x8, addend: 0x0, symName: __ZN5godot7ClassDB15_register_classIN6sentry9SentrySDKELb0EEEvbbb.cold.2, symObjAddr: 0xB4AC, symBinAddr: 0xDCB68, symSize: 0x58 }
  - { offset: 0x61E13, size: 0x8, addend: 0x0, symName: __ZN5godot7ClassDB15_register_classIN6sentry9SentrySDKELb0EEEvbbb.cold.3, symObjAddr: 0xB504, symBinAddr: 0xDCBC0, symSize: 0x58 }
  - { offset: 0x61E56, size: 0x8, addend: 0x0, symName: __ZN5godot7ClassDB15_register_classIN6sentry9SentrySDKELb0EEEvbbb.cold.4, symObjAddr: 0xB55C, symBinAddr: 0xDCC18, symSize: 0x58 }
  - { offset: 0x61E85, size: 0x8, addend: 0x0, symName: __ZN6sentry9SentrySDK8set_bindEPvPKvS3_, symObjAddr: 0x5D50, symBinAddr: 0x9D50, symSize: 0x8 }
  - { offset: 0x61EC5, size: 0x8, addend: 0x0, symName: __ZN6sentry9SentrySDK8get_bindEPvPKvS1_, symObjAddr: 0x5D58, symBinAddr: 0x9D58, symSize: 0x8 }
  - { offset: 0x61F05, size: 0x8, addend: 0x0, symName: __ZN6sentry9SentrySDK22get_property_list_bindEPvPj, symObjAddr: 0x5D60, symBinAddr: 0x9D60, symSize: 0x40 }
  - { offset: 0x61F91, size: 0x8, addend: 0x0, symName: __ZN6sentry9SentrySDK22get_property_list_bindEPvPj.cold.1, symObjAddr: 0xB5B4, symBinAddr: 0xDCC70, symSize: 0x28 }
  - { offset: 0x61FA9, size: 0x8, addend: 0x0, symName: __ZN6sentry9SentrySDK23free_property_list_bindEPvPK23GDExtensionPropertyInfoj, symObjAddr: 0x5DA0, symBinAddr: 0x9DA0, symSize: 0x58 }
  - { offset: 0x620C3, size: 0x8, addend: 0x0, symName: __ZN6sentry9SentrySDK24property_can_revert_bindEPvPKv, symObjAddr: 0x5DF8, symBinAddr: 0x9DF8, symSize: 0x8 }
  - { offset: 0x620F5, size: 0x8, addend: 0x0, symName: __ZN6sentry9SentrySDK24property_get_revert_bindEPvPKvS1_, symObjAddr: 0x5E00, symBinAddr: 0x9E00, symSize: 0x8 }
  - { offset: 0x62135, size: 0x8, addend: 0x0, symName: __ZN6sentry9SentrySDK22validate_property_bindEPvP23GDExtensionPropertyInfo, symObjAddr: 0x5E08, symBinAddr: 0x9E08, symSize: 0xB8 }
  - { offset: 0x621F8, size: 0x8, addend: 0x0, symName: __ZN6sentry9SentrySDK17notification_bindEPvih, symObjAddr: 0x5EC0, symBinAddr: 0x9EC0, symSize: 0xC }
  - { offset: 0x62254, size: 0x8, addend: 0x0, symName: __ZN6sentry9SentrySDK14to_string_bindEPvPhS1_, symObjAddr: 0x5ECC, symBinAddr: 0x9ECC, symSize: 0x7C }
  - { offset: 0x622EF, size: 0x8, addend: 0x0, symName: __ZN5godot7ClassDB21_create_instance_funcIN6sentry9SentrySDKEEEPvS4_h, symObjAddr: 0x5F48, symBinAddr: 0x9F48, symSize: 0x80 }
  - { offset: 0x6237D, size: 0x8, addend: 0x0, symName: __ZN5godot7ClassDB21_create_instance_funcIN6sentry9SentrySDKEEEPvS4_h.cold.1, symObjAddr: 0xB5DC, symBinAddr: 0xDCC98, symSize: 0x5C }
  - { offset: 0x623D5, size: 0x8, addend: 0x0, symName: __ZN6sentry9SentrySDK4freeEPvS1_, symObjAddr: 0x5FC8, symBinAddr: 0x9FC8, symSize: 0x3C }
  - { offset: 0x62430, size: 0x8, addend: 0x0, symName: __ZN5godot7ClassDB23_recreate_instance_funcIN6sentry9SentrySDKEEEPvS4_S4_, symObjAddr: 0x6004, symBinAddr: 0xA004, symSize: 0x8 }
  - { offset: 0x6246B, size: 0x8, addend: 0x0, symName: __ZN6sentry9SentrySDK28_gde_binding_create_callbackEPvS1_, symObjAddr: 0x600C, symBinAddr: 0xA00C, symSize: 0x8 }
  - { offset: 0x62496, size: 0x8, addend: 0x0, symName: __ZN6sentry9SentrySDK26_gde_binding_free_callbackEPvS1_S1_, symObjAddr: 0x6014, symBinAddr: 0xA014, symSize: 0x4 }
  - { offset: 0x624C9, size: 0x8, addend: 0x0, symName: __ZN6sentry9SentrySDK31_gde_binding_reference_callbackEPvS1_h, symObjAddr: 0x6018, symBinAddr: 0xA018, symSize: 0x8 }
  - { offset: 0x62513, size: 0x8, addend: 0x0, symName: __ZN5godot7ClassDB15_register_classIN6sentry16SentryAttachmentELb1EEEvbbb.cold.1, symObjAddr: 0xB638, symBinAddr: 0xDCCF4, symSize: 0x5C }
  - { offset: 0x62541, size: 0x8, addend: 0x0, symName: __ZN5godot7ClassDB15_register_classIN6sentry16SentryAttachmentELb1EEEvbbb.cold.2, symObjAddr: 0xB694, symBinAddr: 0xDCD50, symSize: 0x58 }
  - { offset: 0x6256F, size: 0x8, addend: 0x0, symName: __ZN5godot7ClassDB15_register_classIN6sentry16SentryAttachmentELb1EEEvbbb.cold.3, symObjAddr: 0xB6EC, symBinAddr: 0xDCDA8, symSize: 0x58 }
  - { offset: 0x625B2, size: 0x8, addend: 0x0, symName: __ZN5godot7ClassDB15_register_classIN6sentry16SentryAttachmentELb1EEEvbbb.cold.4, symObjAddr: 0xB744, symBinAddr: 0xDCE00, symSize: 0x58 }
  - { offset: 0x625E1, size: 0x8, addend: 0x0, symName: __ZN6sentry16SentryAttachment8set_bindEPvPKvS3_, symObjAddr: 0x6350, symBinAddr: 0xA350, symSize: 0x8 }
  - { offset: 0x62621, size: 0x8, addend: 0x0, symName: __ZN6sentry16SentryAttachment8get_bindEPvPKvS1_, symObjAddr: 0x6358, symBinAddr: 0xA358, symSize: 0x8 }
  - { offset: 0x62661, size: 0x8, addend: 0x0, symName: __ZN6sentry16SentryAttachment22get_property_list_bindEPvPj, symObjAddr: 0x6360, symBinAddr: 0xA360, symSize: 0x40 }
  - { offset: 0x626ED, size: 0x8, addend: 0x0, symName: __ZN6sentry16SentryAttachment22get_property_list_bindEPvPj.cold.1, symObjAddr: 0xB79C, symBinAddr: 0xDCE58, symSize: 0x28 }
  - { offset: 0x62705, size: 0x8, addend: 0x0, symName: __ZN6sentry16SentryAttachment23free_property_list_bindEPvPK23GDExtensionPropertyInfoj, symObjAddr: 0x63A0, symBinAddr: 0xA3A0, symSize: 0x58 }
  - { offset: 0x6281F, size: 0x8, addend: 0x0, symName: __ZN6sentry16SentryAttachment24property_can_revert_bindEPvPKv, symObjAddr: 0x63F8, symBinAddr: 0xA3F8, symSize: 0x8 }
  - { offset: 0x62851, size: 0x8, addend: 0x0, symName: __ZN6sentry16SentryAttachment24property_get_revert_bindEPvPKvS1_, symObjAddr: 0x6400, symBinAddr: 0xA400, symSize: 0x8 }
  - { offset: 0x62891, size: 0x8, addend: 0x0, symName: __ZN6sentry16SentryAttachment22validate_property_bindEPvP23GDExtensionPropertyInfo, symObjAddr: 0x6408, symBinAddr: 0xA408, symSize: 0xB8 }
  - { offset: 0x62954, size: 0x8, addend: 0x0, symName: __ZN6sentry16SentryAttachment17notification_bindEPvih, symObjAddr: 0x64C0, symBinAddr: 0xA4C0, symSize: 0x4 }
  - { offset: 0x62993, size: 0x8, addend: 0x0, symName: __ZN6sentry16SentryAttachment14to_string_bindEPvPhS1_, symObjAddr: 0x64C4, symBinAddr: 0xA4C4, symSize: 0x7C }
  - { offset: 0x62A66, size: 0x8, addend: 0x0, symName: __ZN5godot7ClassDB21_create_instance_funcIN6sentry16SentryAttachmentEEEPvS4_h, symObjAddr: 0x6540, symBinAddr: 0xA540, symSize: 0x110 }
  - { offset: 0x62B92, size: 0x8, addend: 0x0, symName: __ZN5godot7ClassDB21_create_instance_funcIN6sentry16SentryAttachmentEEEPvS4_h.cold.1, symObjAddr: 0xB7C4, symBinAddr: 0xDCE80, symSize: 0x5C }
  - { offset: 0x62BEA, size: 0x8, addend: 0x0, symName: __ZN6sentry16SentryAttachment4freeEPvS1_, symObjAddr: 0x6650, symBinAddr: 0xA650, symSize: 0x3C }
  - { offset: 0x62C45, size: 0x8, addend: 0x0, symName: __ZN5godot7ClassDB23_recreate_instance_funcIN6sentry16SentryAttachmentEEEPvS4_S4_, symObjAddr: 0x668C, symBinAddr: 0xA68C, symSize: 0x8 }
  - { offset: 0x62C80, size: 0x8, addend: 0x0, symName: __ZN6sentry16SentryAttachment28_gde_binding_create_callbackEPvS1_, symObjAddr: 0x6694, symBinAddr: 0xA694, symSize: 0x8 }
  - { offset: 0x62CAB, size: 0x8, addend: 0x0, symName: __ZN6sentry16SentryAttachment26_gde_binding_free_callbackEPvS1_S1_, symObjAddr: 0x669C, symBinAddr: 0xA69C, symSize: 0x4 }
  - { offset: 0x62CDE, size: 0x8, addend: 0x0, symName: __ZN6sentry16SentryAttachment31_gde_binding_reference_callbackEPvS1_h, symObjAddr: 0x66A0, symBinAddr: 0xA6A0, symSize: 0x8 }
  - { offset: 0x62D13, size: 0x8, addend: 0x0, symName: __ZNK6sentry16SentryAttachment19_is_extension_classEv, symObjAddr: 0x66A8, symBinAddr: 0xA6A8, symSize: 0x8 }
  - { offset: 0x62D3A, size: 0x8, addend: 0x0, symName: __ZN6sentry16SentryAttachmentD1Ev, symObjAddr: 0x66B0, symBinAddr: 0xA6B0, symSize: 0x4 }
  - { offset: 0x62D5D, size: 0x8, addend: 0x0, symName: __ZN6sentry16SentryAttachmentD1Ev, symObjAddr: 0x66B0, symBinAddr: 0xA6B0, symSize: 0x4 }
  - { offset: 0x62D70, size: 0x8, addend: 0x0, symName: __ZN6sentry16SentryAttachmentD2Ev, symObjAddr: 0x66C8, symBinAddr: 0xA6C8, symSize: 0xB4 }
  - { offset: 0x62F1B, size: 0x8, addend: 0x0, symName: __ZN6sentry16SentryAttachmentD0Ev, symObjAddr: 0x66B4, symBinAddr: 0xA6B4, symSize: 0x14 }
  - { offset: 0x62F76, size: 0x8, addend: 0x0, symName: __ZN6sentry16SentryAttachmentD2Ev.cold.1, symObjAddr: 0xB820, symBinAddr: 0xDCEDC, symSize: 0x1C }
  - { offset: 0x62F91, size: 0x8, addend: 0x0, symName: __ZN6sentry16SentryAttachmentD2Ev.cold.1, symObjAddr: 0xB820, symBinAddr: 0xDCEDC, symSize: 0x1C }
  - { offset: 0x62FA5, size: 0x8, addend: 0x0, symName: __ZN6sentry16SentryAttachmentD2Ev.cold.1, symObjAddr: 0xB820, symBinAddr: 0xDCEDC, symSize: 0x1C }
  - { offset: 0x62FB9, size: 0x8, addend: 0x0, symName: __ZN6sentry16SentryAttachmentD2Ev.cold.1, symObjAddr: 0xB820, symBinAddr: 0xDCEDC, symSize: 0x1C }
  - { offset: 0x62FCD, size: 0x8, addend: 0x0, symName: __ZN6sentry16SentryAttachmentD2Ev.cold.1, symObjAddr: 0xB820, symBinAddr: 0xDCEDC, symSize: 0x1C }
  - { offset: 0x62FE2, size: 0x8, addend: 0x0, symName: __ZN6sentry16SentryAttachmentD2Ev.cold.1, symObjAddr: 0xB820, symBinAddr: 0xDCEDC, symSize: 0x1C }
  - { offset: 0x6300E, size: 0x8, addend: 0x0, symName: __ZN5godot7ClassDB15_register_classIN6sentry11SentryEventELb1EEEvbbb.cold.1, symObjAddr: 0xB83C, symBinAddr: 0xDCEF8, symSize: 0x5C }
  - { offset: 0x6303C, size: 0x8, addend: 0x0, symName: __ZN5godot7ClassDB15_register_classIN6sentry11SentryEventELb1EEEvbbb.cold.2, symObjAddr: 0xB898, symBinAddr: 0xDCF54, symSize: 0x58 }
  - { offset: 0x6306A, size: 0x8, addend: 0x0, symName: __ZN5godot7ClassDB15_register_classIN6sentry11SentryEventELb1EEEvbbb.cold.3, symObjAddr: 0xB8F0, symBinAddr: 0xDCFAC, symSize: 0x58 }
  - { offset: 0x630AD, size: 0x8, addend: 0x0, symName: __ZN5godot7ClassDB15_register_classIN6sentry11SentryEventELb1EEEvbbb.cold.4, symObjAddr: 0xB948, symBinAddr: 0xDD004, symSize: 0x58 }
  - { offset: 0x630DC, size: 0x8, addend: 0x0, symName: __ZN6sentry11SentryEvent8set_bindEPvPKvS3_, symObjAddr: 0x6AAC, symBinAddr: 0xAAAC, symSize: 0x8 }
  - { offset: 0x6311C, size: 0x8, addend: 0x0, symName: __ZN6sentry11SentryEvent8get_bindEPvPKvS1_, symObjAddr: 0x6AB4, symBinAddr: 0xAAB4, symSize: 0x8 }
  - { offset: 0x6315C, size: 0x8, addend: 0x0, symName: __ZN6sentry11SentryEvent22get_property_list_bindEPvPj, symObjAddr: 0x6ABC, symBinAddr: 0xAABC, symSize: 0x40 }
  - { offset: 0x631E8, size: 0x8, addend: 0x0, symName: __ZN6sentry11SentryEvent22get_property_list_bindEPvPj.cold.1, symObjAddr: 0xB9A0, symBinAddr: 0xDD05C, symSize: 0x28 }
  - { offset: 0x63200, size: 0x8, addend: 0x0, symName: __ZN6sentry11SentryEvent23free_property_list_bindEPvPK23GDExtensionPropertyInfoj, symObjAddr: 0x6AFC, symBinAddr: 0xAAFC, symSize: 0x58 }
  - { offset: 0x6331A, size: 0x8, addend: 0x0, symName: __ZN6sentry11SentryEvent24property_can_revert_bindEPvPKv, symObjAddr: 0x6B54, symBinAddr: 0xAB54, symSize: 0x8 }
  - { offset: 0x6334C, size: 0x8, addend: 0x0, symName: __ZN6sentry11SentryEvent24property_get_revert_bindEPvPKvS1_, symObjAddr: 0x6B5C, symBinAddr: 0xAB5C, symSize: 0x8 }
  - { offset: 0x6338C, size: 0x8, addend: 0x0, symName: __ZN6sentry11SentryEvent22validate_property_bindEPvP23GDExtensionPropertyInfo, symObjAddr: 0x6B64, symBinAddr: 0xAB64, symSize: 0xB8 }
  - { offset: 0x63431, size: 0x8, addend: 0x0, symName: __ZN6sentry11SentryEvent17notification_bindEPvih, symObjAddr: 0x6C1C, symBinAddr: 0xAC1C, symSize: 0x4 }
  - { offset: 0x63470, size: 0x8, addend: 0x0, symName: __ZN6sentry11SentryEvent14to_string_bindEPvPhS1_, symObjAddr: 0x6C20, symBinAddr: 0xAC20, symSize: 0x7C }
  - { offset: 0x634CE, size: 0x8, addend: 0x0, symName: __ZN5godot7ClassDB21_create_instance_funcIN6sentry11SentryEventEEEPvS4_h, symObjAddr: 0x6C9C, symBinAddr: 0xAC9C, symSize: 0x8 }
  - { offset: 0x63509, size: 0x8, addend: 0x0, symName: __ZN6sentry11SentryEvent4freeEPvS1_, symObjAddr: 0x6CA4, symBinAddr: 0xACA4, symSize: 0x3C }
  - { offset: 0x63564, size: 0x8, addend: 0x0, symName: __ZN5godot7ClassDB23_recreate_instance_funcIN6sentry11SentryEventEEEPvS4_S4_, symObjAddr: 0x6CE0, symBinAddr: 0xACE0, symSize: 0x8 }
  - { offset: 0x6359F, size: 0x8, addend: 0x0, symName: __ZN6sentry11SentryEvent28_gde_binding_create_callbackEPvS1_, symObjAddr: 0x6CE8, symBinAddr: 0xACE8, symSize: 0x8 }
  - { offset: 0x635CA, size: 0x8, addend: 0x0, symName: __ZN6sentry11SentryEvent26_gde_binding_free_callbackEPvS1_S1_, symObjAddr: 0x6CF0, symBinAddr: 0xACF0, symSize: 0x4 }
  - { offset: 0x635FD, size: 0x8, addend: 0x0, symName: __ZN6sentry11SentryEvent31_gde_binding_reference_callbackEPvS1_h, symObjAddr: 0x6CF4, symBinAddr: 0xACF4, symSize: 0x8 }
  - { offset: 0x63647, size: 0x8, addend: 0x0, symName: __ZN5godot7ClassDB15_register_classIN6sentry16SentryBreadcrumbELb1EEEvbbb.cold.1, symObjAddr: 0xB9C8, symBinAddr: 0xDD084, symSize: 0x5C }
  - { offset: 0x63675, size: 0x8, addend: 0x0, symName: __ZN5godot7ClassDB15_register_classIN6sentry16SentryBreadcrumbELb1EEEvbbb.cold.2, symObjAddr: 0xBA24, symBinAddr: 0xDD0E0, symSize: 0x58 }
  - { offset: 0x636A3, size: 0x8, addend: 0x0, symName: __ZN5godot7ClassDB15_register_classIN6sentry16SentryBreadcrumbELb1EEEvbbb.cold.3, symObjAddr: 0xBA7C, symBinAddr: 0xDD138, symSize: 0x58 }
  - { offset: 0x636E6, size: 0x8, addend: 0x0, symName: __ZN5godot7ClassDB15_register_classIN6sentry16SentryBreadcrumbELb1EEEvbbb.cold.4, symObjAddr: 0xBAD4, symBinAddr: 0xDD190, symSize: 0x58 }
  - { offset: 0x63715, size: 0x8, addend: 0x0, symName: __ZN6sentry16SentryBreadcrumb8set_bindEPvPKvS3_, symObjAddr: 0x702C, symBinAddr: 0xB02C, symSize: 0x8 }
  - { offset: 0x63755, size: 0x8, addend: 0x0, symName: __ZN6sentry16SentryBreadcrumb8get_bindEPvPKvS1_, symObjAddr: 0x7034, symBinAddr: 0xB034, symSize: 0x8 }
  - { offset: 0x63795, size: 0x8, addend: 0x0, symName: __ZN6sentry16SentryBreadcrumb22get_property_list_bindEPvPj, symObjAddr: 0x703C, symBinAddr: 0xB03C, symSize: 0x40 }
  - { offset: 0x63821, size: 0x8, addend: 0x0, symName: __ZN6sentry16SentryBreadcrumb22get_property_list_bindEPvPj.cold.1, symObjAddr: 0xBB2C, symBinAddr: 0xDD1E8, symSize: 0x28 }
  - { offset: 0x63839, size: 0x8, addend: 0x0, symName: __ZN6sentry16SentryBreadcrumb23free_property_list_bindEPvPK23GDExtensionPropertyInfoj, symObjAddr: 0x707C, symBinAddr: 0xB07C, symSize: 0x58 }
  - { offset: 0x63953, size: 0x8, addend: 0x0, symName: __ZN6sentry16SentryBreadcrumb24property_can_revert_bindEPvPKv, symObjAddr: 0x70D4, symBinAddr: 0xB0D4, symSize: 0x8 }
  - { offset: 0x63985, size: 0x8, addend: 0x0, symName: __ZN6sentry16SentryBreadcrumb24property_get_revert_bindEPvPKvS1_, symObjAddr: 0x70DC, symBinAddr: 0xB0DC, symSize: 0x8 }
  - { offset: 0x639C5, size: 0x8, addend: 0x0, symName: __ZN6sentry16SentryBreadcrumb22validate_property_bindEPvP23GDExtensionPropertyInfo, symObjAddr: 0x70E4, symBinAddr: 0xB0E4, symSize: 0xB8 }
  - { offset: 0x63A6A, size: 0x8, addend: 0x0, symName: __ZN6sentry16SentryBreadcrumb17notification_bindEPvih, symObjAddr: 0x719C, symBinAddr: 0xB19C, symSize: 0x4 }
  - { offset: 0x63AA9, size: 0x8, addend: 0x0, symName: __ZN6sentry16SentryBreadcrumb14to_string_bindEPvPhS1_, symObjAddr: 0x71A0, symBinAddr: 0xB1A0, symSize: 0x7C }
  - { offset: 0x63B07, size: 0x8, addend: 0x0, symName: __ZN5godot7ClassDB21_create_instance_funcIN6sentry16SentryBreadcrumbEEEPvS4_h, symObjAddr: 0x721C, symBinAddr: 0xB21C, symSize: 0x8 }
  - { offset: 0x63B42, size: 0x8, addend: 0x0, symName: __ZN6sentry16SentryBreadcrumb4freeEPvS1_, symObjAddr: 0x7224, symBinAddr: 0xB224, symSize: 0x3C }
  - { offset: 0x63B9D, size: 0x8, addend: 0x0, symName: __ZN5godot7ClassDB23_recreate_instance_funcIN6sentry16SentryBreadcrumbEEEPvS4_S4_, symObjAddr: 0x7260, symBinAddr: 0xB260, symSize: 0x8 }
  - { offset: 0x63BD8, size: 0x8, addend: 0x0, symName: __ZN6sentry16SentryBreadcrumb28_gde_binding_create_callbackEPvS1_, symObjAddr: 0x7268, symBinAddr: 0xB268, symSize: 0x8 }
  - { offset: 0x63C03, size: 0x8, addend: 0x0, symName: __ZN6sentry16SentryBreadcrumb26_gde_binding_free_callbackEPvS1_S1_, symObjAddr: 0x7270, symBinAddr: 0xB270, symSize: 0x4 }
  - { offset: 0x63C36, size: 0x8, addend: 0x0, symName: __ZN6sentry16SentryBreadcrumb31_gde_binding_reference_callbackEPvS1_h, symObjAddr: 0x7274, symBinAddr: 0xB274, symSize: 0x8 }
  - { offset: 0x63C80, size: 0x8, addend: 0x0, symName: __ZN5godot7ClassDB15_register_classIN6sentry13DisabledEventELb0EEEvbbb.cold.1, symObjAddr: 0xBB54, symBinAddr: 0xDD210, symSize: 0x5C }
  - { offset: 0x63CAE, size: 0x8, addend: 0x0, symName: __ZN5godot7ClassDB15_register_classIN6sentry13DisabledEventELb0EEEvbbb.cold.2, symObjAddr: 0xBBB0, symBinAddr: 0xDD26C, symSize: 0x58 }
  - { offset: 0x63CDC, size: 0x8, addend: 0x0, symName: __ZN5godot7ClassDB15_register_classIN6sentry13DisabledEventELb0EEEvbbb.cold.3, symObjAddr: 0xBC08, symBinAddr: 0xDD2C4, symSize: 0x58 }
  - { offset: 0x63D1F, size: 0x8, addend: 0x0, symName: __ZN5godot7ClassDB15_register_classIN6sentry13DisabledEventELb0EEEvbbb.cold.4, symObjAddr: 0xBC60, symBinAddr: 0xDD31C, symSize: 0x58 }
  - { offset: 0x63D4E, size: 0x8, addend: 0x0, symName: __ZN6sentry13DisabledEvent8set_bindEPvPKvS3_, symObjAddr: 0x75B4, symBinAddr: 0xB5B4, symSize: 0x8 }
  - { offset: 0x63D8E, size: 0x8, addend: 0x0, symName: __ZN6sentry13DisabledEvent8get_bindEPvPKvS1_, symObjAddr: 0x75BC, symBinAddr: 0xB5BC, symSize: 0x8 }
  - { offset: 0x63DCE, size: 0x8, addend: 0x0, symName: __ZN6sentry13DisabledEvent23free_property_list_bindEPvPK23GDExtensionPropertyInfoj, symObjAddr: 0x75C4, symBinAddr: 0xB5C4, symSize: 0x58 }
  - { offset: 0x63EE8, size: 0x8, addend: 0x0, symName: __ZN6sentry13DisabledEvent24property_can_revert_bindEPvPKv, symObjAddr: 0x761C, symBinAddr: 0xB61C, symSize: 0x8 }
  - { offset: 0x63F1A, size: 0x8, addend: 0x0, symName: __ZN6sentry13DisabledEvent24property_get_revert_bindEPvPKvS1_, symObjAddr: 0x7624, symBinAddr: 0xB624, symSize: 0x8 }
  - { offset: 0x63F9F, size: 0x8, addend: 0x0, symName: __ZN6sentry13DisabledEvent22validate_property_bindEPvP23GDExtensionPropertyInfo, symObjAddr: 0x762C, symBinAddr: 0xB62C, symSize: 0xC8 }
  - { offset: 0x64086, size: 0x8, addend: 0x0, symName: __ZN6sentry13DisabledEvent17notification_bindEPvih, symObjAddr: 0x76F4, symBinAddr: 0xB6F4, symSize: 0x4 }
  - { offset: 0x640FD, size: 0x8, addend: 0x0, symName: __ZN6sentry13DisabledEvent14to_string_bindEPvPhS1_, symObjAddr: 0x76F8, symBinAddr: 0xB6F8, symSize: 0x7C }
  - { offset: 0x6424B, size: 0x8, addend: 0x0, symName: __ZN5godot7ClassDB21_create_instance_funcIN6sentry13DisabledEventEEEPvS4_h, symObjAddr: 0x7774, symBinAddr: 0xB774, symSize: 0x118 }
  - { offset: 0x643CF, size: 0x8, addend: 0x0, symName: __ZN5godot7ClassDB21_create_instance_funcIN6sentry13DisabledEventEEEPvS4_h.cold.1, symObjAddr: 0xBCB8, symBinAddr: 0xDD374, symSize: 0x5C }
  - { offset: 0x64427, size: 0x8, addend: 0x0, symName: __ZN6sentry13DisabledEvent4freeEPvS1_, symObjAddr: 0x788C, symBinAddr: 0xB88C, symSize: 0x3C }
  - { offset: 0x64482, size: 0x8, addend: 0x0, symName: __ZN5godot7ClassDB23_recreate_instance_funcIN6sentry13DisabledEventEEEPvS4_S4_, symObjAddr: 0x78C8, symBinAddr: 0xB8C8, symSize: 0x8 }
  - { offset: 0x644BD, size: 0x8, addend: 0x0, symName: __ZN6sentry13DisabledEvent28_gde_binding_create_callbackEPvS1_, symObjAddr: 0x78D0, symBinAddr: 0xB8D0, symSize: 0x8 }
  - { offset: 0x644E8, size: 0x8, addend: 0x0, symName: __ZN6sentry13DisabledEvent26_gde_binding_free_callbackEPvS1_S1_, symObjAddr: 0x78D8, symBinAddr: 0xB8D8, symSize: 0x4 }
  - { offset: 0x6451B, size: 0x8, addend: 0x0, symName: __ZN6sentry13DisabledEvent31_gde_binding_reference_callbackEPvS1_h, symObjAddr: 0x78DC, symBinAddr: 0xB8DC, symSize: 0x8 }
  - { offset: 0x64550, size: 0x8, addend: 0x0, symName: __ZNK6sentry13DisabledEvent19_is_extension_classEv, symObjAddr: 0x78E4, symBinAddr: 0xB8E4, symSize: 0x8 }
  - { offset: 0x64577, size: 0x8, addend: 0x0, symName: __ZN6sentry13DisabledEventD1Ev, symObjAddr: 0x78EC, symBinAddr: 0xB8EC, symSize: 0x4 }
  - { offset: 0x6459A, size: 0x8, addend: 0x0, symName: __ZN6sentry13DisabledEventD1Ev, symObjAddr: 0x78EC, symBinAddr: 0xB8EC, symSize: 0x4 }
  - { offset: 0x645AD, size: 0x8, addend: 0x0, symName: __ZN6sentry13DisabledEventD2Ev, symObjAddr: 0x7A58, symBinAddr: 0xBA58, symSize: 0xE8 }
  - { offset: 0x647F4, size: 0x8, addend: 0x0, symName: __ZN6sentry13DisabledEventD0Ev, symObjAddr: 0x78F0, symBinAddr: 0xB8F0, symSize: 0x14 }
  - { offset: 0x64851, size: 0x8, addend: 0x0, symName: __ZNK6sentry13DisabledEvent6get_idEv, symObjAddr: 0x7904, symBinAddr: 0xB904, symSize: 0x10 }
  - { offset: 0x64878, size: 0x8, addend: 0x0, symName: __ZN6sentry13DisabledEvent11set_messageERKN5godot6StringE, symObjAddr: 0x7914, symBinAddr: 0xB914, symSize: 0x8 }
  - { offset: 0x648AD, size: 0x8, addend: 0x0, symName: __ZNK6sentry13DisabledEvent11get_messageEv, symObjAddr: 0x791C, symBinAddr: 0xB91C, symSize: 0xC }
  - { offset: 0x6492C, size: 0x8, addend: 0x0, symName: __ZN6sentry13DisabledEvent13set_timestampERKN5godot3RefINS_15SentryTimestampEEE, symObjAddr: 0x7928, symBinAddr: 0xB928, symSize: 0x70 }
  - { offset: 0x64A40, size: 0x8, addend: 0x0, symName: __ZNK6sentry13DisabledEvent13get_timestampEv, symObjAddr: 0x7998, symBinAddr: 0xB998, symSize: 0x18 }
  - { offset: 0x64A69, size: 0x8, addend: 0x0, symName: __ZNK6sentry13DisabledEvent13get_timestampEv, symObjAddr: 0x7998, symBinAddr: 0xB998, symSize: 0x18 }
  - { offset: 0x64A8D, size: 0x8, addend: 0x0, symName: __ZNK6sentry13DisabledEvent13get_timestampEv, symObjAddr: 0x7998, symBinAddr: 0xB998, symSize: 0x18 }
  - { offset: 0x64AD6, size: 0x8, addend: 0x0, symName: __ZNK6sentry13DisabledEvent12get_platformEv, symObjAddr: 0x79B0, symBinAddr: 0xB9B0, symSize: 0x10 }
  - { offset: 0x64AFD, size: 0x8, addend: 0x0, symName: __ZN6sentry13DisabledEvent9set_levelENS_5LevelE, symObjAddr: 0x79C0, symBinAddr: 0xB9C0, symSize: 0x8 }
  - { offset: 0x64B30, size: 0x8, addend: 0x0, symName: __ZNK6sentry13DisabledEvent9get_levelEv, symObjAddr: 0x79C8, symBinAddr: 0xB9C8, symSize: 0x8 }
  - { offset: 0x64B57, size: 0x8, addend: 0x0, symName: __ZN6sentry13DisabledEvent10set_loggerERKN5godot6StringE, symObjAddr: 0x79D0, symBinAddr: 0xB9D0, symSize: 0x8 }
  - { offset: 0x64B8C, size: 0x8, addend: 0x0, symName: __ZNK6sentry13DisabledEvent10get_loggerEv, symObjAddr: 0x79D8, symBinAddr: 0xB9D8, symSize: 0xC }
  - { offset: 0x64BB3, size: 0x8, addend: 0x0, symName: __ZN6sentry13DisabledEvent11set_releaseERKN5godot6StringE, symObjAddr: 0x79E4, symBinAddr: 0xB9E4, symSize: 0x8 }
  - { offset: 0x64BE8, size: 0x8, addend: 0x0, symName: __ZNK6sentry13DisabledEvent11get_releaseEv, symObjAddr: 0x79EC, symBinAddr: 0xB9EC, symSize: 0xC }
  - { offset: 0x64C0F, size: 0x8, addend: 0x0, symName: __ZN6sentry13DisabledEvent8set_distERKN5godot6StringE, symObjAddr: 0x79F8, symBinAddr: 0xB9F8, symSize: 0x8 }
  - { offset: 0x64C44, size: 0x8, addend: 0x0, symName: __ZNK6sentry13DisabledEvent8get_distEv, symObjAddr: 0x7A00, symBinAddr: 0xBA00, symSize: 0xC }
  - { offset: 0x64C6B, size: 0x8, addend: 0x0, symName: __ZN6sentry13DisabledEvent15set_environmentERKN5godot6StringE, symObjAddr: 0x7A0C, symBinAddr: 0xBA0C, symSize: 0x8 }
  - { offset: 0x64CA0, size: 0x8, addend: 0x0, symName: __ZNK6sentry13DisabledEvent15get_environmentEv, symObjAddr: 0x7A14, symBinAddr: 0xBA14, symSize: 0xC }
  - { offset: 0x64CC7, size: 0x8, addend: 0x0, symName: __ZN6sentry13DisabledEvent7set_tagERKN5godot6StringES4_, symObjAddr: 0x7A20, symBinAddr: 0xBA20, symSize: 0x4 }
  - { offset: 0x64D08, size: 0x8, addend: 0x0, symName: __ZN6sentry13DisabledEvent10remove_tagERKN5godot6StringE, symObjAddr: 0x7A24, symBinAddr: 0xBA24, symSize: 0x4 }
  - { offset: 0x64D3B, size: 0x8, addend: 0x0, symName: __ZN6sentry13DisabledEvent7get_tagERKN5godot6StringE, symObjAddr: 0x7A28, symBinAddr: 0xBA28, symSize: 0x10 }
  - { offset: 0x64D71, size: 0x8, addend: 0x0, symName: __ZN6sentry13DisabledEvent13merge_contextERKN5godot6StringERKNS1_10DictionaryE, symObjAddr: 0x7A38, symBinAddr: 0xBA38, symSize: 0x4 }
  - { offset: 0x64DB2, size: 0x8, addend: 0x0, symName: __ZN6sentry13DisabledEvent13add_exceptionERKNS_11SentryEvent9ExceptionE, symObjAddr: 0x7A3C, symBinAddr: 0xBA3C, symSize: 0x4 }
  - { offset: 0x64DE5, size: 0x8, addend: 0x0, symName: __ZNK6sentry13DisabledEvent8is_crashEv, symObjAddr: 0x7A40, symBinAddr: 0xBA40, symSize: 0x8 }
  - { offset: 0x64E0C, size: 0x8, addend: 0x0, symName: __ZNK6sentry13DisabledEvent7to_jsonEv, symObjAddr: 0x7A48, symBinAddr: 0xBA48, symSize: 0x10 }
  - { offset: 0x64E81, size: 0x8, addend: 0x0, symName: __ZN6sentry13DisabledEventD2Ev.cold.1, symObjAddr: 0xBD14, symBinAddr: 0xDD3D0, symSize: 0x1C }
  - { offset: 0x64E9C, size: 0x8, addend: 0x0, symName: __ZN6sentry13DisabledEventD2Ev.cold.1, symObjAddr: 0xBD14, symBinAddr: 0xDD3D0, symSize: 0x1C }
  - { offset: 0x64EB0, size: 0x8, addend: 0x0, symName: __ZN6sentry13DisabledEventD2Ev.cold.1, symObjAddr: 0xBD14, symBinAddr: 0xDD3D0, symSize: 0x1C }
  - { offset: 0x64EC4, size: 0x8, addend: 0x0, symName: __ZN6sentry13DisabledEventD2Ev.cold.1, symObjAddr: 0xBD14, symBinAddr: 0xDD3D0, symSize: 0x1C }
  - { offset: 0x64ED8, size: 0x8, addend: 0x0, symName: __ZN6sentry13DisabledEventD2Ev.cold.1, symObjAddr: 0xBD14, symBinAddr: 0xDD3D0, symSize: 0x1C }
  - { offset: 0x64EEC, size: 0x8, addend: 0x0, symName: __ZN6sentry13DisabledEventD2Ev.cold.1, symObjAddr: 0xBD14, symBinAddr: 0xDD3D0, symSize: 0x1C }
  - { offset: 0x64F01, size: 0x8, addend: 0x0, symName: __ZN6sentry13DisabledEventD2Ev.cold.1, symObjAddr: 0xBD14, symBinAddr: 0xDD3D0, symSize: 0x1C }
  - { offset: 0x64F2E, size: 0x8, addend: 0x0, symName: __ZN5godot7ClassDB15_register_classIN6sentry20SentryEventProcessorELb0EEEvbbb.cold.1, symObjAddr: 0xBD30, symBinAddr: 0xDD3EC, symSize: 0x5C }
  - { offset: 0x64F5C, size: 0x8, addend: 0x0, symName: __ZN5godot7ClassDB15_register_classIN6sentry20SentryEventProcessorELb0EEEvbbb.cold.2, symObjAddr: 0xBD8C, symBinAddr: 0xDD448, symSize: 0x58 }
  - { offset: 0x64F8A, size: 0x8, addend: 0x0, symName: __ZN5godot7ClassDB15_register_classIN6sentry20SentryEventProcessorELb0EEEvbbb.cold.3, symObjAddr: 0xBDE4, symBinAddr: 0xDD4A0, symSize: 0x58 }
  - { offset: 0x64FCD, size: 0x8, addend: 0x0, symName: __ZN5godot7ClassDB15_register_classIN6sentry20SentryEventProcessorELb0EEEvbbb.cold.4, symObjAddr: 0xBE3C, symBinAddr: 0xDD4F8, symSize: 0x58 }
  - { offset: 0x64FFC, size: 0x8, addend: 0x0, symName: __ZN6sentry20SentryEventProcessor8set_bindEPvPKvS3_, symObjAddr: 0x7E6C, symBinAddr: 0xBE6C, symSize: 0x8 }
  - { offset: 0x6503C, size: 0x8, addend: 0x0, symName: __ZN6sentry20SentryEventProcessor8get_bindEPvPKvS1_, symObjAddr: 0x7E74, symBinAddr: 0xBE74, symSize: 0x8 }
  - { offset: 0x6507C, size: 0x8, addend: 0x0, symName: __ZN6sentry20SentryEventProcessor22get_property_list_bindEPvPj, symObjAddr: 0x7E7C, symBinAddr: 0xBE7C, symSize: 0x40 }
  - { offset: 0x65108, size: 0x8, addend: 0x0, symName: __ZN6sentry20SentryEventProcessor22get_property_list_bindEPvPj.cold.1, symObjAddr: 0xBE94, symBinAddr: 0xDD550, symSize: 0x28 }
  - { offset: 0x65120, size: 0x8, addend: 0x0, symName: __ZN6sentry20SentryEventProcessor23free_property_list_bindEPvPK23GDExtensionPropertyInfoj, symObjAddr: 0x7EBC, symBinAddr: 0xBEBC, symSize: 0x58 }
  - { offset: 0x6523A, size: 0x8, addend: 0x0, symName: __ZN6sentry20SentryEventProcessor24property_can_revert_bindEPvPKv, symObjAddr: 0x7F14, symBinAddr: 0xBF14, symSize: 0x8 }
  - { offset: 0x6526C, size: 0x8, addend: 0x0, symName: __ZN6sentry20SentryEventProcessor24property_get_revert_bindEPvPKvS1_, symObjAddr: 0x7F1C, symBinAddr: 0xBF1C, symSize: 0x8 }
  - { offset: 0x652AC, size: 0x8, addend: 0x0, symName: __ZN6sentry20SentryEventProcessor22validate_property_bindEPvP23GDExtensionPropertyInfo, symObjAddr: 0x7F24, symBinAddr: 0xBF24, symSize: 0xB8 }
  - { offset: 0x65351, size: 0x8, addend: 0x0, symName: __ZN6sentry20SentryEventProcessor17notification_bindEPvih, symObjAddr: 0x7FDC, symBinAddr: 0xBFDC, symSize: 0x4 }
  - { offset: 0x65390, size: 0x8, addend: 0x0, symName: __ZN6sentry20SentryEventProcessor14to_string_bindEPvPhS1_, symObjAddr: 0x7FE0, symBinAddr: 0xBFE0, symSize: 0x7C }
  - { offset: 0x6544B, size: 0x8, addend: 0x0, symName: __ZN5godot7ClassDB21_create_instance_funcIN6sentry20SentryEventProcessorEEEPvS4_h, symObjAddr: 0x805C, symBinAddr: 0xC05C, symSize: 0xE4 }
  - { offset: 0x65577, size: 0x8, addend: 0x0, symName: __ZN5godot7ClassDB21_create_instance_funcIN6sentry20SentryEventProcessorEEEPvS4_h.cold.1, symObjAddr: 0xBEBC, symBinAddr: 0xDD578, symSize: 0x5C }
  - { offset: 0x655CF, size: 0x8, addend: 0x0, symName: __ZN6sentry20SentryEventProcessor4freeEPvS1_, symObjAddr: 0x8140, symBinAddr: 0xC140, symSize: 0x3C }
  - { offset: 0x6562A, size: 0x8, addend: 0x0, symName: __ZN5godot7ClassDB23_recreate_instance_funcIN6sentry20SentryEventProcessorEEEPvS4_S4_, symObjAddr: 0x817C, symBinAddr: 0xC17C, symSize: 0x8 }
  - { offset: 0x65665, size: 0x8, addend: 0x0, symName: __ZN6sentry20SentryEventProcessor28_gde_binding_create_callbackEPvS1_, symObjAddr: 0x8184, symBinAddr: 0xC184, symSize: 0x8 }
  - { offset: 0x65690, size: 0x8, addend: 0x0, symName: __ZN6sentry20SentryEventProcessor26_gde_binding_free_callbackEPvS1_S1_, symObjAddr: 0x818C, symBinAddr: 0xC18C, symSize: 0x4 }
  - { offset: 0x656C3, size: 0x8, addend: 0x0, symName: __ZN6sentry20SentryEventProcessor31_gde_binding_reference_callbackEPvS1_h, symObjAddr: 0x8190, symBinAddr: 0xC190, symSize: 0x8 }
  - { offset: 0x656F8, size: 0x8, addend: 0x0, symName: __ZNK6sentry20SentryEventProcessor19_is_extension_classEv, symObjAddr: 0x8198, symBinAddr: 0xC198, symSize: 0x8 }
  - { offset: 0x65739, size: 0x8, addend: 0x0, symName: __ZN6sentry20SentryEventProcessorD1Ev, symObjAddr: 0x81A0, symBinAddr: 0xC1A0, symSize: 0x8C }
  - { offset: 0x658D7, size: 0x8, addend: 0x0, symName: __ZN6sentry20SentryEventProcessorD1Ev.cold.1, symObjAddr: 0xBF18, symBinAddr: 0xDD5D4, symSize: 0x1C }
  - { offset: 0x658F2, size: 0x8, addend: 0x0, symName: __ZN6sentry20SentryEventProcessorD1Ev.cold.1, symObjAddr: 0xBF18, symBinAddr: 0xDD5D4, symSize: 0x1C }
  - { offset: 0x65906, size: 0x8, addend: 0x0, symName: __ZN6sentry20SentryEventProcessorD1Ev.cold.1, symObjAddr: 0xBF18, symBinAddr: 0xDD5D4, symSize: 0x1C }
  - { offset: 0x6591A, size: 0x8, addend: 0x0, symName: __ZN6sentry20SentryEventProcessorD1Ev.cold.1, symObjAddr: 0xBF18, symBinAddr: 0xDD5D4, symSize: 0x1C }
  - { offset: 0x6592E, size: 0x8, addend: 0x0, symName: __ZN6sentry20SentryEventProcessorD1Ev.cold.1, symObjAddr: 0xBF18, symBinAddr: 0xDD5D4, symSize: 0x1C }
  - { offset: 0x65942, size: 0x8, addend: 0x0, symName: __ZN6sentry20SentryEventProcessorD1Ev.cold.1, symObjAddr: 0xBF18, symBinAddr: 0xDD5D4, symSize: 0x1C }
  - { offset: 0x65957, size: 0x8, addend: 0x0, symName: __ZN6sentry20SentryEventProcessorD1Ev.cold.1, symObjAddr: 0xBF18, symBinAddr: 0xDD5D4, symSize: 0x1C }
  - { offset: 0x65989, size: 0x8, addend: 0x0, symName: __ZN6sentry20SentryEventProcessorD0Ev, symObjAddr: 0x822C, symBinAddr: 0xC22C, symSize: 0x74 }
  - { offset: 0x65AD2, size: 0x8, addend: 0x0, symName: __ZN6sentry20SentryEventProcessorD0Ev.cold.1, symObjAddr: 0xBF34, symBinAddr: 0xDD5F0, symSize: 0x1C }
  - { offset: 0x65AED, size: 0x8, addend: 0x0, symName: __ZN6sentry20SentryEventProcessorD0Ev.cold.1, symObjAddr: 0xBF34, symBinAddr: 0xDD5F0, symSize: 0x1C }
  - { offset: 0x65B01, size: 0x8, addend: 0x0, symName: __ZN6sentry20SentryEventProcessorD0Ev.cold.1, symObjAddr: 0xBF34, symBinAddr: 0xDD5F0, symSize: 0x1C }
  - { offset: 0x65B15, size: 0x8, addend: 0x0, symName: __ZN6sentry20SentryEventProcessorD0Ev.cold.1, symObjAddr: 0xBF34, symBinAddr: 0xDD5F0, symSize: 0x1C }
  - { offset: 0x65B29, size: 0x8, addend: 0x0, symName: __ZN6sentry20SentryEventProcessorD0Ev.cold.1, symObjAddr: 0xBF34, symBinAddr: 0xDD5F0, symSize: 0x1C }
  - { offset: 0x65B3D, size: 0x8, addend: 0x0, symName: __ZN6sentry20SentryEventProcessorD0Ev.cold.1, symObjAddr: 0xBF34, symBinAddr: 0xDD5F0, symSize: 0x1C }
  - { offset: 0x65B51, size: 0x8, addend: 0x0, symName: __ZN6sentry20SentryEventProcessorD0Ev.cold.1, symObjAddr: 0xBF34, symBinAddr: 0xDD5F0, symSize: 0x1C }
  - { offset: 0x65B66, size: 0x8, addend: 0x0, symName: __ZN6sentry20SentryEventProcessorD0Ev.cold.1, symObjAddr: 0xBF34, symBinAddr: 0xDD5F0, symSize: 0x1C }
  - { offset: 0x65BEF, size: 0x8, addend: 0x0, symName: __ZN6sentry20SentryEventProcessor13process_eventERKN5godot3RefINS_11SentryEventEEE, symObjAddr: 0x82A0, symBinAddr: 0xC2A0, symSize: 0x18 }
  - { offset: 0x65C26, size: 0x8, addend: 0x0, symName: __ZN6sentry20SentryEventProcessor13process_eventERKN5godot3RefINS_11SentryEventEEE, symObjAddr: 0x82A0, symBinAddr: 0xC2A0, symSize: 0x18 }
  - { offset: 0x65C48, size: 0x8, addend: 0x0, symName: __ZN6sentry20SentryEventProcessor13process_eventERKN5godot3RefINS_11SentryEventEEE, symObjAddr: 0x82A0, symBinAddr: 0xC2A0, symSize: 0x18 }
  - { offset: 0x65CA2, size: 0x8, addend: 0x0, symName: __ZN5godot7ClassDB15_register_classIN6sentry19ScreenshotProcessorELb0EEEvbbb.cold.1, symObjAddr: 0xBF50, symBinAddr: 0xDD60C, symSize: 0x5C }
  - { offset: 0x65CD0, size: 0x8, addend: 0x0, symName: __ZN5godot7ClassDB15_register_classIN6sentry19ScreenshotProcessorELb0EEEvbbb.cold.2, symObjAddr: 0xBFAC, symBinAddr: 0xDD668, symSize: 0x58 }
  - { offset: 0x65CFE, size: 0x8, addend: 0x0, symName: __ZN5godot7ClassDB15_register_classIN6sentry19ScreenshotProcessorELb0EEEvbbb.cold.3, symObjAddr: 0xC004, symBinAddr: 0xDD6C0, symSize: 0x58 }
  - { offset: 0x65D41, size: 0x8, addend: 0x0, symName: __ZN5godot7ClassDB15_register_classIN6sentry19ScreenshotProcessorELb0EEEvbbb.cold.4, symObjAddr: 0xC05C, symBinAddr: 0xDD718, symSize: 0x58 }
  - { offset: 0x65D70, size: 0x8, addend: 0x0, symName: __ZN6sentry19ScreenshotProcessor8set_bindEPvPKvS3_, symObjAddr: 0x85F0, symBinAddr: 0xC5F0, symSize: 0x8 }
  - { offset: 0x65DB0, size: 0x8, addend: 0x0, symName: __ZN6sentry19ScreenshotProcessor8get_bindEPvPKvS1_, symObjAddr: 0x85F8, symBinAddr: 0xC5F8, symSize: 0x8 }
  - { offset: 0x65DF0, size: 0x8, addend: 0x0, symName: __ZN6sentry19ScreenshotProcessor23free_property_list_bindEPvPK23GDExtensionPropertyInfoj, symObjAddr: 0x8600, symBinAddr: 0xC600, symSize: 0x58 }
  - { offset: 0x65F0A, size: 0x8, addend: 0x0, symName: __ZN6sentry19ScreenshotProcessor24property_can_revert_bindEPvPKv, symObjAddr: 0x8658, symBinAddr: 0xC658, symSize: 0x8 }
  - { offset: 0x65F3C, size: 0x8, addend: 0x0, symName: __ZN6sentry19ScreenshotProcessor24property_get_revert_bindEPvPKvS1_, symObjAddr: 0x8660, symBinAddr: 0xC660, symSize: 0x8 }
  - { offset: 0x65FC1, size: 0x8, addend: 0x0, symName: __ZN6sentry19ScreenshotProcessor22validate_property_bindEPvP23GDExtensionPropertyInfo, symObjAddr: 0x8668, symBinAddr: 0xC668, symSize: 0xC8 }
  - { offset: 0x660A8, size: 0x8, addend: 0x0, symName: __ZN6sentry19ScreenshotProcessor17notification_bindEPvih, symObjAddr: 0x8730, symBinAddr: 0xC730, symSize: 0x4 }
  - { offset: 0x6611F, size: 0x8, addend: 0x0, symName: __ZN6sentry19ScreenshotProcessor14to_string_bindEPvPhS1_, symObjAddr: 0x8734, symBinAddr: 0xC734, symSize: 0x7C }
  - { offset: 0x661E0, size: 0x8, addend: 0x0, symName: __ZN5godot7ClassDB21_create_instance_funcIN6sentry19ScreenshotProcessorEEEPvS4_h, symObjAddr: 0x87B0, symBinAddr: 0xC7B0, symSize: 0x80 }
  - { offset: 0x6626E, size: 0x8, addend: 0x0, symName: __ZN5godot7ClassDB21_create_instance_funcIN6sentry19ScreenshotProcessorEEEPvS4_h.cold.1, symObjAddr: 0xC0B4, symBinAddr: 0xDD770, symSize: 0x5C }
  - { offset: 0x662C6, size: 0x8, addend: 0x0, symName: __ZN6sentry19ScreenshotProcessor4freeEPvS1_, symObjAddr: 0x8830, symBinAddr: 0xC830, symSize: 0x3C }
  - { offset: 0x66321, size: 0x8, addend: 0x0, symName: __ZN5godot7ClassDB23_recreate_instance_funcIN6sentry19ScreenshotProcessorEEEPvS4_S4_, symObjAddr: 0x886C, symBinAddr: 0xC86C, symSize: 0x8 }
  - { offset: 0x6635C, size: 0x8, addend: 0x0, symName: __ZN6sentry19ScreenshotProcessor28_gde_binding_create_callbackEPvS1_, symObjAddr: 0x8874, symBinAddr: 0xC874, symSize: 0x8 }
  - { offset: 0x66387, size: 0x8, addend: 0x0, symName: __ZN6sentry19ScreenshotProcessor26_gde_binding_free_callbackEPvS1_S1_, symObjAddr: 0x887C, symBinAddr: 0xC87C, symSize: 0x4 }
  - { offset: 0x663BA, size: 0x8, addend: 0x0, symName: __ZN6sentry19ScreenshotProcessor31_gde_binding_reference_callbackEPvS1_h, symObjAddr: 0x8880, symBinAddr: 0xC880, symSize: 0x8 }
  - { offset: 0x66404, size: 0x8, addend: 0x0, symName: __ZN5godot7ClassDB15_register_classIN6sentry22ViewHierarchyProcessorELb0EEEvbbb.cold.1, symObjAddr: 0xC110, symBinAddr: 0xDD7CC, symSize: 0x5C }
  - { offset: 0x66432, size: 0x8, addend: 0x0, symName: __ZN5godot7ClassDB15_register_classIN6sentry22ViewHierarchyProcessorELb0EEEvbbb.cold.2, symObjAddr: 0xC16C, symBinAddr: 0xDD828, symSize: 0x58 }
  - { offset: 0x66460, size: 0x8, addend: 0x0, symName: __ZN5godot7ClassDB15_register_classIN6sentry22ViewHierarchyProcessorELb0EEEvbbb.cold.3, symObjAddr: 0xC1C4, symBinAddr: 0xDD880, symSize: 0x58 }
  - { offset: 0x664A3, size: 0x8, addend: 0x0, symName: __ZN5godot7ClassDB15_register_classIN6sentry22ViewHierarchyProcessorELb0EEEvbbb.cold.4, symObjAddr: 0xC21C, symBinAddr: 0xDD8D8, symSize: 0x58 }
  - { offset: 0x664D2, size: 0x8, addend: 0x0, symName: __ZN6sentry22ViewHierarchyProcessor8set_bindEPvPKvS3_, symObjAddr: 0x8BC0, symBinAddr: 0xCBC0, symSize: 0x8 }
  - { offset: 0x66512, size: 0x8, addend: 0x0, symName: __ZN6sentry22ViewHierarchyProcessor8get_bindEPvPKvS1_, symObjAddr: 0x8BC8, symBinAddr: 0xCBC8, symSize: 0x8 }
  - { offset: 0x66552, size: 0x8, addend: 0x0, symName: __ZN6sentry22ViewHierarchyProcessor23free_property_list_bindEPvPK23GDExtensionPropertyInfoj, symObjAddr: 0x8BD0, symBinAddr: 0xCBD0, symSize: 0x58 }
  - { offset: 0x6666C, size: 0x8, addend: 0x0, symName: __ZN6sentry22ViewHierarchyProcessor24property_can_revert_bindEPvPKv, symObjAddr: 0x8C28, symBinAddr: 0xCC28, symSize: 0x8 }
  - { offset: 0x6669E, size: 0x8, addend: 0x0, symName: __ZN6sentry22ViewHierarchyProcessor24property_get_revert_bindEPvPKvS1_, symObjAddr: 0x8C30, symBinAddr: 0xCC30, symSize: 0x8 }
  - { offset: 0x666DE, size: 0x8, addend: 0x0, symName: __ZN6sentry22ViewHierarchyProcessor22validate_property_bindEPvP23GDExtensionPropertyInfo, symObjAddr: 0x8C38, symBinAddr: 0xCC38, symSize: 0xC8 }
  - { offset: 0x667C5, size: 0x8, addend: 0x0, symName: __ZN6sentry22ViewHierarchyProcessor17notification_bindEPvih, symObjAddr: 0x8D00, symBinAddr: 0xCD00, symSize: 0x4 }
  - { offset: 0x66804, size: 0x8, addend: 0x0, symName: __ZN6sentry22ViewHierarchyProcessor14to_string_bindEPvPhS1_, symObjAddr: 0x8D04, symBinAddr: 0xCD04, symSize: 0x7C }
  - { offset: 0x668C5, size: 0x8, addend: 0x0, symName: __ZN5godot7ClassDB21_create_instance_funcIN6sentry22ViewHierarchyProcessorEEEPvS4_h, symObjAddr: 0x8D80, symBinAddr: 0xCD80, symSize: 0x80 }
  - { offset: 0x66953, size: 0x8, addend: 0x0, symName: __ZN5godot7ClassDB21_create_instance_funcIN6sentry22ViewHierarchyProcessorEEEPvS4_h.cold.1, symObjAddr: 0xC274, symBinAddr: 0xDD930, symSize: 0x5C }
  - { offset: 0x669AB, size: 0x8, addend: 0x0, symName: __ZN6sentry22ViewHierarchyProcessor4freeEPvS1_, symObjAddr: 0x8E00, symBinAddr: 0xCE00, symSize: 0x3C }
  - { offset: 0x66A06, size: 0x8, addend: 0x0, symName: __ZN5godot7ClassDB23_recreate_instance_funcIN6sentry22ViewHierarchyProcessorEEEPvS4_S4_, symObjAddr: 0x8E3C, symBinAddr: 0xCE3C, symSize: 0x8 }
  - { offset: 0x66A41, size: 0x8, addend: 0x0, symName: __ZN6sentry22ViewHierarchyProcessor28_gde_binding_create_callbackEPvS1_, symObjAddr: 0x8E44, symBinAddr: 0xCE44, symSize: 0x8 }
  - { offset: 0x66A6C, size: 0x8, addend: 0x0, symName: __ZN6sentry22ViewHierarchyProcessor26_gde_binding_free_callbackEPvS1_S1_, symObjAddr: 0x8E4C, symBinAddr: 0xCE4C, symSize: 0x4 }
  - { offset: 0x66A9F, size: 0x8, addend: 0x0, symName: __ZN6sentry22ViewHierarchyProcessor31_gde_binding_reference_callbackEPvS1_h, symObjAddr: 0x8E50, symBinAddr: 0xCE50, symSize: 0x8 }
  - { offset: 0x66AE9, size: 0x8, addend: 0x0, symName: __ZN5godot6Logger17register_virtualsIN6sentry12SentryLoggerES0_EEvv, symObjAddr: 0x9458, symBinAddr: 0xD458, symSize: 0xEC }
  - { offset: 0x66BDA, size: 0x8, addend: 0x0, symName: __ZN5godot7ClassDB15_register_classIN6sentry12SentryLoggerELb0EEEvbbb.cold.1, symObjAddr: 0xC2D0, symBinAddr: 0xDD98C, symSize: 0x5C }
  - { offset: 0x66C08, size: 0x8, addend: 0x0, symName: __ZN5godot7ClassDB15_register_classIN6sentry12SentryLoggerELb0EEEvbbb.cold.2, symObjAddr: 0xC32C, symBinAddr: 0xDD9E8, symSize: 0x58 }
  - { offset: 0x66C36, size: 0x8, addend: 0x0, symName: __ZN5godot7ClassDB15_register_classIN6sentry12SentryLoggerELb0EEEvbbb.cold.3, symObjAddr: 0xC384, symBinAddr: 0xDDA40, symSize: 0x58 }
  - { offset: 0x66C79, size: 0x8, addend: 0x0, symName: __ZN5godot7ClassDB15_register_classIN6sentry12SentryLoggerELb0EEEvbbb.cold.4, symObjAddr: 0xC3DC, symBinAddr: 0xDDA98, symSize: 0x58 }
  - { offset: 0x66CA8, size: 0x8, addend: 0x0, symName: __ZN6sentry12SentryLogger8set_bindEPvPKvS3_, symObjAddr: 0x9188, symBinAddr: 0xD188, symSize: 0x8 }
  - { offset: 0x66CE8, size: 0x8, addend: 0x0, symName: __ZN6sentry12SentryLogger8get_bindEPvPKvS1_, symObjAddr: 0x9190, symBinAddr: 0xD190, symSize: 0x8 }
  - { offset: 0x66D28, size: 0x8, addend: 0x0, symName: __ZN6sentry12SentryLogger22get_property_list_bindEPvPj, symObjAddr: 0x9198, symBinAddr: 0xD198, symSize: 0x40 }
  - { offset: 0x66DB4, size: 0x8, addend: 0x0, symName: __ZN6sentry12SentryLogger22get_property_list_bindEPvPj.cold.1, symObjAddr: 0xC434, symBinAddr: 0xDDAF0, symSize: 0x28 }
  - { offset: 0x66DCC, size: 0x8, addend: 0x0, symName: __ZN6sentry12SentryLogger23free_property_list_bindEPvPK23GDExtensionPropertyInfoj, symObjAddr: 0x91D8, symBinAddr: 0xD1D8, symSize: 0x58 }
  - { offset: 0x66EE6, size: 0x8, addend: 0x0, symName: __ZN6sentry12SentryLogger24property_can_revert_bindEPvPKv, symObjAddr: 0x9230, symBinAddr: 0xD230, symSize: 0x8 }
  - { offset: 0x66F18, size: 0x8, addend: 0x0, symName: __ZN6sentry12SentryLogger24property_get_revert_bindEPvPKvS1_, symObjAddr: 0x9238, symBinAddr: 0xD238, symSize: 0x8 }
  - { offset: 0x66F58, size: 0x8, addend: 0x0, symName: __ZN6sentry12SentryLogger22validate_property_bindEPvP23GDExtensionPropertyInfo, symObjAddr: 0x9240, symBinAddr: 0xD240, symSize: 0xB8 }
  - { offset: 0x6701B, size: 0x8, addend: 0x0, symName: __ZN6sentry12SentryLogger17notification_bindEPvih, symObjAddr: 0x92F8, symBinAddr: 0xD2F8, symSize: 0xC }
  - { offset: 0x67077, size: 0x8, addend: 0x0, symName: __ZN6sentry12SentryLogger14to_string_bindEPvPhS1_, symObjAddr: 0x9304, symBinAddr: 0xD304, symSize: 0x7C }
  - { offset: 0x67112, size: 0x8, addend: 0x0, symName: __ZN5godot7ClassDB21_create_instance_funcIN6sentry12SentryLoggerEEEPvS4_h, symObjAddr: 0x9380, symBinAddr: 0xD380, symSize: 0x80 }
  - { offset: 0x671A0, size: 0x8, addend: 0x0, symName: __ZN5godot7ClassDB21_create_instance_funcIN6sentry12SentryLoggerEEEPvS4_h.cold.1, symObjAddr: 0xC45C, symBinAddr: 0xDDB18, symSize: 0x5C }
  - { offset: 0x671F8, size: 0x8, addend: 0x0, symName: __ZN6sentry12SentryLogger4freeEPvS1_, symObjAddr: 0x9400, symBinAddr: 0xD400, symSize: 0x3C }
  - { offset: 0x67253, size: 0x8, addend: 0x0, symName: __ZN5godot7ClassDB23_recreate_instance_funcIN6sentry12SentryLoggerEEEPvS4_S4_, symObjAddr: 0x943C, symBinAddr: 0xD43C, symSize: 0x8 }
  - { offset: 0x6728E, size: 0x8, addend: 0x0, symName: __ZN6sentry12SentryLogger28_gde_binding_create_callbackEPvS1_, symObjAddr: 0x9444, symBinAddr: 0xD444, symSize: 0x8 }
  - { offset: 0x672B9, size: 0x8, addend: 0x0, symName: __ZN6sentry12SentryLogger26_gde_binding_free_callbackEPvS1_S1_, symObjAddr: 0x944C, symBinAddr: 0xD44C, symSize: 0x4 }
  - { offset: 0x672EC, size: 0x8, addend: 0x0, symName: __ZN6sentry12SentryLogger31_gde_binding_reference_callbackEPvS1_h, symObjAddr: 0x9450, symBinAddr: 0xD450, symSize: 0x8 }
  - { offset: 0x67321, size: 0x8, addend: 0x0, symName: __ZN5godot6Logger17register_virtualsIN6sentry12SentryLoggerES0_EEvv.cold.1, symObjAddr: 0xC4B8, symBinAddr: 0xDDB74, symSize: 0x5C }
  - { offset: 0x6734F, size: 0x8, addend: 0x0, symName: __ZN5godot6Logger17register_virtualsIN6sentry12SentryLoggerES0_EEvv.cold.2, symObjAddr: 0xC514, symBinAddr: 0xDDBD0, symSize: 0x58 }
  - { offset: 0x67400, size: 0x8, addend: 0x0, symName: __ZZN5godot6Logger17register_virtualsIN6sentry12SentryLoggerES0_EEvvENUlPvPKPKvS4_E_8__invokeES4_S8_S4_, symObjAddr: 0x9544, symBinAddr: 0xD544, symSize: 0x10 }
  - { offset: 0x6759E, size: 0x8, addend: 0x0, symName: __ZN5godot25call_with_ptr_args_helperIN6sentry12SentryLoggerEJRKNS_6StringES5_iS5_S5_biRKNS_10TypedArrayINS_3RefINS_15ScriptBacktraceEEEEEEJLm0ELm1ELm2ELm3ELm4ELm5ELm6ELm7EEEEvPT_MSD_FvDpT0_EPKPKvNS_13IndexSequenceIJXspT1_EEEE.cold.1, symObjAddr: 0xC56C, symBinAddr: 0xDDC28, symSize: 0x58 }
  - { offset: 0x67687, size: 0x8, addend: 0x0, symName: __ZZN5godot6Logger17register_virtualsIN6sentry12SentryLoggerES0_EEvvENUlPvPKPKvS4_E0_8__invokeES4_S8_S4_, symObjAddr: 0x9700, symBinAddr: 0xD700, symSize: 0x94 }
  - { offset: 0x677A5, size: 0x8, addend: 0x0, symName: __ZN5godot7ClassDB15_register_classIN6sentry5cocoa10CocoaEventELb0EEEvbbb.cold.1, symObjAddr: 0xC5C4, symBinAddr: 0xDDC80, symSize: 0x5C }
  - { offset: 0x677D3, size: 0x8, addend: 0x0, symName: __ZN5godot7ClassDB15_register_classIN6sentry5cocoa10CocoaEventELb0EEEvbbb.cold.2, symObjAddr: 0xC620, symBinAddr: 0xDDCDC, symSize: 0x58 }
  - { offset: 0x67801, size: 0x8, addend: 0x0, symName: __ZN5godot7ClassDB15_register_classIN6sentry5cocoa10CocoaEventELb0EEEvbbb.cold.3, symObjAddr: 0xC678, symBinAddr: 0xDDD34, symSize: 0x58 }
  - { offset: 0x67844, size: 0x8, addend: 0x0, symName: __ZN5godot7ClassDB15_register_classIN6sentry5cocoa10CocoaEventELb0EEEvbbb.cold.4, symObjAddr: 0xC6D0, symBinAddr: 0xDDD8C, symSize: 0x58 }
  - { offset: 0x67873, size: 0x8, addend: 0x0, symName: __ZN6sentry5cocoa10CocoaEvent8set_bindEPvPKvS4_, symObjAddr: 0x9ACC, symBinAddr: 0xDACC, symSize: 0x8 }
  - { offset: 0x678B3, size: 0x8, addend: 0x0, symName: __ZN6sentry5cocoa10CocoaEvent8get_bindEPvPKvS2_, symObjAddr: 0x9AD4, symBinAddr: 0xDAD4, symSize: 0x8 }
  - { offset: 0x678F3, size: 0x8, addend: 0x0, symName: __ZN6sentry5cocoa10CocoaEvent23free_property_list_bindEPvPK23GDExtensionPropertyInfoj, symObjAddr: 0x9ADC, symBinAddr: 0xDADC, symSize: 0x58 }
  - { offset: 0x67A0D, size: 0x8, addend: 0x0, symName: __ZN6sentry5cocoa10CocoaEvent24property_can_revert_bindEPvPKv, symObjAddr: 0x9B34, symBinAddr: 0xDB34, symSize: 0x8 }
  - { offset: 0x67A3F, size: 0x8, addend: 0x0, symName: __ZN6sentry5cocoa10CocoaEvent24property_get_revert_bindEPvPKvS2_, symObjAddr: 0x9B3C, symBinAddr: 0xDB3C, symSize: 0x8 }
  - { offset: 0x67A7F, size: 0x8, addend: 0x0, symName: __ZN6sentry5cocoa10CocoaEvent22validate_property_bindEPvP23GDExtensionPropertyInfo, symObjAddr: 0x9B44, symBinAddr: 0xDB44, symSize: 0xC8 }
  - { offset: 0x67B66, size: 0x8, addend: 0x0, symName: __ZN6sentry5cocoa10CocoaEvent17notification_bindEPvih, symObjAddr: 0x9C0C, symBinAddr: 0xDC0C, symSize: 0x4 }
  - { offset: 0x67BA5, size: 0x8, addend: 0x0, symName: __ZN6sentry5cocoa10CocoaEvent14to_string_bindEPvPhS2_, symObjAddr: 0x9C10, symBinAddr: 0xDC10, symSize: 0x7C }
  - { offset: 0x67C66, size: 0x8, addend: 0x0, symName: __ZN5godot7ClassDB21_create_instance_funcIN6sentry5cocoa10CocoaEventEEEPvS5_h, symObjAddr: 0x9C8C, symBinAddr: 0xDC8C, symSize: 0x80 }
  - { offset: 0x67CF4, size: 0x8, addend: 0x0, symName: __ZN5godot7ClassDB21_create_instance_funcIN6sentry5cocoa10CocoaEventEEEPvS5_h.cold.1, symObjAddr: 0xC728, symBinAddr: 0xDDDE4, symSize: 0x5C }
  - { offset: 0x67D4C, size: 0x8, addend: 0x0, symName: __ZN6sentry5cocoa10CocoaEvent4freeEPvS2_, symObjAddr: 0x9D0C, symBinAddr: 0xDD0C, symSize: 0x3C }
  - { offset: 0x67DA7, size: 0x8, addend: 0x0, symName: __ZN5godot7ClassDB23_recreate_instance_funcIN6sentry5cocoa10CocoaEventEEEPvS5_S5_, symObjAddr: 0x9D48, symBinAddr: 0xDD48, symSize: 0x8 }
  - { offset: 0x67DE2, size: 0x8, addend: 0x0, symName: __ZN6sentry5cocoa10CocoaEvent28_gde_binding_create_callbackEPvS2_, symObjAddr: 0x9D50, symBinAddr: 0xDD50, symSize: 0x8 }
  - { offset: 0x67E0D, size: 0x8, addend: 0x0, symName: __ZN6sentry5cocoa10CocoaEvent26_gde_binding_free_callbackEPvS2_S2_, symObjAddr: 0x9D58, symBinAddr: 0xDD58, symSize: 0x4 }
  - { offset: 0x67E40, size: 0x8, addend: 0x0, symName: __ZN6sentry5cocoa10CocoaEvent31_gde_binding_reference_callbackEPvS2_h, symObjAddr: 0x9D5C, symBinAddr: 0xDD5C, symSize: 0x8 }
  - { offset: 0x67E8A, size: 0x8, addend: 0x0, symName: __ZN5godot7ClassDB15_register_classIN6sentry5cocoa15CocoaBreadcrumbELb0EEEvbbb.cold.1, symObjAddr: 0xC784, symBinAddr: 0xDDE40, symSize: 0x5C }
  - { offset: 0x67EB8, size: 0x8, addend: 0x0, symName: __ZN5godot7ClassDB15_register_classIN6sentry5cocoa15CocoaBreadcrumbELb0EEEvbbb.cold.2, symObjAddr: 0xC7E0, symBinAddr: 0xDDE9C, symSize: 0x58 }
  - { offset: 0x67EE6, size: 0x8, addend: 0x0, symName: __ZN5godot7ClassDB15_register_classIN6sentry5cocoa15CocoaBreadcrumbELb0EEEvbbb.cold.3, symObjAddr: 0xC838, symBinAddr: 0xDDEF4, symSize: 0x58 }
  - { offset: 0x67F29, size: 0x8, addend: 0x0, symName: __ZN5godot7ClassDB15_register_classIN6sentry5cocoa15CocoaBreadcrumbELb0EEEvbbb.cold.4, symObjAddr: 0xC890, symBinAddr: 0xDDF4C, symSize: 0x58 }
  - { offset: 0x67F58, size: 0x8, addend: 0x0, symName: __ZN6sentry5cocoa15CocoaBreadcrumb8set_bindEPvPKvS4_, symObjAddr: 0xA09C, symBinAddr: 0xE09C, symSize: 0x8 }
  - { offset: 0x67F98, size: 0x8, addend: 0x0, symName: __ZN6sentry5cocoa15CocoaBreadcrumb8get_bindEPvPKvS2_, symObjAddr: 0xA0A4, symBinAddr: 0xE0A4, symSize: 0x8 }
  - { offset: 0x67FD8, size: 0x8, addend: 0x0, symName: __ZN6sentry5cocoa15CocoaBreadcrumb23free_property_list_bindEPvPK23GDExtensionPropertyInfoj, symObjAddr: 0xA0AC, symBinAddr: 0xE0AC, symSize: 0x58 }
  - { offset: 0x680F2, size: 0x8, addend: 0x0, symName: __ZN6sentry5cocoa15CocoaBreadcrumb24property_can_revert_bindEPvPKv, symObjAddr: 0xA104, symBinAddr: 0xE104, symSize: 0x8 }
  - { offset: 0x68124, size: 0x8, addend: 0x0, symName: __ZN6sentry5cocoa15CocoaBreadcrumb24property_get_revert_bindEPvPKvS2_, symObjAddr: 0xA10C, symBinAddr: 0xE10C, symSize: 0x8 }
  - { offset: 0x681A9, size: 0x8, addend: 0x0, symName: __ZN6sentry5cocoa15CocoaBreadcrumb22validate_property_bindEPvP23GDExtensionPropertyInfo, symObjAddr: 0xA114, symBinAddr: 0xE114, symSize: 0xC8 }
  - { offset: 0x68290, size: 0x8, addend: 0x0, symName: __ZN6sentry5cocoa15CocoaBreadcrumb17notification_bindEPvih, symObjAddr: 0xA1DC, symBinAddr: 0xE1DC, symSize: 0x4 }
  - { offset: 0x68307, size: 0x8, addend: 0x0, symName: __ZN6sentry5cocoa15CocoaBreadcrumb14to_string_bindEPvPhS2_, symObjAddr: 0xA1E0, symBinAddr: 0xE1E0, symSize: 0x7C }
  - { offset: 0x683C8, size: 0x8, addend: 0x0, symName: __ZN5godot7ClassDB21_create_instance_funcIN6sentry5cocoa15CocoaBreadcrumbEEEPvS5_h, symObjAddr: 0xA25C, symBinAddr: 0xE25C, symSize: 0x80 }
  - { offset: 0x68456, size: 0x8, addend: 0x0, symName: __ZN5godot7ClassDB21_create_instance_funcIN6sentry5cocoa15CocoaBreadcrumbEEEPvS5_h.cold.1, symObjAddr: 0xC8E8, symBinAddr: 0xDDFA4, symSize: 0x5C }
  - { offset: 0x684AE, size: 0x8, addend: 0x0, symName: __ZN6sentry5cocoa15CocoaBreadcrumb4freeEPvS2_, symObjAddr: 0xA2DC, symBinAddr: 0xE2DC, symSize: 0x3C }
  - { offset: 0x68509, size: 0x8, addend: 0x0, symName: __ZN5godot7ClassDB23_recreate_instance_funcIN6sentry5cocoa15CocoaBreadcrumbEEEPvS5_S5_, symObjAddr: 0xA318, symBinAddr: 0xE318, symSize: 0x8 }
  - { offset: 0x68544, size: 0x8, addend: 0x0, symName: __ZN6sentry5cocoa15CocoaBreadcrumb28_gde_binding_create_callbackEPvS2_, symObjAddr: 0xA320, symBinAddr: 0xE320, symSize: 0x8 }
  - { offset: 0x6856F, size: 0x8, addend: 0x0, symName: __ZN6sentry5cocoa15CocoaBreadcrumb26_gde_binding_free_callbackEPvS2_S2_, symObjAddr: 0xA328, symBinAddr: 0xE328, symSize: 0x4 }
  - { offset: 0x685A2, size: 0x8, addend: 0x0, symName: __ZN6sentry5cocoa15CocoaBreadcrumb31_gde_binding_reference_callbackEPvS2_h, symObjAddr: 0xA32C, symBinAddr: 0xE32C, symSize: 0x8 }
  - { offset: 0x685D7, size: 0x8, addend: 0x0, symName: _OUTLINED_FUNCTION_0, symObjAddr: 0xC944, symBinAddr: 0xE334, symSize: 0x10 }
  - { offset: 0x685EF, size: 0x8, addend: 0x0, symName: _OUTLINED_FUNCTION_1, symObjAddr: 0xC954, symBinAddr: 0xE344, symSize: 0xC }
  - { offset: 0x68607, size: 0x8, addend: 0x0, symName: _OUTLINED_FUNCTION_2, symObjAddr: 0xC960, symBinAddr: 0xE350, symSize: 0xC }
  - { offset: 0x6861F, size: 0x8, addend: 0x0, symName: _OUTLINED_FUNCTION_3, symObjAddr: 0xC96C, symBinAddr: 0xE35C, symSize: 0xC }
  - { offset: 0x68637, size: 0x8, addend: 0x0, symName: _OUTLINED_FUNCTION_4, symObjAddr: 0xC978, symBinAddr: 0xE368, symSize: 0x8 }
  - { offset: 0x6864F, size: 0x8, addend: 0x0, symName: _OUTLINED_FUNCTION_5, symObjAddr: 0xC980, symBinAddr: 0xE370, symSize: 0x8 }
  - { offset: 0x68667, size: 0x8, addend: 0x0, symName: _OUTLINED_FUNCTION_6, symObjAddr: 0xC988, symBinAddr: 0xE378, symSize: 0x8 }
  - { offset: 0x6867F, size: 0x8, addend: 0x0, symName: _OUTLINED_FUNCTION_7, symObjAddr: 0xC990, symBinAddr: 0xE380, symSize: 0x8 }
  - { offset: 0x76AF4, size: 0x8, addend: 0x0, symName: __ZN5godot22hash_table_size_primesE, symObjAddr: 0x5E54, symBinAddr: 0x140784, symSize: 0x0 }
  - { offset: 0x76B0F, size: 0x8, addend: 0x0, symName: __ZN5godot26hash_table_size_primes_invE, symObjAddr: 0x5EC8, symBinAddr: 0x1407F8, symSize: 0x0 }
  - { offset: 0x7945C, size: 0x8, addend: 0x0, symName: __ZN5godot9DirAccess22_gde_binding_callbacksE, symObjAddr: 0x5B00, symBinAddr: 0x15D5D0, symSize: 0x0 }
  - { offset: 0x79470, size: 0x8, addend: 0x0, symName: __ZN5godot2OS22_gde_binding_callbacksE, symObjAddr: 0x5B88, symBinAddr: 0x15D628, symSize: 0x0 }
  - { offset: 0x79484, size: 0x8, addend: 0x0, symName: __ZN5godot11Performance22_gde_binding_callbacksE, symObjAddr: 0x5BA0, symBinAddr: 0x15D640, symSize: 0x0 }
  - { offset: 0x79498, size: 0x8, addend: 0x0, symName: __ZN5godot15ProjectSettings22_gde_binding_callbacksE, symObjAddr: 0x5BB8, symBinAddr: 0x15D658, symSize: 0x0 }
  - { offset: 0x794AC, size: 0x8, addend: 0x0, symName: __ZN5godot8Resource22_gde_binding_callbacksE, symObjAddr: 0x5BD0, symBinAddr: 0x15D670, symSize: 0x0 }
  - { offset: 0x794C0, size: 0x8, addend: 0x0, symName: __ZN5godot5Image22_gde_binding_callbacksE, symObjAddr: 0x5BE8, symBinAddr: 0x15D688, symSize: 0x0 }
  - { offset: 0x794D4, size: 0x8, addend: 0x0, symName: __ZN5godot32RDPipelineSpecializationConstant22_gde_binding_callbacksE, symObjAddr: 0x5C60, symBinAddr: 0x15D700, symSize: 0x0 }
  - { offset: 0x794E8, size: 0x8, addend: 0x0, symName: __ZN5godot15RenderingDevice22_gde_binding_callbacksE, symObjAddr: 0x5CB8, symBinAddr: 0x15D758, symSize: 0x0 }
  - { offset: 0x794FC, size: 0x8, addend: 0x0, symName: __ZN5godot15RenderingServer22_gde_binding_callbacksE, symObjAddr: 0x5D10, symBinAddr: 0x15D7B0, symSize: 0x0 }
  - { offset: 0x79510, size: 0x8, addend: 0x0, symName: __ZN5godot4Time22_gde_binding_callbacksE, symObjAddr: 0x5D28, symBinAddr: 0x15D7C8, symSize: 0x0 }
  - { offset: 0x79EA7, size: 0x8, addend: 0x0, symName: __ZN6sentry8contexts19make_device_contextERKN5godot3RefINS_13RuntimeConfigEEE, symObjAddr: 0x0, symBinAddr: 0xE7B0, symSize: 0x62C }
  - { offset: 0x7A3C4, size: 0x8, addend: 0x0, symName: __ZN6sentry8contexts26make_device_context_updateEv, symObjAddr: 0x6AC, symBinAddr: 0xEE5C, symSize: 0x194 }
  - { offset: 0x7A52F, size: 0x8, addend: 0x0, symName: __ZN6sentry8contexts16make_app_contextEv, symObjAddr: 0x840, symBinAddr: 0xEFF0, symSize: 0x338 }
  - { offset: 0x7A6AC, size: 0x8, addend: 0x0, symName: __ZN6sentry8contexts16make_gpu_contextEv, symObjAddr: 0xB78, symBinAddr: 0xF328, symSize: 0x380 }
  - { offset: 0x7A845, size: 0x8, addend: 0x0, symName: __ZN6sentry8contexts20make_culture_contextEv, symObjAddr: 0xEF8, symBinAddr: 0xF6A8, symSize: 0x248 }
  - { offset: 0x7A987, size: 0x8, addend: 0x0, symName: __ZN6sentry8contexts20make_display_contextEv, symObjAddr: 0x1140, symBinAddr: 0xF8F0, symSize: 0x570 }
  - { offset: 0x7ACC4, size: 0x8, addend: 0x0, symName: __ZN6sentry8contexts25make_godot_engine_contextEv, symObjAddr: 0x16B0, symBinAddr: 0xFE60, symSize: 0x400 }
  - { offset: 0x7AEF5, size: 0x8, addend: 0x0, symName: __ZN6sentry8contexts24make_environment_contextEv, symObjAddr: 0x1AB0, symBinAddr: 0x10260, symSize: 0x19C }
  - { offset: 0x7AFAE, size: 0x8, addend: 0x0, symName: __ZN6sentry8contexts24make_performance_contextEv, symObjAddr: 0x1C4C, symBinAddr: 0x103FC, symSize: 0x54C }
  - { offset: 0x7B2A4, size: 0x8, addend: 0x0, symName: __ZN6sentry8contexts19make_event_contextsEv, symObjAddr: 0x2198, symBinAddr: 0x10948, symSize: 0xA4 }
  - { offset: 0x7B4F1, size: 0x8, addend: 0x0, symName: ___cxx_global_var_init, symObjAddr: 0x49E4, symBinAddr: 0x11B90, symSize: 0x4C }
  - { offset: 0x7B576, size: 0x8, addend: 0x0, symName: ___cxx_global_var_init.1, symObjAddr: 0x4A30, symBinAddr: 0x11BDC, symSize: 0x4C }
  - { offset: 0x7B5FB, size: 0x8, addend: 0x0, symName: ___cxx_global_var_init.2, symObjAddr: 0x4A7C, symBinAddr: 0x11C28, symSize: 0x4C }
  - { offset: 0x7B680, size: 0x8, addend: 0x0, symName: ___cxx_global_var_init.3, symObjAddr: 0x4AC8, symBinAddr: 0x11C74, symSize: 0x4C }
  - { offset: 0x7B705, size: 0x8, addend: 0x0, symName: ___cxx_global_var_init.4, symObjAddr: 0x4B14, symBinAddr: 0x11CC0, symSize: 0x4C }
  - { offset: 0x7B78A, size: 0x8, addend: 0x0, symName: ___cxx_global_var_init.5, symObjAddr: 0x4B60, symBinAddr: 0x11D0C, symSize: 0x4C }
  - { offset: 0x7B80F, size: 0x8, addend: 0x0, symName: ___cxx_global_var_init.6, symObjAddr: 0x4BAC, symBinAddr: 0x11D58, symSize: 0x4C }
  - { offset: 0x7B894, size: 0x8, addend: 0x0, symName: ___cxx_global_var_init.7, symObjAddr: 0x4BF8, symBinAddr: 0x11DA4, symSize: 0x4C }
  - { offset: 0x7B919, size: 0x8, addend: 0x0, symName: ___cxx_global_var_init.8, symObjAddr: 0x4C44, symBinAddr: 0x11DF0, symSize: 0x4C }
  - { offset: 0x7B99E, size: 0x8, addend: 0x0, symName: ___cxx_global_var_init.9, symObjAddr: 0x4C90, symBinAddr: 0x11E3C, symSize: 0x4C }
  - { offset: 0x7BA23, size: 0x8, addend: 0x0, symName: ___cxx_global_var_init.10, symObjAddr: 0x4CDC, symBinAddr: 0x11E88, symSize: 0x4C }
  - { offset: 0x7BAA8, size: 0x8, addend: 0x0, symName: ___cxx_global_var_init.11, symObjAddr: 0x4D28, symBinAddr: 0x11ED4, symSize: 0x4C }
  - { offset: 0x7BB2D, size: 0x8, addend: 0x0, symName: ___cxx_global_var_init.12, symObjAddr: 0x4D74, symBinAddr: 0x11F20, symSize: 0x4C }
  - { offset: 0x7BBB2, size: 0x8, addend: 0x0, symName: ___cxx_global_var_init.13, symObjAddr: 0x4DC0, symBinAddr: 0x11F6C, symSize: 0x4C }
  - { offset: 0x7BC37, size: 0x8, addend: 0x0, symName: ___cxx_global_var_init.14, symObjAddr: 0x4E0C, symBinAddr: 0x11FB8, symSize: 0x4C }
  - { offset: 0x7BCBC, size: 0x8, addend: 0x0, symName: ___cxx_global_var_init.15, symObjAddr: 0x4E58, symBinAddr: 0x12004, symSize: 0x4C }
  - { offset: 0x7BD41, size: 0x8, addend: 0x0, symName: ___cxx_global_var_init.16, symObjAddr: 0x4EA4, symBinAddr: 0x12050, symSize: 0x4C }
  - { offset: 0x7BE9C, size: 0x8, addend: 0x0, symName: __ZN12_GLOBAL__N_129_screen_orientation_as_stringEi, symObjAddr: 0x62C, symBinAddr: 0xEDDC, symSize: 0x80 }
  - { offset: 0x7BFAC, size: 0x8, addend: 0x0, symName: __ZN6sentry8contexts19make_device_contextERKN5godot3RefINS_13RuntimeConfigEEE.cold.3, symObjAddr: 0x3E3C, symBinAddr: 0xDE040, symSize: 0x20 }
  - { offset: 0x7BFC4, size: 0x8, addend: 0x0, symName: __ZN6sentry8contexts19make_device_contextERKN5godot3RefINS_13RuntimeConfigEEE.cold.2, symObjAddr: 0x3E1C, symBinAddr: 0xDE020, symSize: 0x20 }
  - { offset: 0x7BFDC, size: 0x8, addend: 0x0, symName: __ZN6sentry8contexts19make_device_contextERKN5godot3RefINS_13RuntimeConfigEEE.cold.1, symObjAddr: 0x3DFC, symBinAddr: 0xDE000, symSize: 0x20 }
  - { offset: 0x7BFF4, size: 0x8, addend: 0x0, symName: __ZN12_GLOBAL__N_129_screen_orientation_as_stringEi.cold.1, symObjAddr: 0x3E5C, symBinAddr: 0xDE060, symSize: 0x20 }
  - { offset: 0x7C00C, size: 0x8, addend: 0x0, symName: __ZN6sentry8contexts26make_device_context_updateEv.cold.2, symObjAddr: 0x3E9C, symBinAddr: 0xDE0A0, symSize: 0x20 }
  - { offset: 0x7C024, size: 0x8, addend: 0x0, symName: __ZN6sentry8contexts26make_device_context_updateEv.cold.1, symObjAddr: 0x3E7C, symBinAddr: 0xDE080, symSize: 0x20 }
  - { offset: 0x7C03C, size: 0x8, addend: 0x0, symName: __ZN6sentry8contexts16make_app_contextEv.cold.3, symObjAddr: 0x3EFC, symBinAddr: 0xDE100, symSize: 0x20 }
  - { offset: 0x7C054, size: 0x8, addend: 0x0, symName: __ZN6sentry8contexts16make_app_contextEv.cold.2, symObjAddr: 0x3EDC, symBinAddr: 0xDE0E0, symSize: 0x20 }
  - { offset: 0x7C06C, size: 0x8, addend: 0x0, symName: __ZN6sentry8contexts16make_app_contextEv.cold.1, symObjAddr: 0x3EBC, symBinAddr: 0xDE0C0, symSize: 0x20 }
  - { offset: 0x7C084, size: 0x8, addend: 0x0, symName: __ZN6sentry8contexts16make_gpu_contextEv.cold.2, symObjAddr: 0x3F5C, symBinAddr: 0xDE160, symSize: 0x40 }
  - { offset: 0x7C09C, size: 0x8, addend: 0x0, symName: __ZN6sentry8contexts16make_gpu_contextEv.cold.1, symObjAddr: 0x3F1C, symBinAddr: 0xDE120, symSize: 0x40 }
  - { offset: 0x7C0B4, size: 0x8, addend: 0x0, symName: __ZN6sentry8contexts20make_culture_contextEv.cold.1, symObjAddr: 0x3F9C, symBinAddr: 0xDE1A0, symSize: 0x20 }
  - { offset: 0x7C0F1, size: 0x8, addend: 0x0, symName: __ZN6sentry8contexts20make_display_contextEv.cold.1, symObjAddr: 0x3FBC, symBinAddr: 0xDE1C0, symSize: 0x20 }
  - { offset: 0x7C109, size: 0x8, addend: 0x0, symName: __ZN6sentry8contexts25make_godot_engine_contextEv.cold.2, symObjAddr: 0x3FFC, symBinAddr: 0xDE200, symSize: 0x20 }
  - { offset: 0x7C121, size: 0x8, addend: 0x0, symName: __ZN6sentry8contexts25make_godot_engine_contextEv.cold.1, symObjAddr: 0x3FDC, symBinAddr: 0xDE1E0, symSize: 0x20 }
  - { offset: 0x7C139, size: 0x8, addend: 0x0, symName: __ZN6sentry8contexts24make_environment_contextEv.cold.1, symObjAddr: 0x401C, symBinAddr: 0xDE220, symSize: 0x20 }
  - { offset: 0x7C176, size: 0x8, addend: 0x0, symName: __ZN6sentry8contexts24make_performance_contextEv.cold.4, symObjAddr: 0x409C, symBinAddr: 0xDE2A0, symSize: 0x20 }
  - { offset: 0x7C18E, size: 0x8, addend: 0x0, symName: __ZN6sentry8contexts24make_performance_contextEv.cold.3, symObjAddr: 0x407C, symBinAddr: 0xDE280, symSize: 0x20 }
  - { offset: 0x7C1A6, size: 0x8, addend: 0x0, symName: __ZN6sentry8contexts24make_performance_contextEv.cold.2, symObjAddr: 0x405C, symBinAddr: 0xDE260, symSize: 0x20 }
  - { offset: 0x7C1BE, size: 0x8, addend: 0x0, symName: __ZN6sentry8contexts24make_performance_contextEv.cold.1, symObjAddr: 0x403C, symBinAddr: 0xDE240, symSize: 0x20 }
  - { offset: 0x7C20F, size: 0x8, addend: 0x0, symName: __ZN5godot7HashMapINS_6StringENS_10DictionaryENS_20HashMapHasherDefaultENS_24HashMapComparatorDefaultIS1_EENS_21DefaultTypedAllocatorINS_14HashMapElementIS1_S2_EEEEEixERKS1_, symObjAddr: 0x223C, symBinAddr: 0x109EC, symSize: 0x2B0 }
  - { offset: 0x7CA2D, size: 0x8, addend: 0x0, symName: __ZNK5godot7HashMapINS_6StringENS_10DictionaryENS_20HashMapHasherDefaultENS_24HashMapComparatorDefaultIS1_EENS_21DefaultTypedAllocatorINS_14HashMapElementIS1_S2_EEEEE11_lookup_posERKS1_Rj, symObjAddr: 0x3B48, symBinAddr: 0x11884, symSize: 0x128 }
  - { offset: 0x7CC2F, size: 0x8, addend: 0x0, symName: __ZN5godot7HashMapINS_6StringENS_10DictionaryENS_20HashMapHasherDefaultENS_24HashMapComparatorDefaultIS1_EENS_21DefaultTypedAllocatorINS_14HashMapElementIS1_S2_EEEEEixERKS1_.cold.1, symObjAddr: 0x40BC, symBinAddr: 0xDE2C0, symSize: 0x74 }
  - { offset: 0x7CC78, size: 0x8, addend: 0x0, symName: __ZN5godot7HashMapINS_6StringENS_10DictionaryENS_20HashMapHasherDefaultENS_24HashMapComparatorDefaultIS1_EENS_21DefaultTypedAllocatorINS_14HashMapElementIS1_S2_EEEEE18_resize_and_rehashEj, symObjAddr: 0x3C70, symBinAddr: 0x119AC, symSize: 0x18C }
  - { offset: 0x7CEF5, size: 0x8, addend: 0x0, symName: __ZN5godot7HashMapINS_6StringENS_10DictionaryENS_20HashMapHasherDefaultENS_24HashMapComparatorDefaultIS1_EENS_21DefaultTypedAllocatorINS_14HashMapElementIS1_S2_EEEEEixERKS1_.cold.2, symObjAddr: 0x4130, symBinAddr: 0xDE334, symSize: 0x40 }
  - { offset: 0x7CF2B, size: 0x8, addend: 0x0, symName: __ZN5godot8internal23EngineClassRegistrationINS_6ObjectEE8callbackEv.cold.1, symObjAddr: 0x4170, symBinAddr: 0xDE374, symSize: 0x5C }
  - { offset: 0x7D0F7, size: 0x8, addend: 0x0, symName: __ZN5godot6ObjectD1Ev.cold.1, symObjAddr: 0x41CC, symBinAddr: 0xDE3D0, symSize: 0x1C }
  - { offset: 0x7D112, size: 0x8, addend: 0x0, symName: __ZN5godot6ObjectD1Ev.cold.1, symObjAddr: 0x41CC, symBinAddr: 0xDE3D0, symSize: 0x1C }
  - { offset: 0x7D126, size: 0x8, addend: 0x0, symName: __ZN5godot6ObjectD1Ev.cold.1, symObjAddr: 0x41CC, symBinAddr: 0xDE3D0, symSize: 0x1C }
  - { offset: 0x7D13A, size: 0x8, addend: 0x0, symName: __ZN5godot6ObjectD1Ev.cold.1, symObjAddr: 0x41CC, symBinAddr: 0xDE3D0, symSize: 0x1C }
  - { offset: 0x7D14F, size: 0x8, addend: 0x0, symName: __ZN5godot6ObjectD1Ev.cold.1, symObjAddr: 0x41CC, symBinAddr: 0xDE3D0, symSize: 0x1C }
  - { offset: 0x7D17F, size: 0x8, addend: 0x0, symName: __ZN5godot6ObjectD0Ev.cold.1, symObjAddr: 0x41E8, symBinAddr: 0xDE3EC, symSize: 0x1C }
  - { offset: 0x7D19A, size: 0x8, addend: 0x0, symName: __ZN5godot6ObjectD0Ev.cold.1, symObjAddr: 0x41E8, symBinAddr: 0xDE3EC, symSize: 0x1C }
  - { offset: 0x7D1AE, size: 0x8, addend: 0x0, symName: __ZN5godot6ObjectD0Ev.cold.1, symObjAddr: 0x41E8, symBinAddr: 0xDE3EC, symSize: 0x1C }
  - { offset: 0x7D1C2, size: 0x8, addend: 0x0, symName: __ZN5godot6ObjectD0Ev.cold.1, symObjAddr: 0x41E8, symBinAddr: 0xDE3EC, symSize: 0x1C }
  - { offset: 0x7D1D6, size: 0x8, addend: 0x0, symName: __ZN5godot6ObjectD0Ev.cold.1, symObjAddr: 0x41E8, symBinAddr: 0xDE3EC, symSize: 0x1C }
  - { offset: 0x7D1EB, size: 0x8, addend: 0x0, symName: __ZN5godot6ObjectD0Ev.cold.1, symObjAddr: 0x41E8, symBinAddr: 0xDE3EC, symSize: 0x1C }
  - { offset: 0x7D202, size: 0x8, addend: 0x0, symName: __ZN5godot7WrappedD1Ev.cold.1, symObjAddr: 0x4204, symBinAddr: 0xDE408, symSize: 0x1C }
  - { offset: 0x7D21D, size: 0x8, addend: 0x0, symName: __ZN5godot7WrappedD1Ev.cold.1, symObjAddr: 0x4204, symBinAddr: 0xDE408, symSize: 0x1C }
  - { offset: 0x7D231, size: 0x8, addend: 0x0, symName: __ZN5godot7WrappedD1Ev.cold.1, symObjAddr: 0x4204, symBinAddr: 0xDE408, symSize: 0x1C }
  - { offset: 0x7D246, size: 0x8, addend: 0x0, symName: __ZN5godot7WrappedD1Ev.cold.1, symObjAddr: 0x4204, symBinAddr: 0xDE408, symSize: 0x1C }
  - { offset: 0x7D275, size: 0x8, addend: 0x0, symName: __ZN5godot7WrappedD0Ev.cold.1, symObjAddr: 0x4220, symBinAddr: 0xDE424, symSize: 0x1C }
  - { offset: 0x7D290, size: 0x8, addend: 0x0, symName: __ZN5godot7WrappedD0Ev.cold.1, symObjAddr: 0x4220, symBinAddr: 0xDE424, symSize: 0x1C }
  - { offset: 0x7D2A4, size: 0x8, addend: 0x0, symName: __ZN5godot7WrappedD0Ev.cold.1, symObjAddr: 0x4220, symBinAddr: 0xDE424, symSize: 0x1C }
  - { offset: 0x7D2B8, size: 0x8, addend: 0x0, symName: __ZN5godot7WrappedD0Ev.cold.1, symObjAddr: 0x4220, symBinAddr: 0xDE424, symSize: 0x1C }
  - { offset: 0x7D2CD, size: 0x8, addend: 0x0, symName: __ZN5godot7WrappedD0Ev.cold.1, symObjAddr: 0x4220, symBinAddr: 0xDE424, symSize: 0x1C }
  - { offset: 0x7D353, size: 0x8, addend: 0x0, symName: __ZN5godot4ListINS_12PropertyInfoENS_16DefaultAllocatorEE5_Data5eraseEPNS3_7ElementE.cold.2, symObjAddr: 0x425C, symBinAddr: 0xDE460, symSize: 0x20 }
  - { offset: 0x7D36B, size: 0x8, addend: 0x0, symName: __ZN5godot4ListINS_12PropertyInfoENS_16DefaultAllocatorEE5_Data5eraseEPNS3_7ElementE.cold.1, symObjAddr: 0x423C, symBinAddr: 0xDE440, symSize: 0x20 }
  - { offset: 0x7D38A, size: 0x8, addend: 0x0, symName: __ZN5godot8internal23EngineClassRegistrationINS_16ClassDBSingletonEE8callbackEv.cold.1, symObjAddr: 0x427C, symBinAddr: 0xDE480, symSize: 0x5C }
  - { offset: 0x7D3BF, size: 0x8, addend: 0x0, symName: __ZN5godot8internal23EngineClassRegistrationINS_10RefCountedEE8callbackEv.cold.1, symObjAddr: 0x42D8, symBinAddr: 0xDE4DC, symSize: 0x5C }
  - { offset: 0x7D42E, size: 0x8, addend: 0x0, symName: __ZN5godot10RefCountedD1Ev.cold.1, symObjAddr: 0x4334, symBinAddr: 0xDE538, symSize: 0x1C }
  - { offset: 0x7D449, size: 0x8, addend: 0x0, symName: __ZN5godot10RefCountedD1Ev.cold.1, symObjAddr: 0x4334, symBinAddr: 0xDE538, symSize: 0x1C }
  - { offset: 0x7D45D, size: 0x8, addend: 0x0, symName: __ZN5godot10RefCountedD1Ev.cold.1, symObjAddr: 0x4334, symBinAddr: 0xDE538, symSize: 0x1C }
  - { offset: 0x7D471, size: 0x8, addend: 0x0, symName: __ZN5godot10RefCountedD1Ev.cold.1, symObjAddr: 0x4334, symBinAddr: 0xDE538, symSize: 0x1C }
  - { offset: 0x7D485, size: 0x8, addend: 0x0, symName: __ZN5godot10RefCountedD1Ev.cold.1, symObjAddr: 0x4334, symBinAddr: 0xDE538, symSize: 0x1C }
  - { offset: 0x7D49A, size: 0x8, addend: 0x0, symName: __ZN5godot10RefCountedD1Ev.cold.1, symObjAddr: 0x4334, symBinAddr: 0xDE538, symSize: 0x1C }
  - { offset: 0x7D4CD, size: 0x8, addend: 0x0, symName: __ZN5godot10RefCountedD0Ev.cold.1, symObjAddr: 0x4350, symBinAddr: 0xDE554, symSize: 0x1C }
  - { offset: 0x7D4E8, size: 0x8, addend: 0x0, symName: __ZN5godot10RefCountedD0Ev.cold.1, symObjAddr: 0x4350, symBinAddr: 0xDE554, symSize: 0x1C }
  - { offset: 0x7D4FC, size: 0x8, addend: 0x0, symName: __ZN5godot10RefCountedD0Ev.cold.1, symObjAddr: 0x4350, symBinAddr: 0xDE554, symSize: 0x1C }
  - { offset: 0x7D510, size: 0x8, addend: 0x0, symName: __ZN5godot10RefCountedD0Ev.cold.1, symObjAddr: 0x4350, symBinAddr: 0xDE554, symSize: 0x1C }
  - { offset: 0x7D524, size: 0x8, addend: 0x0, symName: __ZN5godot10RefCountedD0Ev.cold.1, symObjAddr: 0x4350, symBinAddr: 0xDE554, symSize: 0x1C }
  - { offset: 0x7D538, size: 0x8, addend: 0x0, symName: __ZN5godot10RefCountedD0Ev.cold.1, symObjAddr: 0x4350, symBinAddr: 0xDE554, symSize: 0x1C }
  - { offset: 0x7D54D, size: 0x8, addend: 0x0, symName: __ZN5godot10RefCountedD0Ev.cold.1, symObjAddr: 0x4350, symBinAddr: 0xDE554, symSize: 0x1C }
  - { offset: 0x7D56C, size: 0x8, addend: 0x0, symName: __ZN5godot8internal23EngineClassRegistrationINS_10ConfigFileEE8callbackEv.cold.1, symObjAddr: 0x436C, symBinAddr: 0xDE570, symSize: 0x5C }
  - { offset: 0x7D5B6, size: 0x8, addend: 0x0, symName: __ZN5godot10ConfigFileD1Ev.cold.1, symObjAddr: 0x43C8, symBinAddr: 0xDE5CC, symSize: 0x1C }
  - { offset: 0x7D5D1, size: 0x8, addend: 0x0, symName: __ZN5godot10ConfigFileD1Ev.cold.1, symObjAddr: 0x43C8, symBinAddr: 0xDE5CC, symSize: 0x1C }
  - { offset: 0x7D5E5, size: 0x8, addend: 0x0, symName: __ZN5godot10ConfigFileD1Ev.cold.1, symObjAddr: 0x43C8, symBinAddr: 0xDE5CC, symSize: 0x1C }
  - { offset: 0x7D5F9, size: 0x8, addend: 0x0, symName: __ZN5godot10ConfigFileD1Ev.cold.1, symObjAddr: 0x43C8, symBinAddr: 0xDE5CC, symSize: 0x1C }
  - { offset: 0x7D60D, size: 0x8, addend: 0x0, symName: __ZN5godot10ConfigFileD1Ev.cold.1, symObjAddr: 0x43C8, symBinAddr: 0xDE5CC, symSize: 0x1C }
  - { offset: 0x7D621, size: 0x8, addend: 0x0, symName: __ZN5godot10ConfigFileD1Ev.cold.1, symObjAddr: 0x43C8, symBinAddr: 0xDE5CC, symSize: 0x1C }
  - { offset: 0x7D636, size: 0x8, addend: 0x0, symName: __ZN5godot10ConfigFileD1Ev.cold.1, symObjAddr: 0x43C8, symBinAddr: 0xDE5CC, symSize: 0x1C }
  - { offset: 0x7D66A, size: 0x8, addend: 0x0, symName: __ZN5godot10ConfigFileD0Ev.cold.1, symObjAddr: 0x43E4, symBinAddr: 0xDE5E8, symSize: 0x1C }
  - { offset: 0x7D685, size: 0x8, addend: 0x0, symName: __ZN5godot10ConfigFileD0Ev.cold.1, symObjAddr: 0x43E4, symBinAddr: 0xDE5E8, symSize: 0x1C }
  - { offset: 0x7D699, size: 0x8, addend: 0x0, symName: __ZN5godot10ConfigFileD0Ev.cold.1, symObjAddr: 0x43E4, symBinAddr: 0xDE5E8, symSize: 0x1C }
  - { offset: 0x7D6AD, size: 0x8, addend: 0x0, symName: __ZN5godot10ConfigFileD0Ev.cold.1, symObjAddr: 0x43E4, symBinAddr: 0xDE5E8, symSize: 0x1C }
  - { offset: 0x7D6C1, size: 0x8, addend: 0x0, symName: __ZN5godot10ConfigFileD0Ev.cold.1, symObjAddr: 0x43E4, symBinAddr: 0xDE5E8, symSize: 0x1C }
  - { offset: 0x7D6D5, size: 0x8, addend: 0x0, symName: __ZN5godot10ConfigFileD0Ev.cold.1, symObjAddr: 0x43E4, symBinAddr: 0xDE5E8, symSize: 0x1C }
  - { offset: 0x7D6E9, size: 0x8, addend: 0x0, symName: __ZN5godot10ConfigFileD0Ev.cold.1, symObjAddr: 0x43E4, symBinAddr: 0xDE5E8, symSize: 0x1C }
  - { offset: 0x7D6FE, size: 0x8, addend: 0x0, symName: __ZN5godot10ConfigFileD0Ev.cold.1, symObjAddr: 0x43E4, symBinAddr: 0xDE5E8, symSize: 0x1C }
  - { offset: 0x7D71E, size: 0x8, addend: 0x0, symName: __ZN5godot8internal23EngineClassRegistrationINS_6LoggerEE8callbackEv.cold.1, symObjAddr: 0x4400, symBinAddr: 0xDE604, symSize: 0x5C }
  - { offset: 0x7D753, size: 0x8, addend: 0x0, symName: __ZN5godot8internal23EngineClassRegistrationINS_9DirAccessEE8callbackEv, symObjAddr: 0x2DC8, symBinAddr: 0x10C9C, symSize: 0x48 }
  - { offset: 0x7D79D, size: 0x8, addend: 0x0, symName: __ZN5godot8internal23EngineClassRegistrationINS_9DirAccessEE8callbackEv.cold.1, symObjAddr: 0x445C, symBinAddr: 0xDE660, symSize: 0x5C }
  - { offset: 0x7D815, size: 0x8, addend: 0x0, symName: __ZN5godot9DirAccess28_gde_binding_create_callbackEPvS1_, symObjAddr: 0x2E10, symBinAddr: 0x10CE4, symSize: 0x44 }
  - { offset: 0x7D8D4, size: 0x8, addend: 0x0, symName: __ZN5godot9DirAccess26_gde_binding_free_callbackEPvS1_S1_, symObjAddr: 0x2E54, symBinAddr: 0x10D28, symSize: 0x34 }
  - { offset: 0x7D929, size: 0x8, addend: 0x0, symName: __ZN5godot9DirAccess31_gde_binding_reference_callbackEPvS1_h, symObjAddr: 0x2E88, symBinAddr: 0x10D5C, symSize: 0x8 }
  - { offset: 0x7D985, size: 0x8, addend: 0x0, symName: __ZN5godot9DirAccessD1Ev, symObjAddr: 0x2E90, symBinAddr: 0x10D64, symSize: 0x8C }
  - { offset: 0x7DB23, size: 0x8, addend: 0x0, symName: __ZN5godot9DirAccessD1Ev.cold.1, symObjAddr: 0x44B8, symBinAddr: 0xDE6BC, symSize: 0x1C }
  - { offset: 0x7DB3E, size: 0x8, addend: 0x0, symName: __ZN5godot9DirAccessD1Ev.cold.1, symObjAddr: 0x44B8, symBinAddr: 0xDE6BC, symSize: 0x1C }
  - { offset: 0x7DB52, size: 0x8, addend: 0x0, symName: __ZN5godot9DirAccessD1Ev.cold.1, symObjAddr: 0x44B8, symBinAddr: 0xDE6BC, symSize: 0x1C }
  - { offset: 0x7DB66, size: 0x8, addend: 0x0, symName: __ZN5godot9DirAccessD1Ev.cold.1, symObjAddr: 0x44B8, symBinAddr: 0xDE6BC, symSize: 0x1C }
  - { offset: 0x7DB7A, size: 0x8, addend: 0x0, symName: __ZN5godot9DirAccessD1Ev.cold.1, symObjAddr: 0x44B8, symBinAddr: 0xDE6BC, symSize: 0x1C }
  - { offset: 0x7DB8E, size: 0x8, addend: 0x0, symName: __ZN5godot9DirAccessD1Ev.cold.1, symObjAddr: 0x44B8, symBinAddr: 0xDE6BC, symSize: 0x1C }
  - { offset: 0x7DBA3, size: 0x8, addend: 0x0, symName: __ZN5godot9DirAccessD1Ev.cold.1, symObjAddr: 0x44B8, symBinAddr: 0xDE6BC, symSize: 0x1C }
  - { offset: 0x7DBD7, size: 0x8, addend: 0x0, symName: __ZN5godot9DirAccessD0Ev, symObjAddr: 0x2F1C, symBinAddr: 0x10DF0, symSize: 0x74 }
  - { offset: 0x7DD22, size: 0x8, addend: 0x0, symName: __ZN5godot9DirAccessD0Ev.cold.1, symObjAddr: 0x44D4, symBinAddr: 0xDE6D8, symSize: 0x1C }
  - { offset: 0x7DD3D, size: 0x8, addend: 0x0, symName: __ZN5godot9DirAccessD0Ev.cold.1, symObjAddr: 0x44D4, symBinAddr: 0xDE6D8, symSize: 0x1C }
  - { offset: 0x7DD51, size: 0x8, addend: 0x0, symName: __ZN5godot9DirAccessD0Ev.cold.1, symObjAddr: 0x44D4, symBinAddr: 0xDE6D8, symSize: 0x1C }
  - { offset: 0x7DD65, size: 0x8, addend: 0x0, symName: __ZN5godot9DirAccessD0Ev.cold.1, symObjAddr: 0x44D4, symBinAddr: 0xDE6D8, symSize: 0x1C }
  - { offset: 0x7DD79, size: 0x8, addend: 0x0, symName: __ZN5godot9DirAccessD0Ev.cold.1, symObjAddr: 0x44D4, symBinAddr: 0xDE6D8, symSize: 0x1C }
  - { offset: 0x7DD8D, size: 0x8, addend: 0x0, symName: __ZN5godot9DirAccessD0Ev.cold.1, symObjAddr: 0x44D4, symBinAddr: 0xDE6D8, symSize: 0x1C }
  - { offset: 0x7DDA1, size: 0x8, addend: 0x0, symName: __ZN5godot9DirAccessD0Ev.cold.1, symObjAddr: 0x44D4, symBinAddr: 0xDE6D8, symSize: 0x1C }
  - { offset: 0x7DDB6, size: 0x8, addend: 0x0, symName: __ZN5godot9DirAccessD0Ev.cold.1, symObjAddr: 0x44D4, symBinAddr: 0xDE6D8, symSize: 0x1C }
  - { offset: 0x7DDD6, size: 0x8, addend: 0x0, symName: __ZN5godot8internal23EngineClassRegistrationINS_13DisplayServerEE8callbackEv.cold.1, symObjAddr: 0x44F0, symBinAddr: 0xDE6F4, symSize: 0x5C }
  - { offset: 0x7DE0B, size: 0x8, addend: 0x0, symName: __ZN5godot8internal23EngineClassRegistrationINS_6EngineEE8callbackEv.cold.1, symObjAddr: 0x454C, symBinAddr: 0xDE750, symSize: 0x5C }
  - { offset: 0x7DE40, size: 0x8, addend: 0x0, symName: __ZN5godot8internal23EngineClassRegistrationINS_2OSEE8callbackEv, symObjAddr: 0x3128, symBinAddr: 0x10E64, symSize: 0x48 }
  - { offset: 0x7DE8A, size: 0x8, addend: 0x0, symName: __ZN5godot8internal23EngineClassRegistrationINS_2OSEE8callbackEv.cold.1, symObjAddr: 0x45A8, symBinAddr: 0xDE7AC, symSize: 0x5C }
  - { offset: 0x7DF02, size: 0x8, addend: 0x0, symName: __ZN5godot2OS28_gde_binding_create_callbackEPvS1_, symObjAddr: 0x3170, symBinAddr: 0x10EAC, symSize: 0x48 }
  - { offset: 0x7DF9E, size: 0x8, addend: 0x0, symName: __ZN5godot2OS26_gde_binding_free_callbackEPvS1_S1_, symObjAddr: 0x31B8, symBinAddr: 0x10EF4, symSize: 0x34 }
  - { offset: 0x7DFF3, size: 0x8, addend: 0x0, symName: __ZN5godot2OS31_gde_binding_reference_callbackEPvS1_h, symObjAddr: 0x31EC, symBinAddr: 0x10F28, symSize: 0x8 }
  - { offset: 0x7E03A, size: 0x8, addend: 0x0, symName: __ZN5godot8internal23EngineClassRegistrationINS_11PerformanceEE8callbackEv, symObjAddr: 0x31F4, symBinAddr: 0x10F30, symSize: 0x48 }
  - { offset: 0x7E084, size: 0x8, addend: 0x0, symName: __ZN5godot8internal23EngineClassRegistrationINS_11PerformanceEE8callbackEv.cold.1, symObjAddr: 0x4604, symBinAddr: 0xDE808, symSize: 0x5C }
  - { offset: 0x7E0FC, size: 0x8, addend: 0x0, symName: __ZN5godot11Performance28_gde_binding_create_callbackEPvS1_, symObjAddr: 0x323C, symBinAddr: 0x10F78, symSize: 0x48 }
  - { offset: 0x7E198, size: 0x8, addend: 0x0, symName: __ZN5godot11Performance26_gde_binding_free_callbackEPvS1_S1_, symObjAddr: 0x3284, symBinAddr: 0x10FC0, symSize: 0x34 }
  - { offset: 0x7E1ED, size: 0x8, addend: 0x0, symName: __ZN5godot11Performance31_gde_binding_reference_callbackEPvS1_h, symObjAddr: 0x32B8, symBinAddr: 0x10FF4, symSize: 0x8 }
  - { offset: 0x7E234, size: 0x8, addend: 0x0, symName: __ZN5godot8internal23EngineClassRegistrationINS_15ProjectSettingsEE8callbackEv, symObjAddr: 0x32C0, symBinAddr: 0x10FFC, symSize: 0x48 }
  - { offset: 0x7E27E, size: 0x8, addend: 0x0, symName: __ZN5godot8internal23EngineClassRegistrationINS_15ProjectSettingsEE8callbackEv.cold.1, symObjAddr: 0x4660, symBinAddr: 0xDE864, symSize: 0x5C }
  - { offset: 0x7E2F6, size: 0x8, addend: 0x0, symName: __ZN5godot15ProjectSettings28_gde_binding_create_callbackEPvS1_, symObjAddr: 0x3308, symBinAddr: 0x11044, symSize: 0x48 }
  - { offset: 0x7E392, size: 0x8, addend: 0x0, symName: __ZN5godot15ProjectSettings26_gde_binding_free_callbackEPvS1_S1_, symObjAddr: 0x3350, symBinAddr: 0x1108C, symSize: 0x34 }
  - { offset: 0x7E3E7, size: 0x8, addend: 0x0, symName: __ZN5godot15ProjectSettings31_gde_binding_reference_callbackEPvS1_h, symObjAddr: 0x3384, symBinAddr: 0x110C0, symSize: 0x8 }
  - { offset: 0x7E42E, size: 0x8, addend: 0x0, symName: __ZN5godot8internal23EngineClassRegistrationINS_8ResourceEE8callbackEv, symObjAddr: 0x338C, symBinAddr: 0x110C8, symSize: 0x48 }
  - { offset: 0x7E478, size: 0x8, addend: 0x0, symName: __ZN5godot8internal23EngineClassRegistrationINS_8ResourceEE8callbackEv.cold.1, symObjAddr: 0x46BC, symBinAddr: 0xDE8C0, symSize: 0x5C }
  - { offset: 0x7E4F0, size: 0x8, addend: 0x0, symName: __ZN5godot8Resource28_gde_binding_create_callbackEPvS1_, symObjAddr: 0x33D4, symBinAddr: 0x11110, symSize: 0x48 }
  - { offset: 0x7E5AF, size: 0x8, addend: 0x0, symName: __ZN5godot8Resource26_gde_binding_free_callbackEPvS1_S1_, symObjAddr: 0x341C, symBinAddr: 0x11158, symSize: 0x34 }
  - { offset: 0x7E604, size: 0x8, addend: 0x0, symName: __ZN5godot8Resource31_gde_binding_reference_callbackEPvS1_h, symObjAddr: 0x3450, symBinAddr: 0x1118C, symSize: 0x8 }
  - { offset: 0x7E64B, size: 0x8, addend: 0x0, symName: __ZN5godot8internal23EngineClassRegistrationINS_5ImageEE8callbackEv, symObjAddr: 0x3458, symBinAddr: 0x11194, symSize: 0x48 }
  - { offset: 0x7E695, size: 0x8, addend: 0x0, symName: __ZN5godot8internal23EngineClassRegistrationINS_5ImageEE8callbackEv.cold.1, symObjAddr: 0x4718, symBinAddr: 0xDE91C, symSize: 0x5C }
  - { offset: 0x7E70D, size: 0x8, addend: 0x0, symName: __ZN5godot5Image28_gde_binding_create_callbackEPvS1_, symObjAddr: 0x34A0, symBinAddr: 0x111DC, symSize: 0x44 }
  - { offset: 0x7E7EF, size: 0x8, addend: 0x0, symName: __ZN5godot5Image26_gde_binding_free_callbackEPvS1_S1_, symObjAddr: 0x34E4, symBinAddr: 0x11220, symSize: 0x34 }
  - { offset: 0x7E844, size: 0x8, addend: 0x0, symName: __ZN5godot5Image31_gde_binding_reference_callbackEPvS1_h, symObjAddr: 0x3518, symBinAddr: 0x11254, symSize: 0x8 }
  - { offset: 0x7E8BC, size: 0x8, addend: 0x0, symName: __ZN5godot5ImageD1Ev, symObjAddr: 0x3520, symBinAddr: 0x1125C, symSize: 0x8C }
  - { offset: 0x7EA70, size: 0x8, addend: 0x0, symName: __ZN5godot5ImageD1Ev.cold.1, symObjAddr: 0x4774, symBinAddr: 0xDE978, symSize: 0x1C }
  - { offset: 0x7EA8B, size: 0x8, addend: 0x0, symName: __ZN5godot5ImageD1Ev.cold.1, symObjAddr: 0x4774, symBinAddr: 0xDE978, symSize: 0x1C }
  - { offset: 0x7EA9F, size: 0x8, addend: 0x0, symName: __ZN5godot5ImageD1Ev.cold.1, symObjAddr: 0x4774, symBinAddr: 0xDE978, symSize: 0x1C }
  - { offset: 0x7EAB3, size: 0x8, addend: 0x0, symName: __ZN5godot5ImageD1Ev.cold.1, symObjAddr: 0x4774, symBinAddr: 0xDE978, symSize: 0x1C }
  - { offset: 0x7EAC7, size: 0x8, addend: 0x0, symName: __ZN5godot5ImageD1Ev.cold.1, symObjAddr: 0x4774, symBinAddr: 0xDE978, symSize: 0x1C }
  - { offset: 0x7EADB, size: 0x8, addend: 0x0, symName: __ZN5godot5ImageD1Ev.cold.1, symObjAddr: 0x4774, symBinAddr: 0xDE978, symSize: 0x1C }
  - { offset: 0x7EAEF, size: 0x8, addend: 0x0, symName: __ZN5godot5ImageD1Ev.cold.1, symObjAddr: 0x4774, symBinAddr: 0xDE978, symSize: 0x1C }
  - { offset: 0x7EB04, size: 0x8, addend: 0x0, symName: __ZN5godot5ImageD1Ev.cold.1, symObjAddr: 0x4774, symBinAddr: 0xDE978, symSize: 0x1C }
  - { offset: 0x7EB39, size: 0x8, addend: 0x0, symName: __ZN5godot5ImageD0Ev, symObjAddr: 0x35AC, symBinAddr: 0x112E8, symSize: 0x74 }
  - { offset: 0x7EC9A, size: 0x8, addend: 0x0, symName: __ZN5godot5ImageD0Ev.cold.1, symObjAddr: 0x4790, symBinAddr: 0xDE994, symSize: 0x1C }
  - { offset: 0x7ECB5, size: 0x8, addend: 0x0, symName: __ZN5godot5ImageD0Ev.cold.1, symObjAddr: 0x4790, symBinAddr: 0xDE994, symSize: 0x1C }
  - { offset: 0x7ECC9, size: 0x8, addend: 0x0, symName: __ZN5godot5ImageD0Ev.cold.1, symObjAddr: 0x4790, symBinAddr: 0xDE994, symSize: 0x1C }
  - { offset: 0x7ECDD, size: 0x8, addend: 0x0, symName: __ZN5godot5ImageD0Ev.cold.1, symObjAddr: 0x4790, symBinAddr: 0xDE994, symSize: 0x1C }
  - { offset: 0x7ECF1, size: 0x8, addend: 0x0, symName: __ZN5godot5ImageD0Ev.cold.1, symObjAddr: 0x4790, symBinAddr: 0xDE994, symSize: 0x1C }
  - { offset: 0x7ED05, size: 0x8, addend: 0x0, symName: __ZN5godot5ImageD0Ev.cold.1, symObjAddr: 0x4790, symBinAddr: 0xDE994, symSize: 0x1C }
  - { offset: 0x7ED19, size: 0x8, addend: 0x0, symName: __ZN5godot5ImageD0Ev.cold.1, symObjAddr: 0x4790, symBinAddr: 0xDE994, symSize: 0x1C }
  - { offset: 0x7ED2D, size: 0x8, addend: 0x0, symName: __ZN5godot5ImageD0Ev.cold.1, symObjAddr: 0x4790, symBinAddr: 0xDE994, symSize: 0x1C }
  - { offset: 0x7ED42, size: 0x8, addend: 0x0, symName: __ZN5godot5ImageD0Ev.cold.1, symObjAddr: 0x4790, symBinAddr: 0xDE994, symSize: 0x1C }
  - { offset: 0x7ED63, size: 0x8, addend: 0x0, symName: __ZN5godot8internal23EngineClassRegistrationINS_32RDPipelineSpecializationConstantEE8callbackEv, symObjAddr: 0x3620, symBinAddr: 0x1135C, symSize: 0x48 }
  - { offset: 0x7EDAD, size: 0x8, addend: 0x0, symName: __ZN5godot8internal23EngineClassRegistrationINS_32RDPipelineSpecializationConstantEE8callbackEv.cold.1, symObjAddr: 0x47AC, symBinAddr: 0xDE9B0, symSize: 0x5C }
  - { offset: 0x7EE25, size: 0x8, addend: 0x0, symName: __ZN5godot32RDPipelineSpecializationConstant28_gde_binding_create_callbackEPvS1_, symObjAddr: 0x3668, symBinAddr: 0x113A4, symSize: 0x44 }
  - { offset: 0x7EEE4, size: 0x8, addend: 0x0, symName: __ZN5godot32RDPipelineSpecializationConstant26_gde_binding_free_callbackEPvS1_S1_, symObjAddr: 0x36AC, symBinAddr: 0x113E8, symSize: 0x34 }
  - { offset: 0x7EF39, size: 0x8, addend: 0x0, symName: __ZN5godot32RDPipelineSpecializationConstant31_gde_binding_reference_callbackEPvS1_h, symObjAddr: 0x36E0, symBinAddr: 0x1141C, symSize: 0x8 }
  - { offset: 0x7EF95, size: 0x8, addend: 0x0, symName: __ZN5godot32RDPipelineSpecializationConstantD1Ev, symObjAddr: 0x36E8, symBinAddr: 0x11424, symSize: 0x8C }
  - { offset: 0x7F133, size: 0x8, addend: 0x0, symName: __ZN5godot32RDPipelineSpecializationConstantD1Ev.cold.1, symObjAddr: 0x4808, symBinAddr: 0xDEA0C, symSize: 0x1C }
  - { offset: 0x7F14E, size: 0x8, addend: 0x0, symName: __ZN5godot32RDPipelineSpecializationConstantD1Ev.cold.1, symObjAddr: 0x4808, symBinAddr: 0xDEA0C, symSize: 0x1C }
  - { offset: 0x7F162, size: 0x8, addend: 0x0, symName: __ZN5godot32RDPipelineSpecializationConstantD1Ev.cold.1, symObjAddr: 0x4808, symBinAddr: 0xDEA0C, symSize: 0x1C }
  - { offset: 0x7F176, size: 0x8, addend: 0x0, symName: __ZN5godot32RDPipelineSpecializationConstantD1Ev.cold.1, symObjAddr: 0x4808, symBinAddr: 0xDEA0C, symSize: 0x1C }
  - { offset: 0x7F18A, size: 0x8, addend: 0x0, symName: __ZN5godot32RDPipelineSpecializationConstantD1Ev.cold.1, symObjAddr: 0x4808, symBinAddr: 0xDEA0C, symSize: 0x1C }
  - { offset: 0x7F19E, size: 0x8, addend: 0x0, symName: __ZN5godot32RDPipelineSpecializationConstantD1Ev.cold.1, symObjAddr: 0x4808, symBinAddr: 0xDEA0C, symSize: 0x1C }
  - { offset: 0x7F1B3, size: 0x8, addend: 0x0, symName: __ZN5godot32RDPipelineSpecializationConstantD1Ev.cold.1, symObjAddr: 0x4808, symBinAddr: 0xDEA0C, symSize: 0x1C }
  - { offset: 0x7F1E7, size: 0x8, addend: 0x0, symName: __ZN5godot32RDPipelineSpecializationConstantD0Ev, symObjAddr: 0x3774, symBinAddr: 0x114B0, symSize: 0x74 }
  - { offset: 0x7F332, size: 0x8, addend: 0x0, symName: __ZN5godot32RDPipelineSpecializationConstantD0Ev.cold.1, symObjAddr: 0x4824, symBinAddr: 0xDEA28, symSize: 0x1C }
  - { offset: 0x7F34D, size: 0x8, addend: 0x0, symName: __ZN5godot32RDPipelineSpecializationConstantD0Ev.cold.1, symObjAddr: 0x4824, symBinAddr: 0xDEA28, symSize: 0x1C }
  - { offset: 0x7F361, size: 0x8, addend: 0x0, symName: __ZN5godot32RDPipelineSpecializationConstantD0Ev.cold.1, symObjAddr: 0x4824, symBinAddr: 0xDEA28, symSize: 0x1C }
  - { offset: 0x7F375, size: 0x8, addend: 0x0, symName: __ZN5godot32RDPipelineSpecializationConstantD0Ev.cold.1, symObjAddr: 0x4824, symBinAddr: 0xDEA28, symSize: 0x1C }
  - { offset: 0x7F389, size: 0x8, addend: 0x0, symName: __ZN5godot32RDPipelineSpecializationConstantD0Ev.cold.1, symObjAddr: 0x4824, symBinAddr: 0xDEA28, symSize: 0x1C }
  - { offset: 0x7F39D, size: 0x8, addend: 0x0, symName: __ZN5godot32RDPipelineSpecializationConstantD0Ev.cold.1, symObjAddr: 0x4824, symBinAddr: 0xDEA28, symSize: 0x1C }
  - { offset: 0x7F3B1, size: 0x8, addend: 0x0, symName: __ZN5godot32RDPipelineSpecializationConstantD0Ev.cold.1, symObjAddr: 0x4824, symBinAddr: 0xDEA28, symSize: 0x1C }
  - { offset: 0x7F3C6, size: 0x8, addend: 0x0, symName: __ZN5godot32RDPipelineSpecializationConstantD0Ev.cold.1, symObjAddr: 0x4824, symBinAddr: 0xDEA28, symSize: 0x1C }
  - { offset: 0x7F3E6, size: 0x8, addend: 0x0, symName: __ZN5godot8internal23EngineClassRegistrationINS_15RenderingDeviceEE8callbackEv, symObjAddr: 0x37E8, symBinAddr: 0x11524, symSize: 0x48 }
  - { offset: 0x7F430, size: 0x8, addend: 0x0, symName: __ZN5godot8internal23EngineClassRegistrationINS_15RenderingDeviceEE8callbackEv.cold.1, symObjAddr: 0x4840, symBinAddr: 0xDEA44, symSize: 0x5C }
  - { offset: 0x7F4A8, size: 0x8, addend: 0x0, symName: __ZN5godot15RenderingDevice28_gde_binding_create_callbackEPvS1_, symObjAddr: 0x3830, symBinAddr: 0x1156C, symSize: 0x44 }
  - { offset: 0x7F544, size: 0x8, addend: 0x0, symName: __ZN5godot15RenderingDevice26_gde_binding_free_callbackEPvS1_S1_, symObjAddr: 0x3874, symBinAddr: 0x115B0, symSize: 0x34 }
  - { offset: 0x7F599, size: 0x8, addend: 0x0, symName: __ZN5godot15RenderingDevice31_gde_binding_reference_callbackEPvS1_h, symObjAddr: 0x38A8, symBinAddr: 0x115E4, symSize: 0x8 }
  - { offset: 0x7F5F5, size: 0x8, addend: 0x0, symName: __ZN5godot15RenderingDeviceD1Ev, symObjAddr: 0x38B0, symBinAddr: 0x115EC, symSize: 0x8C }
  - { offset: 0x7F77D, size: 0x8, addend: 0x0, symName: __ZN5godot15RenderingDeviceD1Ev.cold.1, symObjAddr: 0x489C, symBinAddr: 0xDEAA0, symSize: 0x1C }
  - { offset: 0x7F798, size: 0x8, addend: 0x0, symName: __ZN5godot15RenderingDeviceD1Ev.cold.1, symObjAddr: 0x489C, symBinAddr: 0xDEAA0, symSize: 0x1C }
  - { offset: 0x7F7AC, size: 0x8, addend: 0x0, symName: __ZN5godot15RenderingDeviceD1Ev.cold.1, symObjAddr: 0x489C, symBinAddr: 0xDEAA0, symSize: 0x1C }
  - { offset: 0x7F7C0, size: 0x8, addend: 0x0, symName: __ZN5godot15RenderingDeviceD1Ev.cold.1, symObjAddr: 0x489C, symBinAddr: 0xDEAA0, symSize: 0x1C }
  - { offset: 0x7F7D4, size: 0x8, addend: 0x0, symName: __ZN5godot15RenderingDeviceD1Ev.cold.1, symObjAddr: 0x489C, symBinAddr: 0xDEAA0, symSize: 0x1C }
  - { offset: 0x7F7E9, size: 0x8, addend: 0x0, symName: __ZN5godot15RenderingDeviceD1Ev.cold.1, symObjAddr: 0x489C, symBinAddr: 0xDEAA0, symSize: 0x1C }
  - { offset: 0x7F81C, size: 0x8, addend: 0x0, symName: __ZN5godot15RenderingDeviceD0Ev, symObjAddr: 0x393C, symBinAddr: 0x11678, symSize: 0x74 }
  - { offset: 0x7F951, size: 0x8, addend: 0x0, symName: __ZN5godot15RenderingDeviceD0Ev.cold.1, symObjAddr: 0x48B8, symBinAddr: 0xDEABC, symSize: 0x1C }
  - { offset: 0x7F96C, size: 0x8, addend: 0x0, symName: __ZN5godot15RenderingDeviceD0Ev.cold.1, symObjAddr: 0x48B8, symBinAddr: 0xDEABC, symSize: 0x1C }
  - { offset: 0x7F980, size: 0x8, addend: 0x0, symName: __ZN5godot15RenderingDeviceD0Ev.cold.1, symObjAddr: 0x48B8, symBinAddr: 0xDEABC, symSize: 0x1C }
  - { offset: 0x7F994, size: 0x8, addend: 0x0, symName: __ZN5godot15RenderingDeviceD0Ev.cold.1, symObjAddr: 0x48B8, symBinAddr: 0xDEABC, symSize: 0x1C }
  - { offset: 0x7F9A8, size: 0x8, addend: 0x0, symName: __ZN5godot15RenderingDeviceD0Ev.cold.1, symObjAddr: 0x48B8, symBinAddr: 0xDEABC, symSize: 0x1C }
  - { offset: 0x7F9BC, size: 0x8, addend: 0x0, symName: __ZN5godot15RenderingDeviceD0Ev.cold.1, symObjAddr: 0x48B8, symBinAddr: 0xDEABC, symSize: 0x1C }
  - { offset: 0x7F9D1, size: 0x8, addend: 0x0, symName: __ZN5godot15RenderingDeviceD0Ev.cold.1, symObjAddr: 0x48B8, symBinAddr: 0xDEABC, symSize: 0x1C }
  - { offset: 0x7F9F0, size: 0x8, addend: 0x0, symName: __ZN5godot8internal23EngineClassRegistrationINS_15RenderingServerEE8callbackEv, symObjAddr: 0x39B0, symBinAddr: 0x116EC, symSize: 0x48 }
  - { offset: 0x7FA3A, size: 0x8, addend: 0x0, symName: __ZN5godot8internal23EngineClassRegistrationINS_15RenderingServerEE8callbackEv.cold.1, symObjAddr: 0x48D4, symBinAddr: 0xDEAD8, symSize: 0x5C }
  - { offset: 0x7FAB2, size: 0x8, addend: 0x0, symName: __ZN5godot15RenderingServer28_gde_binding_create_callbackEPvS1_, symObjAddr: 0x39F8, symBinAddr: 0x11734, symSize: 0x48 }
  - { offset: 0x7FB4E, size: 0x8, addend: 0x0, symName: __ZN5godot15RenderingServer26_gde_binding_free_callbackEPvS1_S1_, symObjAddr: 0x3A40, symBinAddr: 0x1177C, symSize: 0x34 }
  - { offset: 0x7FBA3, size: 0x8, addend: 0x0, symName: __ZN5godot15RenderingServer31_gde_binding_reference_callbackEPvS1_h, symObjAddr: 0x3A74, symBinAddr: 0x117B0, symSize: 0x8 }
  - { offset: 0x7FBEA, size: 0x8, addend: 0x0, symName: __ZN5godot8internal23EngineClassRegistrationINS_4TimeEE8callbackEv, symObjAddr: 0x3A7C, symBinAddr: 0x117B8, symSize: 0x48 }
  - { offset: 0x7FC34, size: 0x8, addend: 0x0, symName: __ZN5godot8internal23EngineClassRegistrationINS_4TimeEE8callbackEv.cold.1, symObjAddr: 0x4930, symBinAddr: 0xDEB34, symSize: 0x5C }
  - { offset: 0x7FCAC, size: 0x8, addend: 0x0, symName: __ZN5godot4Time28_gde_binding_create_callbackEPvS1_, symObjAddr: 0x3AC4, symBinAddr: 0x11800, symSize: 0x48 }
  - { offset: 0x7FD48, size: 0x8, addend: 0x0, symName: __ZN5godot4Time26_gde_binding_free_callbackEPvS1_S1_, symObjAddr: 0x3B0C, symBinAddr: 0x11848, symSize: 0x34 }
  - { offset: 0x7FD9D, size: 0x8, addend: 0x0, symName: __ZN5godot4Time31_gde_binding_reference_callbackEPvS1_h, symObjAddr: 0x3B40, symBinAddr: 0x1187C, symSize: 0x8 }
  - { offset: 0x7FE04, size: 0x8, addend: 0x0, symName: _OUTLINED_FUNCTION_0, symObjAddr: 0x498C, symBinAddr: 0x11B38, symSize: 0x10 }
  - { offset: 0x7FE1C, size: 0x8, addend: 0x0, symName: _OUTLINED_FUNCTION_1, symObjAddr: 0x499C, symBinAddr: 0x11B48, symSize: 0xC }
  - { offset: 0x7FE34, size: 0x8, addend: 0x0, symName: _OUTLINED_FUNCTION_2, symObjAddr: 0x49A8, symBinAddr: 0x11B54, symSize: 0xC }
  - { offset: 0x7FE4C, size: 0x8, addend: 0x0, symName: _OUTLINED_FUNCTION_3, symObjAddr: 0x49B4, symBinAddr: 0x11B60, symSize: 0x8 }
  - { offset: 0x7FE64, size: 0x8, addend: 0x0, symName: _OUTLINED_FUNCTION_4, symObjAddr: 0x49BC, symBinAddr: 0x11B68, symSize: 0x8 }
  - { offset: 0x7FE7C, size: 0x8, addend: 0x0, symName: _OUTLINED_FUNCTION_5, symObjAddr: 0x49C4, symBinAddr: 0x11B70, symSize: 0x8 }
  - { offset: 0x7FE94, size: 0x8, addend: 0x0, symName: _OUTLINED_FUNCTION_6, symObjAddr: 0x49CC, symBinAddr: 0x11B78, symSize: 0xC }
  - { offset: 0x7FEAC, size: 0x8, addend: 0x0, symName: _OUTLINED_FUNCTION_7, symObjAddr: 0x49D8, symBinAddr: 0x11B84, symSize: 0xC }
  - { offset: 0x83714, size: 0x8, addend: 0x0, symName: ___cxx_global_var_init, symObjAddr: 0xCA8, symBinAddr: 0x12220, symSize: 0x4C }
  - { offset: 0x83799, size: 0x8, addend: 0x0, symName: ___cxx_global_var_init.1, symObjAddr: 0xCF4, symBinAddr: 0x1226C, symSize: 0x4C }
  - { offset: 0x8381E, size: 0x8, addend: 0x0, symName: ___cxx_global_var_init.2, symObjAddr: 0xD40, symBinAddr: 0x122B8, symSize: 0x4C }
  - { offset: 0x838A3, size: 0x8, addend: 0x0, symName: ___cxx_global_var_init.3, symObjAddr: 0xD8C, symBinAddr: 0x12304, symSize: 0x4C }
  - { offset: 0x83928, size: 0x8, addend: 0x0, symName: ___cxx_global_var_init.4, symObjAddr: 0xDD8, symBinAddr: 0x12350, symSize: 0x4C }
  - { offset: 0x8397E, size: 0x8, addend: 0x0, symName: __ZN6sentry11environment24detect_godot_environmentEv, symObjAddr: 0x0, symBinAddr: 0x1209C, symSize: 0x138 }
  - { offset: 0x839C9, size: 0x8, addend: 0x0, symName: __ZN6sentry11environment24detect_godot_environmentEv.cold.2, symObjAddr: 0x960, symBinAddr: 0xDEBD8, symSize: 0x48 }
  - { offset: 0x839E1, size: 0x8, addend: 0x0, symName: __ZN6sentry11environment24detect_godot_environmentEv.cold.1, symObjAddr: 0x918, symBinAddr: 0xDEB90, symSize: 0x48 }
  - { offset: 0x83A00, size: 0x8, addend: 0x0, symName: __ZN5godot8internal23EngineClassRegistrationINS_6ObjectEE8callbackEv.cold.1, symObjAddr: 0x9A8, symBinAddr: 0xDEC20, symSize: 0x5C }
  - { offset: 0x83A9B, size: 0x8, addend: 0x0, symName: __ZN5godot6ObjectD1Ev.cold.1, symObjAddr: 0xA04, symBinAddr: 0xDEC7C, symSize: 0x1C }
  - { offset: 0x83AB6, size: 0x8, addend: 0x0, symName: __ZN5godot6ObjectD1Ev.cold.1, symObjAddr: 0xA04, symBinAddr: 0xDEC7C, symSize: 0x1C }
  - { offset: 0x83ACA, size: 0x8, addend: 0x0, symName: __ZN5godot6ObjectD1Ev.cold.1, symObjAddr: 0xA04, symBinAddr: 0xDEC7C, symSize: 0x1C }
  - { offset: 0x83ADE, size: 0x8, addend: 0x0, symName: __ZN5godot6ObjectD1Ev.cold.1, symObjAddr: 0xA04, symBinAddr: 0xDEC7C, symSize: 0x1C }
  - { offset: 0x83AF3, size: 0x8, addend: 0x0, symName: __ZN5godot6ObjectD1Ev.cold.1, symObjAddr: 0xA04, symBinAddr: 0xDEC7C, symSize: 0x1C }
  - { offset: 0x83B23, size: 0x8, addend: 0x0, symName: __ZN5godot6ObjectD0Ev.cold.1, symObjAddr: 0xA20, symBinAddr: 0xDEC98, symSize: 0x1C }
  - { offset: 0x83B3E, size: 0x8, addend: 0x0, symName: __ZN5godot6ObjectD0Ev.cold.1, symObjAddr: 0xA20, symBinAddr: 0xDEC98, symSize: 0x1C }
  - { offset: 0x83B52, size: 0x8, addend: 0x0, symName: __ZN5godot6ObjectD0Ev.cold.1, symObjAddr: 0xA20, symBinAddr: 0xDEC98, symSize: 0x1C }
  - { offset: 0x83B66, size: 0x8, addend: 0x0, symName: __ZN5godot6ObjectD0Ev.cold.1, symObjAddr: 0xA20, symBinAddr: 0xDEC98, symSize: 0x1C }
  - { offset: 0x83B7A, size: 0x8, addend: 0x0, symName: __ZN5godot6ObjectD0Ev.cold.1, symObjAddr: 0xA20, symBinAddr: 0xDEC98, symSize: 0x1C }
  - { offset: 0x83B8F, size: 0x8, addend: 0x0, symName: __ZN5godot6ObjectD0Ev.cold.1, symObjAddr: 0xA20, symBinAddr: 0xDEC98, symSize: 0x1C }
  - { offset: 0x83BA6, size: 0x8, addend: 0x0, symName: __ZN5godot7WrappedD1Ev.cold.1, symObjAddr: 0xA3C, symBinAddr: 0xDECB4, symSize: 0x1C }
  - { offset: 0x83BC1, size: 0x8, addend: 0x0, symName: __ZN5godot7WrappedD1Ev.cold.1, symObjAddr: 0xA3C, symBinAddr: 0xDECB4, symSize: 0x1C }
  - { offset: 0x83BD5, size: 0x8, addend: 0x0, symName: __ZN5godot7WrappedD1Ev.cold.1, symObjAddr: 0xA3C, symBinAddr: 0xDECB4, symSize: 0x1C }
  - { offset: 0x83BEA, size: 0x8, addend: 0x0, symName: __ZN5godot7WrappedD1Ev.cold.1, symObjAddr: 0xA3C, symBinAddr: 0xDECB4, symSize: 0x1C }
  - { offset: 0x83C19, size: 0x8, addend: 0x0, symName: __ZN5godot7WrappedD0Ev.cold.1, symObjAddr: 0xA58, symBinAddr: 0xDECD0, symSize: 0x1C }
  - { offset: 0x83C34, size: 0x8, addend: 0x0, symName: __ZN5godot7WrappedD0Ev.cold.1, symObjAddr: 0xA58, symBinAddr: 0xDECD0, symSize: 0x1C }
  - { offset: 0x83C48, size: 0x8, addend: 0x0, symName: __ZN5godot7WrappedD0Ev.cold.1, symObjAddr: 0xA58, symBinAddr: 0xDECD0, symSize: 0x1C }
  - { offset: 0x83C5C, size: 0x8, addend: 0x0, symName: __ZN5godot7WrappedD0Ev.cold.1, symObjAddr: 0xA58, symBinAddr: 0xDECD0, symSize: 0x1C }
  - { offset: 0x83C71, size: 0x8, addend: 0x0, symName: __ZN5godot7WrappedD0Ev.cold.1, symObjAddr: 0xA58, symBinAddr: 0xDECD0, symSize: 0x1C }
  - { offset: 0x83C87, size: 0x8, addend: 0x0, symName: __ZN5godot4ListINS_12PropertyInfoENS_16DefaultAllocatorEE5_Data5eraseEPNS3_7ElementE.cold.2, symObjAddr: 0xA94, symBinAddr: 0xDED0C, symSize: 0x20 }
  - { offset: 0x83C9F, size: 0x8, addend: 0x0, symName: __ZN5godot4ListINS_12PropertyInfoENS_16DefaultAllocatorEE5_Data5eraseEPNS3_7ElementE.cold.1, symObjAddr: 0xA74, symBinAddr: 0xDECEC, symSize: 0x20 }
  - { offset: 0x83CBE, size: 0x8, addend: 0x0, symName: __ZN5godot8internal23EngineClassRegistrationINS_16ClassDBSingletonEE8callbackEv.cold.1, symObjAddr: 0xAB4, symBinAddr: 0xDED2C, symSize: 0x5C }
  - { offset: 0x83CF3, size: 0x8, addend: 0x0, symName: __ZN5godot8internal23EngineClassRegistrationINS_6EngineEE8callbackEv.cold.1, symObjAddr: 0xB10, symBinAddr: 0xDED88, symSize: 0x5C }
  - { offset: 0x83D28, size: 0x8, addend: 0x0, symName: __ZN5godot8internal23EngineClassRegistrationINS_10RefCountedEE8callbackEv.cold.1, symObjAddr: 0xB6C, symBinAddr: 0xDEDE4, symSize: 0x5C }
  - { offset: 0x83D72, size: 0x8, addend: 0x0, symName: __ZN5godot10RefCountedD1Ev.cold.1, symObjAddr: 0xBC8, symBinAddr: 0xDEE40, symSize: 0x1C }
  - { offset: 0x83D8D, size: 0x8, addend: 0x0, symName: __ZN5godot10RefCountedD1Ev.cold.1, symObjAddr: 0xBC8, symBinAddr: 0xDEE40, symSize: 0x1C }
  - { offset: 0x83DA1, size: 0x8, addend: 0x0, symName: __ZN5godot10RefCountedD1Ev.cold.1, symObjAddr: 0xBC8, symBinAddr: 0xDEE40, symSize: 0x1C }
  - { offset: 0x83DB5, size: 0x8, addend: 0x0, symName: __ZN5godot10RefCountedD1Ev.cold.1, symObjAddr: 0xBC8, symBinAddr: 0xDEE40, symSize: 0x1C }
  - { offset: 0x83DC9, size: 0x8, addend: 0x0, symName: __ZN5godot10RefCountedD1Ev.cold.1, symObjAddr: 0xBC8, symBinAddr: 0xDEE40, symSize: 0x1C }
  - { offset: 0x83DDE, size: 0x8, addend: 0x0, symName: __ZN5godot10RefCountedD1Ev.cold.1, symObjAddr: 0xBC8, symBinAddr: 0xDEE40, symSize: 0x1C }
  - { offset: 0x83E11, size: 0x8, addend: 0x0, symName: __ZN5godot10RefCountedD0Ev.cold.1, symObjAddr: 0xBE4, symBinAddr: 0xDEE5C, symSize: 0x1C }
  - { offset: 0x83E2C, size: 0x8, addend: 0x0, symName: __ZN5godot10RefCountedD0Ev.cold.1, symObjAddr: 0xBE4, symBinAddr: 0xDEE5C, symSize: 0x1C }
  - { offset: 0x83E40, size: 0x8, addend: 0x0, symName: __ZN5godot10RefCountedD0Ev.cold.1, symObjAddr: 0xBE4, symBinAddr: 0xDEE5C, symSize: 0x1C }
  - { offset: 0x83E54, size: 0x8, addend: 0x0, symName: __ZN5godot10RefCountedD0Ev.cold.1, symObjAddr: 0xBE4, symBinAddr: 0xDEE5C, symSize: 0x1C }
  - { offset: 0x83E68, size: 0x8, addend: 0x0, symName: __ZN5godot10RefCountedD0Ev.cold.1, symObjAddr: 0xBE4, symBinAddr: 0xDEE5C, symSize: 0x1C }
  - { offset: 0x83E7C, size: 0x8, addend: 0x0, symName: __ZN5godot10RefCountedD0Ev.cold.1, symObjAddr: 0xBE4, symBinAddr: 0xDEE5C, symSize: 0x1C }
  - { offset: 0x83E91, size: 0x8, addend: 0x0, symName: __ZN5godot10RefCountedD0Ev.cold.1, symObjAddr: 0xBE4, symBinAddr: 0xDEE5C, symSize: 0x1C }
  - { offset: 0x83EB0, size: 0x8, addend: 0x0, symName: __ZN5godot8internal23EngineClassRegistrationINS_2OSEE8callbackEv.cold.1, symObjAddr: 0xC00, symBinAddr: 0xDEE78, symSize: 0x5C }
  - { offset: 0x83EDE, size: 0x8, addend: 0x0, symName: _OUTLINED_FUNCTION_0, symObjAddr: 0xC5C, symBinAddr: 0x121D4, symSize: 0x10 }
  - { offset: 0x83EF6, size: 0x8, addend: 0x0, symName: _OUTLINED_FUNCTION_1, symObjAddr: 0xC6C, symBinAddr: 0x121E4, symSize: 0xC }
  - { offset: 0x83F0E, size: 0x8, addend: 0x0, symName: _OUTLINED_FUNCTION_2, symObjAddr: 0xC78, symBinAddr: 0x121F0, symSize: 0xC }
  - { offset: 0x83F26, size: 0x8, addend: 0x0, symName: _OUTLINED_FUNCTION_3, symObjAddr: 0xC84, symBinAddr: 0x121FC, symSize: 0x8 }
  - { offset: 0x83F3E, size: 0x8, addend: 0x0, symName: _OUTLINED_FUNCTION_4, symObjAddr: 0xC8C, symBinAddr: 0x12204, symSize: 0x8 }
  - { offset: 0x83F56, size: 0x8, addend: 0x0, symName: _OUTLINED_FUNCTION_5, symObjAddr: 0xC94, symBinAddr: 0x1220C, symSize: 0x8 }
  - { offset: 0x83F6E, size: 0x8, addend: 0x0, symName: _OUTLINED_FUNCTION_6, symObjAddr: 0xC9C, symBinAddr: 0x12214, symSize: 0xC }
  - { offset: 0x89B21, size: 0x8, addend: 0x0, symName: __ZN6sentry16level_as_cstringENS_5LevelE, symObjAddr: 0x0, symBinAddr: 0x1239C, symSize: 0x30 }
  - { offset: 0x89B94, size: 0x8, addend: 0x0, symName: __ZN6sentry24make_level_enum_propertyERKN5godot6StringE, symObjAddr: 0x30, symBinAddr: 0x123CC, symSize: 0x108 }
  - { offset: 0x89C7B, size: 0x8, addend: 0x0, symName: __ZN6sentry4util5printIJEEEvNS_5LevelERKN5godot7VariantEDpRKT_, symObjAddr: 0x904, symBinAddr: 0x1258C, symSize: 0x200 }
  - { offset: 0x89F89, size: 0x8, addend: 0x0, symName: __ZN6sentry12int_to_levelEi, symObjAddr: 0x138, symBinAddr: 0x124D4, symSize: 0xB8 }
  - { offset: 0x8A0D0, size: 0x8, addend: 0x0, symName: ___cxx_global_var_init, symObjAddr: 0xD9C, symBinAddr: 0x127CC, symSize: 0x4C }
  - { offset: 0x8A155, size: 0x8, addend: 0x0, symName: ___cxx_global_var_init.1, symObjAddr: 0xDE8, symBinAddr: 0x12818, symSize: 0x4C }
  - { offset: 0x8A1DA, size: 0x8, addend: 0x0, symName: ___cxx_global_var_init.2, symObjAddr: 0xE34, symBinAddr: 0x12864, symSize: 0x4C }
  - { offset: 0x8A25F, size: 0x8, addend: 0x0, symName: ___cxx_global_var_init.3, symObjAddr: 0xE80, symBinAddr: 0x128B0, symSize: 0x4C }
  - { offset: 0x8A3F2, size: 0x8, addend: 0x0, symName: __ZN5godot8internal23EngineClassRegistrationINS_6ObjectEE8callbackEv.cold.1, symObjAddr: 0xB04, symBinAddr: 0xDEED4, symSize: 0x5C }
  - { offset: 0x8A48D, size: 0x8, addend: 0x0, symName: __ZN5godot6ObjectD1Ev.cold.1, symObjAddr: 0xB60, symBinAddr: 0xDEF30, symSize: 0x1C }
  - { offset: 0x8A4A8, size: 0x8, addend: 0x0, symName: __ZN5godot6ObjectD1Ev.cold.1, symObjAddr: 0xB60, symBinAddr: 0xDEF30, symSize: 0x1C }
  - { offset: 0x8A4BC, size: 0x8, addend: 0x0, symName: __ZN5godot6ObjectD1Ev.cold.1, symObjAddr: 0xB60, symBinAddr: 0xDEF30, symSize: 0x1C }
  - { offset: 0x8A4D0, size: 0x8, addend: 0x0, symName: __ZN5godot6ObjectD1Ev.cold.1, symObjAddr: 0xB60, symBinAddr: 0xDEF30, symSize: 0x1C }
  - { offset: 0x8A4E5, size: 0x8, addend: 0x0, symName: __ZN5godot6ObjectD1Ev.cold.1, symObjAddr: 0xB60, symBinAddr: 0xDEF30, symSize: 0x1C }
  - { offset: 0x8A515, size: 0x8, addend: 0x0, symName: __ZN5godot6ObjectD0Ev.cold.1, symObjAddr: 0xB7C, symBinAddr: 0xDEF4C, symSize: 0x1C }
  - { offset: 0x8A530, size: 0x8, addend: 0x0, symName: __ZN5godot6ObjectD0Ev.cold.1, symObjAddr: 0xB7C, symBinAddr: 0xDEF4C, symSize: 0x1C }
  - { offset: 0x8A544, size: 0x8, addend: 0x0, symName: __ZN5godot6ObjectD0Ev.cold.1, symObjAddr: 0xB7C, symBinAddr: 0xDEF4C, symSize: 0x1C }
  - { offset: 0x8A558, size: 0x8, addend: 0x0, symName: __ZN5godot6ObjectD0Ev.cold.1, symObjAddr: 0xB7C, symBinAddr: 0xDEF4C, symSize: 0x1C }
  - { offset: 0x8A56C, size: 0x8, addend: 0x0, symName: __ZN5godot6ObjectD0Ev.cold.1, symObjAddr: 0xB7C, symBinAddr: 0xDEF4C, symSize: 0x1C }
  - { offset: 0x8A581, size: 0x8, addend: 0x0, symName: __ZN5godot6ObjectD0Ev.cold.1, symObjAddr: 0xB7C, symBinAddr: 0xDEF4C, symSize: 0x1C }
  - { offset: 0x8A598, size: 0x8, addend: 0x0, symName: __ZN5godot7WrappedD1Ev.cold.1, symObjAddr: 0xB98, symBinAddr: 0xDEF68, symSize: 0x1C }
  - { offset: 0x8A5B3, size: 0x8, addend: 0x0, symName: __ZN5godot7WrappedD1Ev.cold.1, symObjAddr: 0xB98, symBinAddr: 0xDEF68, symSize: 0x1C }
  - { offset: 0x8A5C7, size: 0x8, addend: 0x0, symName: __ZN5godot7WrappedD1Ev.cold.1, symObjAddr: 0xB98, symBinAddr: 0xDEF68, symSize: 0x1C }
  - { offset: 0x8A5DC, size: 0x8, addend: 0x0, symName: __ZN5godot7WrappedD1Ev.cold.1, symObjAddr: 0xB98, symBinAddr: 0xDEF68, symSize: 0x1C }
  - { offset: 0x8A60B, size: 0x8, addend: 0x0, symName: __ZN5godot7WrappedD0Ev.cold.1, symObjAddr: 0xBB4, symBinAddr: 0xDEF84, symSize: 0x1C }
  - { offset: 0x8A626, size: 0x8, addend: 0x0, symName: __ZN5godot7WrappedD0Ev.cold.1, symObjAddr: 0xBB4, symBinAddr: 0xDEF84, symSize: 0x1C }
  - { offset: 0x8A63A, size: 0x8, addend: 0x0, symName: __ZN5godot7WrappedD0Ev.cold.1, symObjAddr: 0xBB4, symBinAddr: 0xDEF84, symSize: 0x1C }
  - { offset: 0x8A64E, size: 0x8, addend: 0x0, symName: __ZN5godot7WrappedD0Ev.cold.1, symObjAddr: 0xBB4, symBinAddr: 0xDEF84, symSize: 0x1C }
  - { offset: 0x8A663, size: 0x8, addend: 0x0, symName: __ZN5godot7WrappedD0Ev.cold.1, symObjAddr: 0xBB4, symBinAddr: 0xDEF84, symSize: 0x1C }
  - { offset: 0x8A679, size: 0x8, addend: 0x0, symName: __ZN5godot4ListINS_12PropertyInfoENS_16DefaultAllocatorEE5_Data5eraseEPNS3_7ElementE.cold.2, symObjAddr: 0xBF0, symBinAddr: 0xDEFC0, symSize: 0x20 }
  - { offset: 0x8A691, size: 0x8, addend: 0x0, symName: __ZN5godot4ListINS_12PropertyInfoENS_16DefaultAllocatorEE5_Data5eraseEPNS3_7ElementE.cold.1, symObjAddr: 0xBD0, symBinAddr: 0xDEFA0, symSize: 0x20 }
  - { offset: 0x8A6B0, size: 0x8, addend: 0x0, symName: __ZN5godot8internal23EngineClassRegistrationINS_16ClassDBSingletonEE8callbackEv.cold.1, symObjAddr: 0xC10, symBinAddr: 0xDEFE0, symSize: 0x5C }
  - { offset: 0x8A6E5, size: 0x8, addend: 0x0, symName: __ZN5godot8internal23EngineClassRegistrationINS_10RefCountedEE8callbackEv.cold.1, symObjAddr: 0xC6C, symBinAddr: 0xDF03C, symSize: 0x5C }
  - { offset: 0x8A72F, size: 0x8, addend: 0x0, symName: __ZN5godot10RefCountedD1Ev.cold.1, symObjAddr: 0xCC8, symBinAddr: 0xDF098, symSize: 0x1C }
  - { offset: 0x8A74A, size: 0x8, addend: 0x0, symName: __ZN5godot10RefCountedD1Ev.cold.1, symObjAddr: 0xCC8, symBinAddr: 0xDF098, symSize: 0x1C }
  - { offset: 0x8A75E, size: 0x8, addend: 0x0, symName: __ZN5godot10RefCountedD1Ev.cold.1, symObjAddr: 0xCC8, symBinAddr: 0xDF098, symSize: 0x1C }
  - { offset: 0x8A772, size: 0x8, addend: 0x0, symName: __ZN5godot10RefCountedD1Ev.cold.1, symObjAddr: 0xCC8, symBinAddr: 0xDF098, symSize: 0x1C }
  - { offset: 0x8A786, size: 0x8, addend: 0x0, symName: __ZN5godot10RefCountedD1Ev.cold.1, symObjAddr: 0xCC8, symBinAddr: 0xDF098, symSize: 0x1C }
  - { offset: 0x8A79B, size: 0x8, addend: 0x0, symName: __ZN5godot10RefCountedD1Ev.cold.1, symObjAddr: 0xCC8, symBinAddr: 0xDF098, symSize: 0x1C }
  - { offset: 0x8A7CE, size: 0x8, addend: 0x0, symName: __ZN5godot10RefCountedD0Ev.cold.1, symObjAddr: 0xCE4, symBinAddr: 0xDF0B4, symSize: 0x1C }
  - { offset: 0x8A7E9, size: 0x8, addend: 0x0, symName: __ZN5godot10RefCountedD0Ev.cold.1, symObjAddr: 0xCE4, symBinAddr: 0xDF0B4, symSize: 0x1C }
  - { offset: 0x8A7FD, size: 0x8, addend: 0x0, symName: __ZN5godot10RefCountedD0Ev.cold.1, symObjAddr: 0xCE4, symBinAddr: 0xDF0B4, symSize: 0x1C }
  - { offset: 0x8A811, size: 0x8, addend: 0x0, symName: __ZN5godot10RefCountedD0Ev.cold.1, symObjAddr: 0xCE4, symBinAddr: 0xDF0B4, symSize: 0x1C }
  - { offset: 0x8A825, size: 0x8, addend: 0x0, symName: __ZN5godot10RefCountedD0Ev.cold.1, symObjAddr: 0xCE4, symBinAddr: 0xDF0B4, symSize: 0x1C }
  - { offset: 0x8A839, size: 0x8, addend: 0x0, symName: __ZN5godot10RefCountedD0Ev.cold.1, symObjAddr: 0xCE4, symBinAddr: 0xDF0B4, symSize: 0x1C }
  - { offset: 0x8A84E, size: 0x8, addend: 0x0, symName: __ZN5godot10RefCountedD0Ev.cold.1, symObjAddr: 0xCE4, symBinAddr: 0xDF0B4, symSize: 0x1C }
  - { offset: 0x8A86D, size: 0x8, addend: 0x0, symName: __ZN5godot8internal23EngineClassRegistrationINS_6LoggerEE8callbackEv.cold.1, symObjAddr: 0xD00, symBinAddr: 0xDF0D0, symSize: 0x5C }
  - { offset: 0x8AACA, size: 0x8, addend: 0x0, symName: _OUTLINED_FUNCTION_0, symObjAddr: 0xD5C, symBinAddr: 0x1278C, symSize: 0x10 }
  - { offset: 0x8AAE2, size: 0x8, addend: 0x0, symName: _OUTLINED_FUNCTION_1, symObjAddr: 0xD6C, symBinAddr: 0x1279C, symSize: 0xC }
  - { offset: 0x8AAFA, size: 0x8, addend: 0x0, symName: _OUTLINED_FUNCTION_2, symObjAddr: 0xD78, symBinAddr: 0x127A8, symSize: 0xC }
  - { offset: 0x8AB12, size: 0x8, addend: 0x0, symName: _OUTLINED_FUNCTION_3, symObjAddr: 0xD84, symBinAddr: 0x127B4, symSize: 0x8 }
  - { offset: 0x8AB2A, size: 0x8, addend: 0x0, symName: _OUTLINED_FUNCTION_4, symObjAddr: 0xD8C, symBinAddr: 0x127BC, symSize: 0x8 }
  - { offset: 0x8AB42, size: 0x8, addend: 0x0, symName: _OUTLINED_FUNCTION_5, symObjAddr: 0xD94, symBinAddr: 0x127C4, symSize: 0x8 }
  - { offset: 0x8F0E8, size: 0x8, addend: 0x0, symName: ___cxx_global_var_init, symObjAddr: 0x1178, symBinAddr: 0x12F78, symSize: 0x4C }
  - { offset: 0x8F16D, size: 0x8, addend: 0x0, symName: ___cxx_global_var_init.1, symObjAddr: 0x11C4, symBinAddr: 0x12FC4, symSize: 0x4C }
  - { offset: 0x8F1F2, size: 0x8, addend: 0x0, symName: ___cxx_global_var_init.2, symObjAddr: 0x1210, symBinAddr: 0x13010, symSize: 0x4C }
  - { offset: 0x8F277, size: 0x8, addend: 0x0, symName: ___cxx_global_var_init.3, symObjAddr: 0x125C, symBinAddr: 0x1305C, symSize: 0x4C }
  - { offset: 0x8F651, size: 0x8, addend: 0x0, symName: __ZN6sentry13RuntimeConfig19set_installation_idERKN5godot6StringE, symObjAddr: 0x0, symBinAddr: 0x128FC, symSize: 0x104 }
  - { offset: 0x8F6D2, size: 0x8, addend: 0x0, symName: __ZN6sentry13RuntimeConfig19set_installation_idERKN5godot6StringE.cold.1, symObjAddr: 0xE4C, symBinAddr: 0xDF12C, symSize: 0x20 }
  - { offset: 0x8F73A, size: 0x8, addend: 0x0, symName: __ZN6sentry13RuntimeConfig9load_fileERKN5godot6StringE, symObjAddr: 0x104, symBinAddr: 0x12A00, symSize: 0x19C }
  - { offset: 0x8F839, size: 0x8, addend: 0x0, symName: __ZN6sentry13RuntimeConfig9load_fileERKN5godot6StringE.cold.1, symObjAddr: 0xE6C, symBinAddr: 0xDF14C, symSize: 0x20 }
  - { offset: 0x8F8EE, size: 0x8, addend: 0x0, symName: __ZN6sentry13RuntimeConfigC2Ev, symObjAddr: 0x2A0, symBinAddr: 0x12B9C, symSize: 0xB4 }
  - { offset: 0x8F9B5, size: 0x8, addend: 0x0, symName: __ZN5godot3RefINS_10ConfigFileEE11instantiateEv, symObjAddr: 0x354, symBinAddr: 0x12C50, symSize: 0x144 }
  - { offset: 0x8FD4C, size: 0x8, addend: 0x0, symName: __ZN6sentry13RuntimeConfigC1Ev, symObjAddr: 0x498, symBinAddr: 0x12D94, symSize: 0xB4 }
  - { offset: 0x8FE3A, size: 0x8, addend: 0x0, symName: __ZNK6sentry13RuntimeConfig19_is_extension_classEv, symObjAddr: 0x54C, symBinAddr: 0x12E48, symSize: 0x8 }
  - { offset: 0x8FE61, size: 0x8, addend: 0x0, symName: __ZN6sentry13RuntimeConfigD1Ev, symObjAddr: 0x554, symBinAddr: 0x12E50, symSize: 0x4 }
  - { offset: 0x8FE84, size: 0x8, addend: 0x0, symName: __ZN6sentry13RuntimeConfigD1Ev, symObjAddr: 0x554, symBinAddr: 0x12E50, symSize: 0x4 }
  - { offset: 0x8FE97, size: 0x8, addend: 0x0, symName: __ZN6sentry13RuntimeConfigD2Ev, symObjAddr: 0xD7C, symBinAddr: 0x12E68, symSize: 0xD0 }
  - { offset: 0x900C8, size: 0x8, addend: 0x0, symName: __ZN6sentry13RuntimeConfigD0Ev, symObjAddr: 0x558, symBinAddr: 0x12E54, symSize: 0x14 }
  - { offset: 0x902B5, size: 0x8, addend: 0x0, symName: __ZN5godot10RefCountedD1Ev.cold.1, symObjAddr: 0xE8C, symBinAddr: 0xDF16C, symSize: 0x1C }
  - { offset: 0x902D0, size: 0x8, addend: 0x0, symName: __ZN5godot10RefCountedD1Ev.cold.1, symObjAddr: 0xE8C, symBinAddr: 0xDF16C, symSize: 0x1C }
  - { offset: 0x902E4, size: 0x8, addend: 0x0, symName: __ZN5godot10RefCountedD1Ev.cold.1, symObjAddr: 0xE8C, symBinAddr: 0xDF16C, symSize: 0x1C }
  - { offset: 0x902F8, size: 0x8, addend: 0x0, symName: __ZN5godot10RefCountedD1Ev.cold.1, symObjAddr: 0xE8C, symBinAddr: 0xDF16C, symSize: 0x1C }
  - { offset: 0x9030C, size: 0x8, addend: 0x0, symName: __ZN5godot10RefCountedD1Ev.cold.1, symObjAddr: 0xE8C, symBinAddr: 0xDF16C, symSize: 0x1C }
  - { offset: 0x90321, size: 0x8, addend: 0x0, symName: __ZN5godot10RefCountedD1Ev.cold.1, symObjAddr: 0xE8C, symBinAddr: 0xDF16C, symSize: 0x1C }
  - { offset: 0x90354, size: 0x8, addend: 0x0, symName: __ZN5godot10RefCountedD0Ev.cold.1, symObjAddr: 0xEA8, symBinAddr: 0xDF188, symSize: 0x1C }
  - { offset: 0x9036F, size: 0x8, addend: 0x0, symName: __ZN5godot10RefCountedD0Ev.cold.1, symObjAddr: 0xEA8, symBinAddr: 0xDF188, symSize: 0x1C }
  - { offset: 0x90383, size: 0x8, addend: 0x0, symName: __ZN5godot10RefCountedD0Ev.cold.1, symObjAddr: 0xEA8, symBinAddr: 0xDF188, symSize: 0x1C }
  - { offset: 0x90397, size: 0x8, addend: 0x0, symName: __ZN5godot10RefCountedD0Ev.cold.1, symObjAddr: 0xEA8, symBinAddr: 0xDF188, symSize: 0x1C }
  - { offset: 0x903AB, size: 0x8, addend: 0x0, symName: __ZN5godot10RefCountedD0Ev.cold.1, symObjAddr: 0xEA8, symBinAddr: 0xDF188, symSize: 0x1C }
  - { offset: 0x903BF, size: 0x8, addend: 0x0, symName: __ZN5godot10RefCountedD0Ev.cold.1, symObjAddr: 0xEA8, symBinAddr: 0xDF188, symSize: 0x1C }
  - { offset: 0x903D4, size: 0x8, addend: 0x0, symName: __ZN5godot10RefCountedD0Ev.cold.1, symObjAddr: 0xEA8, symBinAddr: 0xDF188, symSize: 0x1C }
  - { offset: 0x903EC, size: 0x8, addend: 0x0, symName: __ZN5godot6ObjectD1Ev.cold.1, symObjAddr: 0xEC4, symBinAddr: 0xDF1A4, symSize: 0x1C }
  - { offset: 0x90407, size: 0x8, addend: 0x0, symName: __ZN5godot6ObjectD1Ev.cold.1, symObjAddr: 0xEC4, symBinAddr: 0xDF1A4, symSize: 0x1C }
  - { offset: 0x9041B, size: 0x8, addend: 0x0, symName: __ZN5godot6ObjectD1Ev.cold.1, symObjAddr: 0xEC4, symBinAddr: 0xDF1A4, symSize: 0x1C }
  - { offset: 0x9042F, size: 0x8, addend: 0x0, symName: __ZN5godot6ObjectD1Ev.cold.1, symObjAddr: 0xEC4, symBinAddr: 0xDF1A4, symSize: 0x1C }
  - { offset: 0x90444, size: 0x8, addend: 0x0, symName: __ZN5godot6ObjectD1Ev.cold.1, symObjAddr: 0xEC4, symBinAddr: 0xDF1A4, symSize: 0x1C }
  - { offset: 0x90474, size: 0x8, addend: 0x0, symName: __ZN5godot6ObjectD0Ev.cold.1, symObjAddr: 0xEE0, symBinAddr: 0xDF1C0, symSize: 0x1C }
  - { offset: 0x9048F, size: 0x8, addend: 0x0, symName: __ZN5godot6ObjectD0Ev.cold.1, symObjAddr: 0xEE0, symBinAddr: 0xDF1C0, symSize: 0x1C }
  - { offset: 0x904A3, size: 0x8, addend: 0x0, symName: __ZN5godot6ObjectD0Ev.cold.1, symObjAddr: 0xEE0, symBinAddr: 0xDF1C0, symSize: 0x1C }
  - { offset: 0x904B7, size: 0x8, addend: 0x0, symName: __ZN5godot6ObjectD0Ev.cold.1, symObjAddr: 0xEE0, symBinAddr: 0xDF1C0, symSize: 0x1C }
  - { offset: 0x904CB, size: 0x8, addend: 0x0, symName: __ZN5godot6ObjectD0Ev.cold.1, symObjAddr: 0xEE0, symBinAddr: 0xDF1C0, symSize: 0x1C }
  - { offset: 0x904E0, size: 0x8, addend: 0x0, symName: __ZN5godot6ObjectD0Ev.cold.1, symObjAddr: 0xEE0, symBinAddr: 0xDF1C0, symSize: 0x1C }
  - { offset: 0x904F7, size: 0x8, addend: 0x0, symName: __ZN5godot7WrappedD1Ev.cold.1, symObjAddr: 0xEFC, symBinAddr: 0xDF1DC, symSize: 0x1C }
  - { offset: 0x90512, size: 0x8, addend: 0x0, symName: __ZN5godot7WrappedD1Ev.cold.1, symObjAddr: 0xEFC, symBinAddr: 0xDF1DC, symSize: 0x1C }
  - { offset: 0x90526, size: 0x8, addend: 0x0, symName: __ZN5godot7WrappedD1Ev.cold.1, symObjAddr: 0xEFC, symBinAddr: 0xDF1DC, symSize: 0x1C }
  - { offset: 0x9053B, size: 0x8, addend: 0x0, symName: __ZN5godot7WrappedD1Ev.cold.1, symObjAddr: 0xEFC, symBinAddr: 0xDF1DC, symSize: 0x1C }
  - { offset: 0x9056A, size: 0x8, addend: 0x0, symName: __ZN5godot7WrappedD0Ev.cold.1, symObjAddr: 0xF18, symBinAddr: 0xDF1F8, symSize: 0x1C }
  - { offset: 0x90585, size: 0x8, addend: 0x0, symName: __ZN5godot7WrappedD0Ev.cold.1, symObjAddr: 0xF18, symBinAddr: 0xDF1F8, symSize: 0x1C }
  - { offset: 0x90599, size: 0x8, addend: 0x0, symName: __ZN5godot7WrappedD0Ev.cold.1, symObjAddr: 0xF18, symBinAddr: 0xDF1F8, symSize: 0x1C }
  - { offset: 0x905AD, size: 0x8, addend: 0x0, symName: __ZN5godot7WrappedD0Ev.cold.1, symObjAddr: 0xF18, symBinAddr: 0xDF1F8, symSize: 0x1C }
  - { offset: 0x905C2, size: 0x8, addend: 0x0, symName: __ZN5godot7WrappedD0Ev.cold.1, symObjAddr: 0xF18, symBinAddr: 0xDF1F8, symSize: 0x1C }
  - { offset: 0x90648, size: 0x8, addend: 0x0, symName: __ZN5godot4ListINS_12PropertyInfoENS_16DefaultAllocatorEE5_Data5eraseEPNS3_7ElementE.cold.2, symObjAddr: 0xF54, symBinAddr: 0xDF234, symSize: 0x20 }
  - { offset: 0x90660, size: 0x8, addend: 0x0, symName: __ZN5godot4ListINS_12PropertyInfoENS_16DefaultAllocatorEE5_Data5eraseEPNS3_7ElementE.cold.1, symObjAddr: 0xF34, symBinAddr: 0xDF214, symSize: 0x20 }
  - { offset: 0x9067F, size: 0x8, addend: 0x0, symName: __ZN5godot8internal23EngineClassRegistrationINS_6ObjectEE8callbackEv.cold.1, symObjAddr: 0xF74, symBinAddr: 0xDF254, symSize: 0x5C }
  - { offset: 0x906B4, size: 0x8, addend: 0x0, symName: __ZN5godot8internal23EngineClassRegistrationINS_16ClassDBSingletonEE8callbackEv.cold.1, symObjAddr: 0xFD0, symBinAddr: 0xDF2B0, symSize: 0x5C }
  - { offset: 0x906E9, size: 0x8, addend: 0x0, symName: __ZN5godot8internal23EngineClassRegistrationINS_10RefCountedEE8callbackEv.cold.1, symObjAddr: 0x102C, symBinAddr: 0xDF30C, symSize: 0x5C }
  - { offset: 0x9071E, size: 0x8, addend: 0x0, symName: __ZN5godot8internal23EngineClassRegistrationINS_10ConfigFileEE8callbackEv.cold.1, symObjAddr: 0x1088, symBinAddr: 0xDF368, symSize: 0x5C }
  - { offset: 0x90768, size: 0x8, addend: 0x0, symName: __ZN5godot10ConfigFileD1Ev.cold.1, symObjAddr: 0x10E4, symBinAddr: 0xDF3C4, symSize: 0x1C }
  - { offset: 0x90783, size: 0x8, addend: 0x0, symName: __ZN5godot10ConfigFileD1Ev.cold.1, symObjAddr: 0x10E4, symBinAddr: 0xDF3C4, symSize: 0x1C }
  - { offset: 0x90797, size: 0x8, addend: 0x0, symName: __ZN5godot10ConfigFileD1Ev.cold.1, symObjAddr: 0x10E4, symBinAddr: 0xDF3C4, symSize: 0x1C }
  - { offset: 0x907AB, size: 0x8, addend: 0x0, symName: __ZN5godot10ConfigFileD1Ev.cold.1, symObjAddr: 0x10E4, symBinAddr: 0xDF3C4, symSize: 0x1C }
  - { offset: 0x907BF, size: 0x8, addend: 0x0, symName: __ZN5godot10ConfigFileD1Ev.cold.1, symObjAddr: 0x10E4, symBinAddr: 0xDF3C4, symSize: 0x1C }
  - { offset: 0x907D3, size: 0x8, addend: 0x0, symName: __ZN5godot10ConfigFileD1Ev.cold.1, symObjAddr: 0x10E4, symBinAddr: 0xDF3C4, symSize: 0x1C }
  - { offset: 0x907E8, size: 0x8, addend: 0x0, symName: __ZN5godot10ConfigFileD1Ev.cold.1, symObjAddr: 0x10E4, symBinAddr: 0xDF3C4, symSize: 0x1C }
  - { offset: 0x9081C, size: 0x8, addend: 0x0, symName: __ZN5godot10ConfigFileD0Ev.cold.1, symObjAddr: 0x1100, symBinAddr: 0xDF3E0, symSize: 0x1C }
  - { offset: 0x90837, size: 0x8, addend: 0x0, symName: __ZN5godot10ConfigFileD0Ev.cold.1, symObjAddr: 0x1100, symBinAddr: 0xDF3E0, symSize: 0x1C }
  - { offset: 0x9084B, size: 0x8, addend: 0x0, symName: __ZN5godot10ConfigFileD0Ev.cold.1, symObjAddr: 0x1100, symBinAddr: 0xDF3E0, symSize: 0x1C }
  - { offset: 0x9085F, size: 0x8, addend: 0x0, symName: __ZN5godot10ConfigFileD0Ev.cold.1, symObjAddr: 0x1100, symBinAddr: 0xDF3E0, symSize: 0x1C }
  - { offset: 0x90873, size: 0x8, addend: 0x0, symName: __ZN5godot10ConfigFileD0Ev.cold.1, symObjAddr: 0x1100, symBinAddr: 0xDF3E0, symSize: 0x1C }
  - { offset: 0x90887, size: 0x8, addend: 0x0, symName: __ZN5godot10ConfigFileD0Ev.cold.1, symObjAddr: 0x1100, symBinAddr: 0xDF3E0, symSize: 0x1C }
  - { offset: 0x9089B, size: 0x8, addend: 0x0, symName: __ZN5godot10ConfigFileD0Ev.cold.1, symObjAddr: 0x1100, symBinAddr: 0xDF3E0, symSize: 0x1C }
  - { offset: 0x908B0, size: 0x8, addend: 0x0, symName: __ZN5godot10ConfigFileD0Ev.cold.1, symObjAddr: 0x1100, symBinAddr: 0xDF3E0, symSize: 0x1C }
  - { offset: 0x908C9, size: 0x8, addend: 0x0, symName: __ZN6sentry13RuntimeConfigD2Ev.cold.1, symObjAddr: 0x111C, symBinAddr: 0xDF3FC, symSize: 0x1C }
  - { offset: 0x908E4, size: 0x8, addend: 0x0, symName: __ZN6sentry13RuntimeConfigD2Ev.cold.1, symObjAddr: 0x111C, symBinAddr: 0xDF3FC, symSize: 0x1C }
  - { offset: 0x908F8, size: 0x8, addend: 0x0, symName: __ZN6sentry13RuntimeConfigD2Ev.cold.1, symObjAddr: 0x111C, symBinAddr: 0xDF3FC, symSize: 0x1C }
  - { offset: 0x9090C, size: 0x8, addend: 0x0, symName: __ZN6sentry13RuntimeConfigD2Ev.cold.1, symObjAddr: 0x111C, symBinAddr: 0xDF3FC, symSize: 0x1C }
  - { offset: 0x90920, size: 0x8, addend: 0x0, symName: __ZN6sentry13RuntimeConfigD2Ev.cold.1, symObjAddr: 0x111C, symBinAddr: 0xDF3FC, symSize: 0x1C }
  - { offset: 0x90935, size: 0x8, addend: 0x0, symName: __ZN6sentry13RuntimeConfigD2Ev.cold.1, symObjAddr: 0x111C, symBinAddr: 0xDF3FC, symSize: 0x1C }
  - { offset: 0x9094C, size: 0x8, addend: 0x0, symName: _OUTLINED_FUNCTION_0, symObjAddr: 0x1138, symBinAddr: 0x12F38, symSize: 0x10 }
  - { offset: 0x90964, size: 0x8, addend: 0x0, symName: _OUTLINED_FUNCTION_1, symObjAddr: 0x1148, symBinAddr: 0x12F48, symSize: 0xC }
  - { offset: 0x9097C, size: 0x8, addend: 0x0, symName: _OUTLINED_FUNCTION_2, symObjAddr: 0x1154, symBinAddr: 0x12F54, symSize: 0xC }
  - { offset: 0x90994, size: 0x8, addend: 0x0, symName: _OUTLINED_FUNCTION_3, symObjAddr: 0x1160, symBinAddr: 0x12F60, symSize: 0x8 }
  - { offset: 0x909AC, size: 0x8, addend: 0x0, symName: _OUTLINED_FUNCTION_4, symObjAddr: 0x1168, symBinAddr: 0x12F68, symSize: 0x8 }
  - { offset: 0x909C4, size: 0x8, addend: 0x0, symName: _OUTLINED_FUNCTION_5, symObjAddr: 0x1170, symBinAddr: 0x12F70, symSize: 0x8 }
  - { offset: 0x9549D, size: 0x8, addend: 0x0, symName: __ZN5godot18create_method_bindIN6sentry16SentryAttachmentEJRKNS_15PackedByteArrayEEEEPNS_10MethodBindEMT_FvDpT0_E, symObjAddr: 0x25E4, symBinAddr: 0x14F5C, symSize: 0x114 }
  - { offset: 0x955E5, size: 0x8, addend: 0x0, symName: __ZN5godot18create_method_bindIN6sentry16SentryAttachmentENS_15PackedByteArrayEJEEEPNS_10MethodBindEMT_KFT0_DpT1_E, symObjAddr: 0x2A54, symBinAddr: 0x153CC, symSize: 0x12C }
  - { offset: 0x9571B, size: 0x8, addend: 0x0, symName: __ZN5godot18create_method_bindIN6sentry16SentryAttachmentEJRKNS_6StringEEEEPNS_10MethodBindEMT_FvDpT0_E, symObjAddr: 0x2E00, symBinAddr: 0x15778, symSize: 0x114 }
  - { offset: 0x9584E, size: 0x8, addend: 0x0, symName: __ZN5godot18create_method_bindIN6sentry16SentryAttachmentENS_6StringEJEEEPNS_10MethodBindEMT_KFT0_DpT1_E, symObjAddr: 0x3270, symBinAddr: 0x15BE8, symSize: 0x12C }
  - { offset: 0x95CBA, size: 0x8, addend: 0x0, symName: __ZN5godot34call_get_argument_type_info_helperIRKNS_6StringEEEviRiRNS_12PropertyInfoE, symObjAddr: 0x1BD0, symBinAddr: 0x14548, symSize: 0x174 }
  - { offset: 0x95DDD, size: 0x8, addend: 0x0, symName: __ZN5godot36call_with_variant_args_static_ret_dvINS_3RefIN6sentry16SentryAttachmentEEEJRKNS_6StringEEEEvPFT_DpT0_EPKPKviRNS_7VariantER20GDExtensionCallErrorRKNSt3__16vectorISH_NSL_9allocatorISH_EEEE, symObjAddr: 0x1D44, symBinAddr: 0x146BC, symSize: 0x104 }
  - { offset: 0x95F6F, size: 0x8, addend: 0x0, symName: __ZN5godot43call_with_ptr_args_static_method_ret_helperINS_3RefIN6sentry16SentryAttachmentEEEJRKNS_6StringEEJLm0EEEEvPFT_DpT0_EPKPKvPvNS_13IndexSequenceIJXspT1_EEEE, symObjAddr: 0x1F0C, symBinAddr: 0x14884, symSize: 0xD4 }
  - { offset: 0x9614F, size: 0x8, addend: 0x0, symName: __ZN5godot33call_with_variant_args_static_retINS_3RefIN6sentry16SentryAttachmentEEEJRKNS_6StringEEJLm0EEEEvPFT_DpT0_EPPKNS_7VariantERSD_R20GDExtensionCallErrorNS_13IndexSequenceIJXspT1_EEEE, symObjAddr: 0x1E48, symBinAddr: 0x147C0, symSize: 0xC4 }
  - { offset: 0x9638A, size: 0x8, addend: 0x0, symName: __ZN5godot34call_get_argument_type_info_helperIRKNS_15PackedByteArrayEEEviRiRNS_12PropertyInfoE, symObjAddr: 0x2114, symBinAddr: 0x14A8C, symSize: 0x174 }
  - { offset: 0x964AD, size: 0x8, addend: 0x0, symName: __ZN5godot36call_with_variant_args_static_ret_dvINS_3RefIN6sentry16SentryAttachmentEEEJRKNS_15PackedByteArrayERKNS_6StringEEEEvPFT_DpT0_EPKPKviRNS_7VariantER20GDExtensionCallErrorRKNSt3__16vectorISK_NSO_9allocatorISK_EEEE, symObjAddr: 0x2288, symBinAddr: 0x14C00, symSize: 0x168 }
  - { offset: 0x96655, size: 0x8, addend: 0x0, symName: __ZN5godot43call_with_ptr_args_static_method_ret_helperINS_3RefIN6sentry16SentryAttachmentEEEJRKNS_15PackedByteArrayERKNS_6StringEEJLm0ELm1EEEEvPFT_DpT0_EPKPKvPvNS_13IndexSequenceIJXspT1_EEEE, symObjAddr: 0x24D8, symBinAddr: 0x14E50, symSize: 0xF8 }
  - { offset: 0x96804, size: 0x8, addend: 0x0, symName: __ZN5godot33call_with_variant_args_static_retINS_3RefIN6sentry16SentryAttachmentEEEJRKNS_15PackedByteArrayERKNS_6StringEEJLm0ELm1EEEEvPFT_DpT0_EPPKNS_7VariantERSG_R20GDExtensionCallErrorNS_13IndexSequenceIJXspT1_EEEE, symObjAddr: 0x23F0, symBinAddr: 0x14D68, symSize: 0xE8 }
  - { offset: 0x96B67, size: 0x8, addend: 0x0, symName: __ZN5godot25call_with_variant_args_dvINS_20_gde_UnexistingClassEJRKNS_15PackedByteArrayEEEEvPT_MS5_FvDpT0_EPKPKviR20GDExtensionCallErrorRKNSt3__16vectorINS_7VariantENSH_9allocatorISJ_EEEE, symObjAddr: 0x2920, symBinAddr: 0x15298, symSize: 0x134 }
  - { offset: 0x9727A, size: 0x8, addend: 0x0, symName: __ZN5godot25call_with_variant_args_dvINS_20_gde_UnexistingClassEJRKNS_6StringEEEEvPT_MS5_FvDpT0_EPKPKviR20GDExtensionCallErrorRKNSt3__16vectorINS_7VariantENSH_9allocatorISJ_EEEE, symObjAddr: 0x313C, symBinAddr: 0x15AB4, symSize: 0x134 }
  - { offset: 0xA57AD, size: 0x8, addend: 0x0, symName: ___cxx_global_var_init, symObjAddr: 0x3D6C, symBinAddr: 0x1600C, symSize: 0x4C }
  - { offset: 0xA5832, size: 0x8, addend: 0x0, symName: ___cxx_global_var_init.1, symObjAddr: 0x3DB8, symBinAddr: 0x16058, symSize: 0x4C }
  - { offset: 0xA58B7, size: 0x8, addend: 0x0, symName: ___cxx_global_var_init.2, symObjAddr: 0x3E04, symBinAddr: 0x160A4, symSize: 0x4C }
  - { offset: 0xA5A3B, size: 0x8, addend: 0x0, symName: __ZN6sentry16SentryAttachment16create_with_pathERKN5godot6StringE, symObjAddr: 0x0, symBinAddr: 0x130A8, symSize: 0x14C }
  - { offset: 0xA5BEF, size: 0x8, addend: 0x0, symName: __ZN6sentry16SentryAttachment16create_with_pathERKN5godot6StringE.cold.2, symObjAddr: 0x368C, symBinAddr: 0xDF474, symSize: 0x44 }
  - { offset: 0xA5C32, size: 0x8, addend: 0x0, symName: __ZN6sentry16SentryAttachment16create_with_pathERKN5godot6StringE.cold.1, symObjAddr: 0x3630, symBinAddr: 0xDF418, symSize: 0x5C }
  - { offset: 0xA5C9F, size: 0x8, addend: 0x0, symName: __ZN6sentry16SentryAttachment17create_with_bytesERKN5godot15PackedByteArrayERKNS1_6StringE, symObjAddr: 0x14C, symBinAddr: 0x131F4, symSize: 0x160 }
  - { offset: 0xA5E5D, size: 0x8, addend: 0x0, symName: __ZN6sentry16SentryAttachment17create_with_bytesERKN5godot15PackedByteArrayERKNS1_6StringE.cold.2, symObjAddr: 0x372C, symBinAddr: 0xDF514, symSize: 0x44 }
  - { offset: 0xA5EA0, size: 0x8, addend: 0x0, symName: __ZN6sentry16SentryAttachment17create_with_bytesERKN5godot15PackedByteArrayERKNS1_6StringE.cold.1, symObjAddr: 0x36D0, symBinAddr: 0xDF4B8, symSize: 0x5C }
  - { offset: 0xA66FC, size: 0x8, addend: 0x0, symName: __ZN6sentry16SentryAttachment13_bind_methodsEv, symObjAddr: 0x2AC, symBinAddr: 0x13354, symSize: 0xD3C }
  - { offset: 0xA8952, size: 0x8, addend: 0x0, symName: __ZN5godot7ClassDB18bind_static_methodINS_16MethodDefinitionEPFNS_3RefIN6sentry16SentryAttachmentEEERKNS_6StringEEJEEEPNS_10MethodBindENS_10StringNameET_T0_DpT1_, symObjAddr: 0xFE8, symBinAddr: 0x14090, symSize: 0x144 }
  - { offset: 0xA8AD9, size: 0x8, addend: 0x0, symName: __ZN5godot7ClassDB18bind_static_methodINS_16MethodDefinitionEPFNS_3RefIN6sentry16SentryAttachmentEEERKNS_15PackedByteArrayERKNS_6StringEEJEEEPNS_10MethodBindENS_10StringNameET_T0_DpT1_, symObjAddr: 0x112C, symBinAddr: 0x141D4, symSize: 0x140 }
  - { offset: 0xA8C50, size: 0x8, addend: 0x0, symName: __ZN6sentry16SentryAttachment13_bind_methodsEv.cold.1, symObjAddr: 0x3770, symBinAddr: 0xDF558, symSize: 0x58 }
  - { offset: 0xA8C7E, size: 0x8, addend: 0x0, symName: __ZN6sentry16SentryAttachment13_bind_methodsEv.cold.2, symObjAddr: 0x37C8, symBinAddr: 0xDF5B0, symSize: 0x58 }
  - { offset: 0xA8CAC, size: 0x8, addend: 0x0, symName: __ZN6sentry16SentryAttachment13_bind_methodsEv.cold.3, symObjAddr: 0x3820, symBinAddr: 0xDF608, symSize: 0x58 }
  - { offset: 0xA8CDA, size: 0x8, addend: 0x0, symName: __ZN6sentry16SentryAttachment13_bind_methodsEv.cold.4, symObjAddr: 0x3878, symBinAddr: 0xDF660, symSize: 0x58 }
  - { offset: 0xA8EE7, size: 0x8, addend: 0x0, symName: __ZN5godot10RefCountedD1Ev.cold.1, symObjAddr: 0x38D0, symBinAddr: 0xDF6B8, symSize: 0x1C }
  - { offset: 0xA8F02, size: 0x8, addend: 0x0, symName: __ZN5godot10RefCountedD1Ev.cold.1, symObjAddr: 0x38D0, symBinAddr: 0xDF6B8, symSize: 0x1C }
  - { offset: 0xA8F16, size: 0x8, addend: 0x0, symName: __ZN5godot10RefCountedD1Ev.cold.1, symObjAddr: 0x38D0, symBinAddr: 0xDF6B8, symSize: 0x1C }
  - { offset: 0xA8F2A, size: 0x8, addend: 0x0, symName: __ZN5godot10RefCountedD1Ev.cold.1, symObjAddr: 0x38D0, symBinAddr: 0xDF6B8, symSize: 0x1C }
  - { offset: 0xA8F3E, size: 0x8, addend: 0x0, symName: __ZN5godot10RefCountedD1Ev.cold.1, symObjAddr: 0x38D0, symBinAddr: 0xDF6B8, symSize: 0x1C }
  - { offset: 0xA8F53, size: 0x8, addend: 0x0, symName: __ZN5godot10RefCountedD1Ev.cold.1, symObjAddr: 0x38D0, symBinAddr: 0xDF6B8, symSize: 0x1C }
  - { offset: 0xA8F86, size: 0x8, addend: 0x0, symName: __ZN5godot10RefCountedD0Ev.cold.1, symObjAddr: 0x38EC, symBinAddr: 0xDF6D4, symSize: 0x1C }
  - { offset: 0xA8FA1, size: 0x8, addend: 0x0, symName: __ZN5godot10RefCountedD0Ev.cold.1, symObjAddr: 0x38EC, symBinAddr: 0xDF6D4, symSize: 0x1C }
  - { offset: 0xA8FB5, size: 0x8, addend: 0x0, symName: __ZN5godot10RefCountedD0Ev.cold.1, symObjAddr: 0x38EC, symBinAddr: 0xDF6D4, symSize: 0x1C }
  - { offset: 0xA8FC9, size: 0x8, addend: 0x0, symName: __ZN5godot10RefCountedD0Ev.cold.1, symObjAddr: 0x38EC, symBinAddr: 0xDF6D4, symSize: 0x1C }
  - { offset: 0xA8FDD, size: 0x8, addend: 0x0, symName: __ZN5godot10RefCountedD0Ev.cold.1, symObjAddr: 0x38EC, symBinAddr: 0xDF6D4, symSize: 0x1C }
  - { offset: 0xA8FF1, size: 0x8, addend: 0x0, symName: __ZN5godot10RefCountedD0Ev.cold.1, symObjAddr: 0x38EC, symBinAddr: 0xDF6D4, symSize: 0x1C }
  - { offset: 0xA9006, size: 0x8, addend: 0x0, symName: __ZN5godot10RefCountedD0Ev.cold.1, symObjAddr: 0x38EC, symBinAddr: 0xDF6D4, symSize: 0x1C }
  - { offset: 0xA901E, size: 0x8, addend: 0x0, symName: __ZN5godot6ObjectD1Ev.cold.1, symObjAddr: 0x3908, symBinAddr: 0xDF6F0, symSize: 0x1C }
  - { offset: 0xA9039, size: 0x8, addend: 0x0, symName: __ZN5godot6ObjectD1Ev.cold.1, symObjAddr: 0x3908, symBinAddr: 0xDF6F0, symSize: 0x1C }
  - { offset: 0xA904D, size: 0x8, addend: 0x0, symName: __ZN5godot6ObjectD1Ev.cold.1, symObjAddr: 0x3908, symBinAddr: 0xDF6F0, symSize: 0x1C }
  - { offset: 0xA9061, size: 0x8, addend: 0x0, symName: __ZN5godot6ObjectD1Ev.cold.1, symObjAddr: 0x3908, symBinAddr: 0xDF6F0, symSize: 0x1C }
  - { offset: 0xA9076, size: 0x8, addend: 0x0, symName: __ZN5godot6ObjectD1Ev.cold.1, symObjAddr: 0x3908, symBinAddr: 0xDF6F0, symSize: 0x1C }
  - { offset: 0xA90A6, size: 0x8, addend: 0x0, symName: __ZN5godot6ObjectD0Ev.cold.1, symObjAddr: 0x3924, symBinAddr: 0xDF70C, symSize: 0x1C }
  - { offset: 0xA90C1, size: 0x8, addend: 0x0, symName: __ZN5godot6ObjectD0Ev.cold.1, symObjAddr: 0x3924, symBinAddr: 0xDF70C, symSize: 0x1C }
  - { offset: 0xA90D5, size: 0x8, addend: 0x0, symName: __ZN5godot6ObjectD0Ev.cold.1, symObjAddr: 0x3924, symBinAddr: 0xDF70C, symSize: 0x1C }
  - { offset: 0xA90E9, size: 0x8, addend: 0x0, symName: __ZN5godot6ObjectD0Ev.cold.1, symObjAddr: 0x3924, symBinAddr: 0xDF70C, symSize: 0x1C }
  - { offset: 0xA90FD, size: 0x8, addend: 0x0, symName: __ZN5godot6ObjectD0Ev.cold.1, symObjAddr: 0x3924, symBinAddr: 0xDF70C, symSize: 0x1C }
  - { offset: 0xA9112, size: 0x8, addend: 0x0, symName: __ZN5godot6ObjectD0Ev.cold.1, symObjAddr: 0x3924, symBinAddr: 0xDF70C, symSize: 0x1C }
  - { offset: 0xA9129, size: 0x8, addend: 0x0, symName: __ZN5godot7WrappedD1Ev.cold.1, symObjAddr: 0x3940, symBinAddr: 0xDF728, symSize: 0x1C }
  - { offset: 0xA9144, size: 0x8, addend: 0x0, symName: __ZN5godot7WrappedD1Ev.cold.1, symObjAddr: 0x3940, symBinAddr: 0xDF728, symSize: 0x1C }
  - { offset: 0xA9158, size: 0x8, addend: 0x0, symName: __ZN5godot7WrappedD1Ev.cold.1, symObjAddr: 0x3940, symBinAddr: 0xDF728, symSize: 0x1C }
  - { offset: 0xA916D, size: 0x8, addend: 0x0, symName: __ZN5godot7WrappedD1Ev.cold.1, symObjAddr: 0x3940, symBinAddr: 0xDF728, symSize: 0x1C }
  - { offset: 0xA919C, size: 0x8, addend: 0x0, symName: __ZN5godot7WrappedD0Ev.cold.1, symObjAddr: 0x395C, symBinAddr: 0xDF744, symSize: 0x1C }
  - { offset: 0xA91B7, size: 0x8, addend: 0x0, symName: __ZN5godot7WrappedD0Ev.cold.1, symObjAddr: 0x395C, symBinAddr: 0xDF744, symSize: 0x1C }
  - { offset: 0xA91CB, size: 0x8, addend: 0x0, symName: __ZN5godot7WrappedD0Ev.cold.1, symObjAddr: 0x395C, symBinAddr: 0xDF744, symSize: 0x1C }
  - { offset: 0xA91DF, size: 0x8, addend: 0x0, symName: __ZN5godot7WrappedD0Ev.cold.1, symObjAddr: 0x395C, symBinAddr: 0xDF744, symSize: 0x1C }
  - { offset: 0xA91F4, size: 0x8, addend: 0x0, symName: __ZN5godot7WrappedD0Ev.cold.1, symObjAddr: 0x395C, symBinAddr: 0xDF744, symSize: 0x1C }
  - { offset: 0xA920A, size: 0x8, addend: 0x0, symName: __ZN5godot4ListINS_12PropertyInfoENS_16DefaultAllocatorEE5_Data5eraseEPNS3_7ElementE.cold.2, symObjAddr: 0x3998, symBinAddr: 0xDF780, symSize: 0x20 }
  - { offset: 0xA9222, size: 0x8, addend: 0x0, symName: __ZN5godot4ListINS_12PropertyInfoENS_16DefaultAllocatorEE5_Data5eraseEPNS3_7ElementE.cold.1, symObjAddr: 0x3978, symBinAddr: 0xDF760, symSize: 0x20 }
  - { offset: 0xA923A, size: 0x8, addend: 0x0, symName: __ZN6sentry16SentryAttachmentD2Ev.cold.1, symObjAddr: 0x39B8, symBinAddr: 0xDF7A0, symSize: 0x1C }
  - { offset: 0xA9255, size: 0x8, addend: 0x0, symName: __ZN6sentry16SentryAttachmentD2Ev.cold.1, symObjAddr: 0x39B8, symBinAddr: 0xDF7A0, symSize: 0x1C }
  - { offset: 0xA9269, size: 0x8, addend: 0x0, symName: __ZN6sentry16SentryAttachmentD2Ev.cold.1, symObjAddr: 0x39B8, symBinAddr: 0xDF7A0, symSize: 0x1C }
  - { offset: 0xA927D, size: 0x8, addend: 0x0, symName: __ZN6sentry16SentryAttachmentD2Ev.cold.1, symObjAddr: 0x39B8, symBinAddr: 0xDF7A0, symSize: 0x1C }
  - { offset: 0xA9291, size: 0x8, addend: 0x0, symName: __ZN6sentry16SentryAttachmentD2Ev.cold.1, symObjAddr: 0x39B8, symBinAddr: 0xDF7A0, symSize: 0x1C }
  - { offset: 0xA92A6, size: 0x8, addend: 0x0, symName: __ZN6sentry16SentryAttachmentD2Ev.cold.1, symObjAddr: 0x39B8, symBinAddr: 0xDF7A0, symSize: 0x1C }
  - { offset: 0xA92C4, size: 0x8, addend: 0x0, symName: __ZN5godot8internal23EngineClassRegistrationINS_6ObjectEE8callbackEv.cold.1, symObjAddr: 0x39D4, symBinAddr: 0xDF7BC, symSize: 0x5C }
  - { offset: 0xA92F9, size: 0x8, addend: 0x0, symName: __ZN5godot8internal23EngineClassRegistrationINS_16ClassDBSingletonEE8callbackEv.cold.1, symObjAddr: 0x3A30, symBinAddr: 0xDF818, symSize: 0x5C }
  - { offset: 0xA932E, size: 0x8, addend: 0x0, symName: __ZN5godot8internal23EngineClassRegistrationINS_10RefCountedEE8callbackEv.cold.1, symObjAddr: 0x3A8C, symBinAddr: 0xDF874, symSize: 0x5C }
  - { offset: 0xA935C, size: 0x8, addend: 0x0, symName: __ZNK5godot13MethodBindTRSINS_3RefIN6sentry16SentryAttachmentEEEJRKNS_6StringEEE17gen_argument_typeEi, symObjAddr: 0x199C, symBinAddr: 0x14314, symSize: 0x14 }
  - { offset: 0xA93D2, size: 0x8, addend: 0x0, symName: __ZNK5godot13MethodBindTRSINS_3RefIN6sentry16SentryAttachmentEEEJRKNS_6StringEEE22gen_argument_type_infoEi, symObjAddr: 0x19B0, symBinAddr: 0x14328, symSize: 0x68 }
  - { offset: 0xA94CB, size: 0x8, addend: 0x0, symName: __ZN5godot11GetTypeInfoINS_3RefIN6sentry16SentryAttachmentEEEvE14get_class_infoEv, symObjAddr: 0x1AA4, symBinAddr: 0x1441C, symSize: 0x12C }
  - { offset: 0xA9573, size: 0x8, addend: 0x0, symName: __ZNK5godot13MethodBindTRSINS_3RefIN6sentry16SentryAttachmentEEEJRKNS_6StringEEE21get_argument_metadataEi, symObjAddr: 0x1A18, symBinAddr: 0x14390, symSize: 0x8 }
  - { offset: 0xA95C4, size: 0x8, addend: 0x0, symName: __ZNK5godot13MethodBindTRSINS_3RefIN6sentry16SentryAttachmentEEEJRKNS_6StringEEE4callEPvPKPKvxR20GDExtensionCallError, symObjAddr: 0x1A20, symBinAddr: 0x14398, symSize: 0x5C }
  - { offset: 0xA966C, size: 0x8, addend: 0x0, symName: __ZNK5godot13MethodBindTRSINS_3RefIN6sentry16SentryAttachmentEEEJRKNS_6StringEEE7ptrcallEPvPKPKvS9_, symObjAddr: 0x1A7C, symBinAddr: 0x143F4, symSize: 0x10 }
  - { offset: 0xA972C, size: 0x8, addend: 0x0, symName: __ZN5godot13MethodBindTRSINS_3RefIN6sentry16SentryAttachmentEEEJRKNS_6StringEEED1Ev, symObjAddr: 0x1A8C, symBinAddr: 0x14404, symSize: 0x4 }
  - { offset: 0xA974F, size: 0x8, addend: 0x0, symName: __ZN5godot13MethodBindTRSINS_3RefIN6sentry16SentryAttachmentEEEJRKNS_6StringEEED1Ev, symObjAddr: 0x1A8C, symBinAddr: 0x14404, symSize: 0x4 }
  - { offset: 0xA9787, size: 0x8, addend: 0x0, symName: __ZN5godot13MethodBindTRSINS_3RefIN6sentry16SentryAttachmentEEEJRKNS_6StringEEED0Ev, symObjAddr: 0x1A90, symBinAddr: 0x14408, symSize: 0x14 }
  - { offset: 0xA97EF, size: 0x8, addend: 0x0, symName: __ZN5godot11GetTypeInfoINS_3RefIN6sentry16SentryAttachmentEEEvE14get_class_infoEv.cold.1, symObjAddr: 0x3AE8, symBinAddr: 0xDF8D0, symSize: 0x58 }
  - { offset: 0xA9950, size: 0x8, addend: 0x0, symName: __ZN5godot43call_with_ptr_args_static_method_ret_helperINS_3RefIN6sentry16SentryAttachmentEEEJRKNS_6StringEEJLm0EEEEvPFT_DpT0_EPKPKvPvNS_13IndexSequenceIJXspT1_EEEE.cold.1, symObjAddr: 0x3B40, symBinAddr: 0xDF928, symSize: 0x2C }
  - { offset: 0xA997F, size: 0x8, addend: 0x0, symName: __ZNK5godot13MethodBindTRSINS_3RefIN6sentry16SentryAttachmentEEEJRKNS_15PackedByteArrayERKNS_6StringEEE17gen_argument_typeEi, symObjAddr: 0x1FE0, symBinAddr: 0x14958, symSize: 0x28 }
  - { offset: 0xA99C1, size: 0x8, addend: 0x0, symName: __ZNK5godot13MethodBindTRSINS_3RefIN6sentry16SentryAttachmentEEEJRKNS_15PackedByteArrayERKNS_6StringEEE22gen_argument_type_infoEi, symObjAddr: 0x2008, symBinAddr: 0x14980, symSize: 0x80 }
  - { offset: 0xA9ADC, size: 0x8, addend: 0x0, symName: __ZNK5godot13MethodBindTRSINS_3RefIN6sentry16SentryAttachmentEEEJRKNS_15PackedByteArrayERKNS_6StringEEE21get_argument_metadataEi, symObjAddr: 0x2088, symBinAddr: 0x14A00, symSize: 0x8 }
  - { offset: 0xA9B12, size: 0x8, addend: 0x0, symName: __ZNK5godot13MethodBindTRSINS_3RefIN6sentry16SentryAttachmentEEEJRKNS_15PackedByteArrayERKNS_6StringEEE4callEPvPKPKvxR20GDExtensionCallError, symObjAddr: 0x2090, symBinAddr: 0x14A08, symSize: 0x5C }
  - { offset: 0xA9BBA, size: 0x8, addend: 0x0, symName: __ZNK5godot13MethodBindTRSINS_3RefIN6sentry16SentryAttachmentEEEJRKNS_15PackedByteArrayERKNS_6StringEEE7ptrcallEPvPKPKvSC_, symObjAddr: 0x20EC, symBinAddr: 0x14A64, symSize: 0x10 }
  - { offset: 0xA9C7A, size: 0x8, addend: 0x0, symName: __ZN5godot13MethodBindTRSINS_3RefIN6sentry16SentryAttachmentEEEJRKNS_15PackedByteArrayERKNS_6StringEEED1Ev, symObjAddr: 0x20FC, symBinAddr: 0x14A74, symSize: 0x4 }
  - { offset: 0xA9C9D, size: 0x8, addend: 0x0, symName: __ZN5godot13MethodBindTRSINS_3RefIN6sentry16SentryAttachmentEEEJRKNS_15PackedByteArrayERKNS_6StringEEED1Ev, symObjAddr: 0x20FC, symBinAddr: 0x14A74, symSize: 0x4 }
  - { offset: 0xA9CD5, size: 0x8, addend: 0x0, symName: __ZN5godot13MethodBindTRSINS_3RefIN6sentry16SentryAttachmentEEEJRKNS_15PackedByteArrayERKNS_6StringEEED0Ev, symObjAddr: 0x2100, symBinAddr: 0x14A78, symSize: 0x14 }
  - { offset: 0xA9D6A, size: 0x8, addend: 0x0, symName: __ZN5godot43call_with_ptr_args_static_method_ret_helperINS_3RefIN6sentry16SentryAttachmentEEEJRKNS_15PackedByteArrayERKNS_6StringEEJLm0ELm1EEEEvPFT_DpT0_EPKPKvPvNS_13IndexSequenceIJXspT1_EEEE.cold.1, symObjAddr: 0x3B6C, symBinAddr: 0xDF954, symSize: 0x2C }
  - { offset: 0xA9D99, size: 0x8, addend: 0x0, symName: __ZN6sentry16SentryAttachment9set_bytesERKN5godot15PackedByteArrayE, symObjAddr: 0x25D0, symBinAddr: 0x14F48, symSize: 0x8 }
  - { offset: 0xA9DCE, size: 0x8, addend: 0x0, symName: __ZNK6sentry16SentryAttachment9get_bytesEv, symObjAddr: 0x25D8, symBinAddr: 0x14F50, symSize: 0xC }
  - { offset: 0xA9E57, size: 0x8, addend: 0x0, symName: __ZN5godot18create_method_bindIN6sentry16SentryAttachmentEJRKNS_15PackedByteArrayEEEEPNS_10MethodBindEMT_FvDpT0_E.cold.1, symObjAddr: 0x3B98, symBinAddr: 0xDF980, symSize: 0x5C }
  - { offset: 0xA9E86, size: 0x8, addend: 0x0, symName: __ZNK5godot11MethodBindTIJRKNS_15PackedByteArrayEEE17gen_argument_typeEi, symObjAddr: 0x26F8, symBinAddr: 0x15070, symSize: 0x10 }
  - { offset: 0xA9EBC, size: 0x8, addend: 0x0, symName: __ZNK5godot11MethodBindTIJRKNS_15PackedByteArrayEEE22gen_argument_type_infoEi, symObjAddr: 0x2708, symBinAddr: 0x15080, symSize: 0x138 }
  - { offset: 0xA9FF5, size: 0x8, addend: 0x0, symName: __ZNK5godot11MethodBindTIJRKNS_15PackedByteArrayEEE21get_argument_metadataEi, symObjAddr: 0x2840, symBinAddr: 0x151B8, symSize: 0x8 }
  - { offset: 0xAA02B, size: 0x8, addend: 0x0, symName: __ZNK5godot11MethodBindTIJRKNS_15PackedByteArrayEEE4callEPvPKPKvxR20GDExtensionCallError, symObjAddr: 0x2848, symBinAddr: 0x151C0, symSize: 0x40 }
  - { offset: 0xAA0D8, size: 0x8, addend: 0x0, symName: __ZNK5godot11MethodBindTIJRKNS_15PackedByteArrayEEE7ptrcallEPvPKPKvS5_, symObjAddr: 0x2888, symBinAddr: 0x15200, symSize: 0x80 }
  - { offset: 0xAA1D1, size: 0x8, addend: 0x0, symName: __ZN5godot11MethodBindTIJRKNS_15PackedByteArrayEEED1Ev, symObjAddr: 0x2908, symBinAddr: 0x15280, symSize: 0x4 }
  - { offset: 0xAA1F4, size: 0x8, addend: 0x0, symName: __ZN5godot11MethodBindTIJRKNS_15PackedByteArrayEEED1Ev, symObjAddr: 0x2908, symBinAddr: 0x15280, symSize: 0x4 }
  - { offset: 0xAA22C, size: 0x8, addend: 0x0, symName: __ZN5godot11MethodBindTIJRKNS_15PackedByteArrayEEED0Ev, symObjAddr: 0x290C, symBinAddr: 0x15284, symSize: 0x14 }
  - { offset: 0xAA2F6, size: 0x8, addend: 0x0, symName: __ZN5godot18create_method_bindIN6sentry16SentryAttachmentENS_15PackedByteArrayEJEEEPNS_10MethodBindEMT_KFT0_DpT1_E.cold.1, symObjAddr: 0x3BF4, symBinAddr: 0xDF9DC, symSize: 0x5C }
  - { offset: 0xAA325, size: 0x8, addend: 0x0, symName: __ZNK5godot13MethodBindTRCINS_15PackedByteArrayEJEE17gen_argument_typeEi, symObjAddr: 0x2B80, symBinAddr: 0x154F8, symSize: 0x8 }
  - { offset: 0xAA362, size: 0x8, addend: 0x0, symName: __ZNK5godot13MethodBindTRCINS_15PackedByteArrayEJEE22gen_argument_type_infoEi, symObjAddr: 0x2B88, symBinAddr: 0x15500, symSize: 0xF8 }
  - { offset: 0xAA425, size: 0x8, addend: 0x0, symName: __ZNK5godot13MethodBindTRCINS_15PackedByteArrayEJEE21get_argument_metadataEi, symObjAddr: 0x2C80, symBinAddr: 0x155F8, symSize: 0x8 }
  - { offset: 0xAA4A0, size: 0x8, addend: 0x0, symName: __ZNK5godot13MethodBindTRCINS_15PackedByteArrayEJEE4callEPvPKPKvxR20GDExtensionCallError, symObjAddr: 0x2C88, symBinAddr: 0x15600, symSize: 0xCC }
  - { offset: 0xAA5BD, size: 0x8, addend: 0x0, symName: __ZNK5godot13MethodBindTRCINS_15PackedByteArrayEJEE7ptrcallEPvPKPKvS3_, symObjAddr: 0x2D54, symBinAddr: 0x156CC, symSize: 0x80 }
  - { offset: 0xAA6B1, size: 0x8, addend: 0x0, symName: __ZN5godot13MethodBindTRCINS_15PackedByteArrayEJEED1Ev, symObjAddr: 0x2DD4, symBinAddr: 0x1574C, symSize: 0x4 }
  - { offset: 0xAA6D4, size: 0x8, addend: 0x0, symName: __ZN5godot13MethodBindTRCINS_15PackedByteArrayEJEED1Ev, symObjAddr: 0x2DD4, symBinAddr: 0x1574C, symSize: 0x4 }
  - { offset: 0xAA70C, size: 0x8, addend: 0x0, symName: __ZN5godot13MethodBindTRCINS_15PackedByteArrayEJEED0Ev, symObjAddr: 0x2DD8, symBinAddr: 0x15750, symSize: 0x14 }
  - { offset: 0xAA774, size: 0x8, addend: 0x0, symName: __ZN6sentry16SentryAttachment8set_pathERKN5godot6StringE, symObjAddr: 0x2DEC, symBinAddr: 0x15764, symSize: 0x8 }
  - { offset: 0xAA7A9, size: 0x8, addend: 0x0, symName: __ZNK6sentry16SentryAttachment8get_pathEv, symObjAddr: 0x2DF4, symBinAddr: 0x1576C, symSize: 0xC }
  - { offset: 0xAA832, size: 0x8, addend: 0x0, symName: __ZN5godot18create_method_bindIN6sentry16SentryAttachmentEJRKNS_6StringEEEEPNS_10MethodBindEMT_FvDpT0_E.cold.1, symObjAddr: 0x3C50, symBinAddr: 0xDFA38, symSize: 0x5C }
  - { offset: 0xAA861, size: 0x8, addend: 0x0, symName: __ZNK5godot11MethodBindTIJRKNS_6StringEEE17gen_argument_typeEi, symObjAddr: 0x2F14, symBinAddr: 0x1588C, symSize: 0x10 }
  - { offset: 0xAA897, size: 0x8, addend: 0x0, symName: __ZNK5godot11MethodBindTIJRKNS_6StringEEE22gen_argument_type_infoEi, symObjAddr: 0x2F24, symBinAddr: 0x1589C, symSize: 0x138 }
  - { offset: 0xAA9D0, size: 0x8, addend: 0x0, symName: __ZNK5godot11MethodBindTIJRKNS_6StringEEE21get_argument_metadataEi, symObjAddr: 0x305C, symBinAddr: 0x159D4, symSize: 0x8 }
  - { offset: 0xAAA06, size: 0x8, addend: 0x0, symName: __ZNK5godot11MethodBindTIJRKNS_6StringEEE4callEPvPKPKvxR20GDExtensionCallError, symObjAddr: 0x3064, symBinAddr: 0x159DC, symSize: 0x40 }
  - { offset: 0xAAAB3, size: 0x8, addend: 0x0, symName: __ZNK5godot11MethodBindTIJRKNS_6StringEEE7ptrcallEPvPKPKvS5_, symObjAddr: 0x30A4, symBinAddr: 0x15A1C, symSize: 0x80 }
  - { offset: 0xAABAC, size: 0x8, addend: 0x0, symName: __ZN5godot11MethodBindTIJRKNS_6StringEEED1Ev, symObjAddr: 0x3124, symBinAddr: 0x15A9C, symSize: 0x4 }
  - { offset: 0xAABCF, size: 0x8, addend: 0x0, symName: __ZN5godot11MethodBindTIJRKNS_6StringEEED1Ev, symObjAddr: 0x3124, symBinAddr: 0x15A9C, symSize: 0x4 }
  - { offset: 0xAAC07, size: 0x8, addend: 0x0, symName: __ZN5godot11MethodBindTIJRKNS_6StringEEED0Ev, symObjAddr: 0x3128, symBinAddr: 0x15AA0, symSize: 0x14 }
  - { offset: 0xAACD1, size: 0x8, addend: 0x0, symName: __ZN5godot18create_method_bindIN6sentry16SentryAttachmentENS_6StringEJEEEPNS_10MethodBindEMT_KFT0_DpT1_E.cold.1, symObjAddr: 0x3CAC, symBinAddr: 0xDFA94, symSize: 0x5C }
  - { offset: 0xAAD00, size: 0x8, addend: 0x0, symName: __ZNK5godot13MethodBindTRCINS_6StringEJEE17gen_argument_typeEi, symObjAddr: 0x339C, symBinAddr: 0x15D14, symSize: 0x8 }
  - { offset: 0xAAD3D, size: 0x8, addend: 0x0, symName: __ZNK5godot13MethodBindTRCINS_6StringEJEE22gen_argument_type_infoEi, symObjAddr: 0x33A4, symBinAddr: 0x15D1C, symSize: 0xF8 }
  - { offset: 0xAAE00, size: 0x8, addend: 0x0, symName: __ZNK5godot13MethodBindTRCINS_6StringEJEE21get_argument_metadataEi, symObjAddr: 0x349C, symBinAddr: 0x15E14, symSize: 0x8 }
  - { offset: 0xAAE36, size: 0x8, addend: 0x0, symName: __ZNK5godot13MethodBindTRCINS_6StringEJEE4callEPvPKPKvxR20GDExtensionCallError, symObjAddr: 0x34A4, symBinAddr: 0x15E1C, symSize: 0xCC }
  - { offset: 0xAAF53, size: 0x8, addend: 0x0, symName: __ZNK5godot13MethodBindTRCINS_6StringEJEE7ptrcallEPvPKPKvS3_, symObjAddr: 0x3570, symBinAddr: 0x15EE8, symSize: 0x80 }
  - { offset: 0xAB047, size: 0x8, addend: 0x0, symName: __ZN5godot13MethodBindTRCINS_6StringEJEED1Ev, symObjAddr: 0x35F0, symBinAddr: 0x15F68, symSize: 0x4 }
  - { offset: 0xAB06A, size: 0x8, addend: 0x0, symName: __ZN5godot13MethodBindTRCINS_6StringEJEED1Ev, symObjAddr: 0x35F0, symBinAddr: 0x15F68, symSize: 0x4 }
  - { offset: 0xAB0A2, size: 0x8, addend: 0x0, symName: __ZN5godot13MethodBindTRCINS_6StringEJEED0Ev, symObjAddr: 0x35F4, symBinAddr: 0x15F6C, symSize: 0x14 }
  - { offset: 0xAB10A, size: 0x8, addend: 0x0, symName: __ZN6sentry16SentryAttachment12set_filenameERKN5godot6StringE, symObjAddr: 0x3608, symBinAddr: 0x15F80, symSize: 0x8 }
  - { offset: 0xAB13F, size: 0x8, addend: 0x0, symName: __ZNK6sentry16SentryAttachment12get_filenameEv, symObjAddr: 0x3610, symBinAddr: 0x15F88, symSize: 0xC }
  - { offset: 0xAB166, size: 0x8, addend: 0x0, symName: __ZN6sentry16SentryAttachment16set_content_typeERKN5godot6StringE, symObjAddr: 0x361C, symBinAddr: 0x15F94, symSize: 0x8 }
  - { offset: 0xAB19B, size: 0x8, addend: 0x0, symName: __ZNK6sentry16SentryAttachment16get_content_typeEv, symObjAddr: 0x3624, symBinAddr: 0x15F9C, symSize: 0xC }
  - { offset: 0xAB1F6, size: 0x8, addend: 0x0, symName: _OUTLINED_FUNCTION_0, symObjAddr: 0x3D08, symBinAddr: 0x15FA8, symSize: 0x10 }
  - { offset: 0xAB20E, size: 0x8, addend: 0x0, symName: _OUTLINED_FUNCTION_1, symObjAddr: 0x3D18, symBinAddr: 0x15FB8, symSize: 0xC }
  - { offset: 0xAB226, size: 0x8, addend: 0x0, symName: _OUTLINED_FUNCTION_2, symObjAddr: 0x3D24, symBinAddr: 0x15FC4, symSize: 0x8 }
  - { offset: 0xAB23E, size: 0x8, addend: 0x0, symName: _OUTLINED_FUNCTION_3, symObjAddr: 0x3D2C, symBinAddr: 0x15FCC, symSize: 0x8 }
  - { offset: 0xAB256, size: 0x8, addend: 0x0, symName: _OUTLINED_FUNCTION_4, symObjAddr: 0x3D34, symBinAddr: 0x15FD4, symSize: 0x8 }
  - { offset: 0xAB26E, size: 0x8, addend: 0x0, symName: _OUTLINED_FUNCTION_5, symObjAddr: 0x3D3C, symBinAddr: 0x15FDC, symSize: 0x8 }
  - { offset: 0xAB286, size: 0x8, addend: 0x0, symName: _OUTLINED_FUNCTION_6, symObjAddr: 0x3D44, symBinAddr: 0x15FE4, symSize: 0xC }
  - { offset: 0xAB29E, size: 0x8, addend: 0x0, symName: _OUTLINED_FUNCTION_7, symObjAddr: 0x3D50, symBinAddr: 0x15FF0, symSize: 0x10 }
  - { offset: 0xAB2B6, size: 0x8, addend: 0x0, symName: _OUTLINED_FUNCTION_8, symObjAddr: 0x3D60, symBinAddr: 0x16000, symSize: 0xC }
  - { offset: 0xB10F3, size: 0x8, addend: 0x0, symName: __ZN5godot18create_method_bindIN6sentry16SentryBreadcrumbEJRKNS_6StringEEEEPNS_10MethodBindEMT_FvDpT0_E, symObjAddr: 0x21D8, symBinAddr: 0x174E8, symSize: 0x114 }
  - { offset: 0xB123B, size: 0x8, addend: 0x0, symName: __ZN5godot18create_method_bindIN6sentry16SentryBreadcrumbENS_6StringEJEEEPNS_10MethodBindEMT_KFT0_DpT1_E, symObjAddr: 0x2648, symBinAddr: 0x175FC, symSize: 0x12C }
  - { offset: 0xB1371, size: 0x8, addend: 0x0, symName: __ZN5godot18create_method_bindIN6sentry16SentryBreadcrumbEJNS1_5LevelEEEEPNS_10MethodBindEMT_FvDpT0_E, symObjAddr: 0x29E0, symBinAddr: 0x17728, symSize: 0x114 }
  - { offset: 0xB14A4, size: 0x8, addend: 0x0, symName: __ZN5godot18create_method_bindIN6sentry16SentryBreadcrumbENS1_5LevelEJEEEPNS_10MethodBindEMT_KFT0_DpT1_E, symObjAddr: 0x30F0, symBinAddr: 0x17E38, symSize: 0x12C }
  - { offset: 0xB15DA, size: 0x8, addend: 0x0, symName: __ZN5godot18create_method_bindIN6sentry16SentryBreadcrumbEJRKNS_10DictionaryEEEEPNS_10MethodBindEMT_FvDpT0_E, symObjAddr: 0x3344, symBinAddr: 0x1808C, symSize: 0x114 }
  - { offset: 0xB170D, size: 0x8, addend: 0x0, symName: __ZN5godot18create_method_bindIN6sentry16SentryBreadcrumbENS_3RefINS1_15SentryTimestampEEEJEEEPNS_10MethodBindEMT_FT0_DpT1_E, symObjAddr: 0x3928, symBinAddr: 0x18670, symSize: 0x120 }
  - { offset: 0xB1AD8, size: 0x8, addend: 0x0, symName: __ZN5godot36call_with_variant_args_static_ret_dvINS_3RefIN6sentry16SentryBreadcrumbEEEJRKNS_6StringEEEEvPFT_DpT0_EPKPKviRNS_7VariantER20GDExtensionCallErrorRKNSt3__16vectorISH_NSL_9allocatorISH_EEEE, symObjAddr: 0x1F3C, symBinAddr: 0x1724C, symSize: 0x104 }
  - { offset: 0xB1C6A, size: 0x8, addend: 0x0, symName: __ZN5godot43call_with_ptr_args_static_method_ret_helperINS_3RefIN6sentry16SentryBreadcrumbEEEJRKNS_6StringEEJLm0EEEEvPFT_DpT0_EPKPKvPvNS_13IndexSequenceIJXspT1_EEEE, symObjAddr: 0x2104, symBinAddr: 0x17414, symSize: 0xD4 }
  - { offset: 0xB1E4A, size: 0x8, addend: 0x0, symName: __ZN5godot33call_with_variant_args_static_retINS_3RefIN6sentry16SentryBreadcrumbEEEJRKNS_6StringEEJLm0EEEEvPFT_DpT0_EPPKNS_7VariantERSD_R20GDExtensionCallErrorNS_13IndexSequenceIJXspT1_EEEE, symObjAddr: 0x2040, symBinAddr: 0x17350, symSize: 0xC4 }
  - { offset: 0xB23CA, size: 0x8, addend: 0x0, symName: __ZN5godot34call_get_argument_type_info_helperIN6sentry5LevelEEEviRiRNS_12PropertyInfoE, symObjAddr: 0x2CBC, symBinAddr: 0x17A04, symSize: 0xD4 }
  - { offset: 0xB2482, size: 0x8, addend: 0x0, symName: __ZN5godot25call_with_variant_args_dvINS_20_gde_UnexistingClassEJN6sentry5LevelEEEEvPT_MS4_FvDpT0_EPKPKviR20GDExtensionCallErrorRKNSt3__16vectorINS_7VariantENSG_9allocatorISI_EEEE, symObjAddr: 0x2FC8, symBinAddr: 0x17D10, symSize: 0x128 }
  - { offset: 0xB26D5, size: 0x8, addend: 0x0, symName: __ZN5godot38enum_qualified_name_to_class_info_nameERKNS_6StringE, symObjAddr: 0x2EB8, symBinAddr: 0x17C00, symSize: 0x110 }
  - { offset: 0xB2C1B, size: 0x8, addend: 0x0, symName: __ZN5godot34call_get_argument_type_info_helperIRKNS_10DictionaryEEEviRiRNS_12PropertyInfoE, symObjAddr: 0x3680, symBinAddr: 0x183C8, symSize: 0x174 }
  - { offset: 0xB2D3E, size: 0x8, addend: 0x0, symName: __ZN5godot25call_with_variant_args_dvINS_20_gde_UnexistingClassEJRKNS_10DictionaryEEEEvPT_MS5_FvDpT0_EPKPKviR20GDExtensionCallErrorRKNSt3__16vectorINS_7VariantENSH_9allocatorISJ_EEEE, symObjAddr: 0x37F4, symBinAddr: 0x1853C, symSize: 0x134 }
  - { offset: 0xB3147, size: 0x8, addend: 0x0, symName: __ZN5godot29call_with_variant_args_ret_dvINS_20_gde_UnexistingClassENS_3RefIN6sentry15SentryTimestampEEEJEEEvPT_MS6_FT0_DpT1_EPKPKviRNS_7VariantER20GDExtensionCallErrorRKNSt3__16vectorISH_NSL_9allocatorISH_EEEE, symObjAddr: 0x3CA0, symBinAddr: 0x189E8, symSize: 0xE4 }
  - { offset: 0xC1071, size: 0x8, addend: 0x0, symName: ___cxx_global_var_init, symObjAddr: 0x46C0, symBinAddr: 0x18B20, symSize: 0x4C }
  - { offset: 0xC10F6, size: 0x8, addend: 0x0, symName: ___cxx_global_var_init.1, symObjAddr: 0x470C, symBinAddr: 0x18B6C, symSize: 0x4C }
  - { offset: 0xC117B, size: 0x8, addend: 0x0, symName: ___cxx_global_var_init.2, symObjAddr: 0x4758, symBinAddr: 0x18BB8, symSize: 0x4C }
  - { offset: 0xC1200, size: 0x8, addend: 0x0, symName: ___cxx_global_var_init.3, symObjAddr: 0x47A4, symBinAddr: 0x18C04, symSize: 0x4C }
  - { offset: 0xC1285, size: 0x8, addend: 0x0, symName: ___cxx_global_var_init.4, symObjAddr: 0x47F0, symBinAddr: 0x18C50, symSize: 0x4C }
  - { offset: 0xC130A, size: 0x8, addend: 0x0, symName: ___cxx_global_var_init.5, symObjAddr: 0x483C, symBinAddr: 0x18C9C, symSize: 0x4C }
  - { offset: 0xC138F, size: 0x8, addend: 0x0, symName: ___cxx_global_var_init.6, symObjAddr: 0x4888, symBinAddr: 0x18CE8, symSize: 0x4C }
  - { offset: 0xC1501, size: 0x8, addend: 0x0, symName: __ZN6sentry16SentryBreadcrumb6createERKN5godot6StringE, symObjAddr: 0x0, symBinAddr: 0x160F0, symSize: 0xDC }
  - { offset: 0xC16D9, size: 0x8, addend: 0x0, symName: __ZN6sentry16SentryBreadcrumb6createERKN5godot6StringE.cold.1, symObjAddr: 0x3D84, symBinAddr: 0xDFAF0, symSize: 0x3C }
  - { offset: 0xC1D57, size: 0x8, addend: 0x0, symName: __ZN6sentry16SentryBreadcrumb13_bind_methodsEv, symObjAddr: 0xDC, symBinAddr: 0x161CC, symSize: 0xCEC }
  - { offset: 0xC3FBC, size: 0x8, addend: 0x0, symName: __ZN5godot7ClassDB18bind_static_methodINS_16MethodDefinitionEPFNS_3RefIN6sentry16SentryBreadcrumbEEERKNS_6StringEEJS7_EEEPNS_10MethodBindENS_10StringNameET_T0_DpT1_, symObjAddr: 0xDC8, symBinAddr: 0x16EB8, symSize: 0x160 }
  - { offset: 0xC4163, size: 0x8, addend: 0x0, symName: __ZN6sentry16SentryBreadcrumb13_bind_methodsEv.cold.1, symObjAddr: 0x3DC0, symBinAddr: 0xDFB2C, symSize: 0x58 }
  - { offset: 0xC4191, size: 0x8, addend: 0x0, symName: __ZN6sentry16SentryBreadcrumb13_bind_methodsEv.cold.2, symObjAddr: 0x3E18, symBinAddr: 0xDFB84, symSize: 0x58 }
  - { offset: 0xC41BF, size: 0x8, addend: 0x0, symName: __ZN6sentry16SentryBreadcrumb13_bind_methodsEv.cold.3, symObjAddr: 0x3E70, symBinAddr: 0xDFBDC, symSize: 0x58 }
  - { offset: 0xC41ED, size: 0x8, addend: 0x0, symName: __ZN6sentry16SentryBreadcrumb13_bind_methodsEv.cold.4, symObjAddr: 0x3EC8, symBinAddr: 0xDFC34, symSize: 0x58 }
  - { offset: 0xC431B, size: 0x8, addend: 0x0, symName: __ZN5godot8internal23EngineClassRegistrationINS_6ObjectEE8callbackEv.cold.1, symObjAddr: 0x3F20, symBinAddr: 0xDFC8C, symSize: 0x5C }
  - { offset: 0xC43B6, size: 0x8, addend: 0x0, symName: __ZN5godot6ObjectD1Ev.cold.1, symObjAddr: 0x3F7C, symBinAddr: 0xDFCE8, symSize: 0x1C }
  - { offset: 0xC43D1, size: 0x8, addend: 0x0, symName: __ZN5godot6ObjectD1Ev.cold.1, symObjAddr: 0x3F7C, symBinAddr: 0xDFCE8, symSize: 0x1C }
  - { offset: 0xC43E5, size: 0x8, addend: 0x0, symName: __ZN5godot6ObjectD1Ev.cold.1, symObjAddr: 0x3F7C, symBinAddr: 0xDFCE8, symSize: 0x1C }
  - { offset: 0xC43F9, size: 0x8, addend: 0x0, symName: __ZN5godot6ObjectD1Ev.cold.1, symObjAddr: 0x3F7C, symBinAddr: 0xDFCE8, symSize: 0x1C }
  - { offset: 0xC440E, size: 0x8, addend: 0x0, symName: __ZN5godot6ObjectD1Ev.cold.1, symObjAddr: 0x3F7C, symBinAddr: 0xDFCE8, symSize: 0x1C }
  - { offset: 0xC443E, size: 0x8, addend: 0x0, symName: __ZN5godot6ObjectD0Ev.cold.1, symObjAddr: 0x3F98, symBinAddr: 0xDFD04, symSize: 0x1C }
  - { offset: 0xC4459, size: 0x8, addend: 0x0, symName: __ZN5godot6ObjectD0Ev.cold.1, symObjAddr: 0x3F98, symBinAddr: 0xDFD04, symSize: 0x1C }
  - { offset: 0xC446D, size: 0x8, addend: 0x0, symName: __ZN5godot6ObjectD0Ev.cold.1, symObjAddr: 0x3F98, symBinAddr: 0xDFD04, symSize: 0x1C }
  - { offset: 0xC4481, size: 0x8, addend: 0x0, symName: __ZN5godot6ObjectD0Ev.cold.1, symObjAddr: 0x3F98, symBinAddr: 0xDFD04, symSize: 0x1C }
  - { offset: 0xC4495, size: 0x8, addend: 0x0, symName: __ZN5godot6ObjectD0Ev.cold.1, symObjAddr: 0x3F98, symBinAddr: 0xDFD04, symSize: 0x1C }
  - { offset: 0xC44AA, size: 0x8, addend: 0x0, symName: __ZN5godot6ObjectD0Ev.cold.1, symObjAddr: 0x3F98, symBinAddr: 0xDFD04, symSize: 0x1C }
  - { offset: 0xC44C1, size: 0x8, addend: 0x0, symName: __ZN5godot7WrappedD1Ev.cold.1, symObjAddr: 0x3FB4, symBinAddr: 0xDFD20, symSize: 0x1C }
  - { offset: 0xC44DC, size: 0x8, addend: 0x0, symName: __ZN5godot7WrappedD1Ev.cold.1, symObjAddr: 0x3FB4, symBinAddr: 0xDFD20, symSize: 0x1C }
  - { offset: 0xC44F0, size: 0x8, addend: 0x0, symName: __ZN5godot7WrappedD1Ev.cold.1, symObjAddr: 0x3FB4, symBinAddr: 0xDFD20, symSize: 0x1C }
  - { offset: 0xC4505, size: 0x8, addend: 0x0, symName: __ZN5godot7WrappedD1Ev.cold.1, symObjAddr: 0x3FB4, symBinAddr: 0xDFD20, symSize: 0x1C }
  - { offset: 0xC4534, size: 0x8, addend: 0x0, symName: __ZN5godot7WrappedD0Ev.cold.1, symObjAddr: 0x3FD0, symBinAddr: 0xDFD3C, symSize: 0x1C }
  - { offset: 0xC454F, size: 0x8, addend: 0x0, symName: __ZN5godot7WrappedD0Ev.cold.1, symObjAddr: 0x3FD0, symBinAddr: 0xDFD3C, symSize: 0x1C }
  - { offset: 0xC4563, size: 0x8, addend: 0x0, symName: __ZN5godot7WrappedD0Ev.cold.1, symObjAddr: 0x3FD0, symBinAddr: 0xDFD3C, symSize: 0x1C }
  - { offset: 0xC4577, size: 0x8, addend: 0x0, symName: __ZN5godot7WrappedD0Ev.cold.1, symObjAddr: 0x3FD0, symBinAddr: 0xDFD3C, symSize: 0x1C }
  - { offset: 0xC458C, size: 0x8, addend: 0x0, symName: __ZN5godot7WrappedD0Ev.cold.1, symObjAddr: 0x3FD0, symBinAddr: 0xDFD3C, symSize: 0x1C }
  - { offset: 0xC45A2, size: 0x8, addend: 0x0, symName: __ZN5godot4ListINS_12PropertyInfoENS_16DefaultAllocatorEE5_Data5eraseEPNS3_7ElementE.cold.2, symObjAddr: 0x400C, symBinAddr: 0xDFD78, symSize: 0x20 }
  - { offset: 0xC45BA, size: 0x8, addend: 0x0, symName: __ZN5godot4ListINS_12PropertyInfoENS_16DefaultAllocatorEE5_Data5eraseEPNS3_7ElementE.cold.1, symObjAddr: 0x3FEC, symBinAddr: 0xDFD58, symSize: 0x20 }
  - { offset: 0xC45D9, size: 0x8, addend: 0x0, symName: __ZN5godot8internal23EngineClassRegistrationINS_16ClassDBSingletonEE8callbackEv.cold.1, symObjAddr: 0x402C, symBinAddr: 0xDFD98, symSize: 0x5C }
  - { offset: 0xC460E, size: 0x8, addend: 0x0, symName: __ZN5godot8internal23EngineClassRegistrationINS_10RefCountedEE8callbackEv.cold.1, symObjAddr: 0x4088, symBinAddr: 0xDFDF4, symSize: 0x5C }
  - { offset: 0xC4658, size: 0x8, addend: 0x0, symName: __ZN5godot10RefCountedD1Ev.cold.1, symObjAddr: 0x40E4, symBinAddr: 0xDFE50, symSize: 0x1C }
  - { offset: 0xC4673, size: 0x8, addend: 0x0, symName: __ZN5godot10RefCountedD1Ev.cold.1, symObjAddr: 0x40E4, symBinAddr: 0xDFE50, symSize: 0x1C }
  - { offset: 0xC4687, size: 0x8, addend: 0x0, symName: __ZN5godot10RefCountedD1Ev.cold.1, symObjAddr: 0x40E4, symBinAddr: 0xDFE50, symSize: 0x1C }
  - { offset: 0xC469B, size: 0x8, addend: 0x0, symName: __ZN5godot10RefCountedD1Ev.cold.1, symObjAddr: 0x40E4, symBinAddr: 0xDFE50, symSize: 0x1C }
  - { offset: 0xC46AF, size: 0x8, addend: 0x0, symName: __ZN5godot10RefCountedD1Ev.cold.1, symObjAddr: 0x40E4, symBinAddr: 0xDFE50, symSize: 0x1C }
  - { offset: 0xC46C4, size: 0x8, addend: 0x0, symName: __ZN5godot10RefCountedD1Ev.cold.1, symObjAddr: 0x40E4, symBinAddr: 0xDFE50, symSize: 0x1C }
  - { offset: 0xC46F7, size: 0x8, addend: 0x0, symName: __ZN5godot10RefCountedD0Ev.cold.1, symObjAddr: 0x4100, symBinAddr: 0xDFE6C, symSize: 0x1C }
  - { offset: 0xC4712, size: 0x8, addend: 0x0, symName: __ZN5godot10RefCountedD0Ev.cold.1, symObjAddr: 0x4100, symBinAddr: 0xDFE6C, symSize: 0x1C }
  - { offset: 0xC4726, size: 0x8, addend: 0x0, symName: __ZN5godot10RefCountedD0Ev.cold.1, symObjAddr: 0x4100, symBinAddr: 0xDFE6C, symSize: 0x1C }
  - { offset: 0xC473A, size: 0x8, addend: 0x0, symName: __ZN5godot10RefCountedD0Ev.cold.1, symObjAddr: 0x4100, symBinAddr: 0xDFE6C, symSize: 0x1C }
  - { offset: 0xC474E, size: 0x8, addend: 0x0, symName: __ZN5godot10RefCountedD0Ev.cold.1, symObjAddr: 0x4100, symBinAddr: 0xDFE6C, symSize: 0x1C }
  - { offset: 0xC4762, size: 0x8, addend: 0x0, symName: __ZN5godot10RefCountedD0Ev.cold.1, symObjAddr: 0x4100, symBinAddr: 0xDFE6C, symSize: 0x1C }
  - { offset: 0xC4777, size: 0x8, addend: 0x0, symName: __ZN5godot10RefCountedD0Ev.cold.1, symObjAddr: 0x4100, symBinAddr: 0xDFE6C, symSize: 0x1C }
  - { offset: 0xC4796, size: 0x8, addend: 0x0, symName: __ZN5godot8internal23EngineClassRegistrationINS_10ConfigFileEE8callbackEv.cold.1, symObjAddr: 0x411C, symBinAddr: 0xDFE88, symSize: 0x5C }
  - { offset: 0xC47E0, size: 0x8, addend: 0x0, symName: __ZN5godot10ConfigFileD1Ev.cold.1, symObjAddr: 0x4178, symBinAddr: 0xDFEE4, symSize: 0x1C }
  - { offset: 0xC47FB, size: 0x8, addend: 0x0, symName: __ZN5godot10ConfigFileD1Ev.cold.1, symObjAddr: 0x4178, symBinAddr: 0xDFEE4, symSize: 0x1C }
  - { offset: 0xC480F, size: 0x8, addend: 0x0, symName: __ZN5godot10ConfigFileD1Ev.cold.1, symObjAddr: 0x4178, symBinAddr: 0xDFEE4, symSize: 0x1C }
  - { offset: 0xC4823, size: 0x8, addend: 0x0, symName: __ZN5godot10ConfigFileD1Ev.cold.1, symObjAddr: 0x4178, symBinAddr: 0xDFEE4, symSize: 0x1C }
  - { offset: 0xC4837, size: 0x8, addend: 0x0, symName: __ZN5godot10ConfigFileD1Ev.cold.1, symObjAddr: 0x4178, symBinAddr: 0xDFEE4, symSize: 0x1C }
  - { offset: 0xC484B, size: 0x8, addend: 0x0, symName: __ZN5godot10ConfigFileD1Ev.cold.1, symObjAddr: 0x4178, symBinAddr: 0xDFEE4, symSize: 0x1C }
  - { offset: 0xC4860, size: 0x8, addend: 0x0, symName: __ZN5godot10ConfigFileD1Ev.cold.1, symObjAddr: 0x4178, symBinAddr: 0xDFEE4, symSize: 0x1C }
  - { offset: 0xC4894, size: 0x8, addend: 0x0, symName: __ZN5godot10ConfigFileD0Ev.cold.1, symObjAddr: 0x4194, symBinAddr: 0xDFF00, symSize: 0x1C }
  - { offset: 0xC48AF, size: 0x8, addend: 0x0, symName: __ZN5godot10ConfigFileD0Ev.cold.1, symObjAddr: 0x4194, symBinAddr: 0xDFF00, symSize: 0x1C }
  - { offset: 0xC48C3, size: 0x8, addend: 0x0, symName: __ZN5godot10ConfigFileD0Ev.cold.1, symObjAddr: 0x4194, symBinAddr: 0xDFF00, symSize: 0x1C }
  - { offset: 0xC48D7, size: 0x8, addend: 0x0, symName: __ZN5godot10ConfigFileD0Ev.cold.1, symObjAddr: 0x4194, symBinAddr: 0xDFF00, symSize: 0x1C }
  - { offset: 0xC48EB, size: 0x8, addend: 0x0, symName: __ZN5godot10ConfigFileD0Ev.cold.1, symObjAddr: 0x4194, symBinAddr: 0xDFF00, symSize: 0x1C }
  - { offset: 0xC48FF, size: 0x8, addend: 0x0, symName: __ZN5godot10ConfigFileD0Ev.cold.1, symObjAddr: 0x4194, symBinAddr: 0xDFF00, symSize: 0x1C }
  - { offset: 0xC4913, size: 0x8, addend: 0x0, symName: __ZN5godot10ConfigFileD0Ev.cold.1, symObjAddr: 0x4194, symBinAddr: 0xDFF00, symSize: 0x1C }
  - { offset: 0xC4928, size: 0x8, addend: 0x0, symName: __ZN5godot10ConfigFileD0Ev.cold.1, symObjAddr: 0x4194, symBinAddr: 0xDFF00, symSize: 0x1C }
  - { offset: 0xC4948, size: 0x8, addend: 0x0, symName: __ZN5godot8internal23EngineClassRegistrationINS_6LoggerEE8callbackEv.cold.1, symObjAddr: 0x41B0, symBinAddr: 0xDFF1C, symSize: 0x5C }
  - { offset: 0xC497D, size: 0x8, addend: 0x0, symName: __ZN5godot8internal23EngineClassRegistrationINS_15ScriptBacktraceEE8callbackEv.cold.1, symObjAddr: 0x420C, symBinAddr: 0xDFF78, symSize: 0x5C }
  - { offset: 0xC49C7, size: 0x8, addend: 0x0, symName: __ZN5godot15ScriptBacktraceD1Ev.cold.1, symObjAddr: 0x4268, symBinAddr: 0xDFFD4, symSize: 0x1C }
  - { offset: 0xC49E2, size: 0x8, addend: 0x0, symName: __ZN5godot15ScriptBacktraceD1Ev.cold.1, symObjAddr: 0x4268, symBinAddr: 0xDFFD4, symSize: 0x1C }
  - { offset: 0xC49F6, size: 0x8, addend: 0x0, symName: __ZN5godot15ScriptBacktraceD1Ev.cold.1, symObjAddr: 0x4268, symBinAddr: 0xDFFD4, symSize: 0x1C }
  - { offset: 0xC4A0A, size: 0x8, addend: 0x0, symName: __ZN5godot15ScriptBacktraceD1Ev.cold.1, symObjAddr: 0x4268, symBinAddr: 0xDFFD4, symSize: 0x1C }
  - { offset: 0xC4A1E, size: 0x8, addend: 0x0, symName: __ZN5godot15ScriptBacktraceD1Ev.cold.1, symObjAddr: 0x4268, symBinAddr: 0xDFFD4, symSize: 0x1C }
  - { offset: 0xC4A32, size: 0x8, addend: 0x0, symName: __ZN5godot15ScriptBacktraceD1Ev.cold.1, symObjAddr: 0x4268, symBinAddr: 0xDFFD4, symSize: 0x1C }
  - { offset: 0xC4A47, size: 0x8, addend: 0x0, symName: __ZN5godot15ScriptBacktraceD1Ev.cold.1, symObjAddr: 0x4268, symBinAddr: 0xDFFD4, symSize: 0x1C }
  - { offset: 0xC4A7B, size: 0x8, addend: 0x0, symName: __ZN5godot15ScriptBacktraceD0Ev.cold.1, symObjAddr: 0x4284, symBinAddr: 0xDFFF0, symSize: 0x1C }
  - { offset: 0xC4A96, size: 0x8, addend: 0x0, symName: __ZN5godot15ScriptBacktraceD0Ev.cold.1, symObjAddr: 0x4284, symBinAddr: 0xDFFF0, symSize: 0x1C }
  - { offset: 0xC4AAA, size: 0x8, addend: 0x0, symName: __ZN5godot15ScriptBacktraceD0Ev.cold.1, symObjAddr: 0x4284, symBinAddr: 0xDFFF0, symSize: 0x1C }
  - { offset: 0xC4ABE, size: 0x8, addend: 0x0, symName: __ZN5godot15ScriptBacktraceD0Ev.cold.1, symObjAddr: 0x4284, symBinAddr: 0xDFFF0, symSize: 0x1C }
  - { offset: 0xC4AD2, size: 0x8, addend: 0x0, symName: __ZN5godot15ScriptBacktraceD0Ev.cold.1, symObjAddr: 0x4284, symBinAddr: 0xDFFF0, symSize: 0x1C }
  - { offset: 0xC4AE6, size: 0x8, addend: 0x0, symName: __ZN5godot15ScriptBacktraceD0Ev.cold.1, symObjAddr: 0x4284, symBinAddr: 0xDFFF0, symSize: 0x1C }
  - { offset: 0xC4AFA, size: 0x8, addend: 0x0, symName: __ZN5godot15ScriptBacktraceD0Ev.cold.1, symObjAddr: 0x4284, symBinAddr: 0xDFFF0, symSize: 0x1C }
  - { offset: 0xC4B0F, size: 0x8, addend: 0x0, symName: __ZN5godot15ScriptBacktraceD0Ev.cold.1, symObjAddr: 0x4284, symBinAddr: 0xDFFF0, symSize: 0x1C }
  - { offset: 0xC4B2F, size: 0x8, addend: 0x0, symName: __ZN5godot8internal23EngineClassRegistrationINS_5MutexEE8callbackEv.cold.1, symObjAddr: 0x42A0, symBinAddr: 0xE000C, symSize: 0x5C }
  - { offset: 0xC4B79, size: 0x8, addend: 0x0, symName: __ZN5godot5MutexD1Ev.cold.1, symObjAddr: 0x42FC, symBinAddr: 0xE0068, symSize: 0x1C }
  - { offset: 0xC4B94, size: 0x8, addend: 0x0, symName: __ZN5godot5MutexD1Ev.cold.1, symObjAddr: 0x42FC, symBinAddr: 0xE0068, symSize: 0x1C }
  - { offset: 0xC4BA8, size: 0x8, addend: 0x0, symName: __ZN5godot5MutexD1Ev.cold.1, symObjAddr: 0x42FC, symBinAddr: 0xE0068, symSize: 0x1C }
  - { offset: 0xC4BBC, size: 0x8, addend: 0x0, symName: __ZN5godot5MutexD1Ev.cold.1, symObjAddr: 0x42FC, symBinAddr: 0xE0068, symSize: 0x1C }
  - { offset: 0xC4BD0, size: 0x8, addend: 0x0, symName: __ZN5godot5MutexD1Ev.cold.1, symObjAddr: 0x42FC, symBinAddr: 0xE0068, symSize: 0x1C }
  - { offset: 0xC4BE4, size: 0x8, addend: 0x0, symName: __ZN5godot5MutexD1Ev.cold.1, symObjAddr: 0x42FC, symBinAddr: 0xE0068, symSize: 0x1C }
  - { offset: 0xC4BF9, size: 0x8, addend: 0x0, symName: __ZN5godot5MutexD1Ev.cold.1, symObjAddr: 0x42FC, symBinAddr: 0xE0068, symSize: 0x1C }
  - { offset: 0xC4C2D, size: 0x8, addend: 0x0, symName: __ZN5godot5MutexD0Ev.cold.1, symObjAddr: 0x4318, symBinAddr: 0xE0084, symSize: 0x1C }
  - { offset: 0xC4C48, size: 0x8, addend: 0x0, symName: __ZN5godot5MutexD0Ev.cold.1, symObjAddr: 0x4318, symBinAddr: 0xE0084, symSize: 0x1C }
  - { offset: 0xC4C5C, size: 0x8, addend: 0x0, symName: __ZN5godot5MutexD0Ev.cold.1, symObjAddr: 0x4318, symBinAddr: 0xE0084, symSize: 0x1C }
  - { offset: 0xC4C70, size: 0x8, addend: 0x0, symName: __ZN5godot5MutexD0Ev.cold.1, symObjAddr: 0x4318, symBinAddr: 0xE0084, symSize: 0x1C }
  - { offset: 0xC4C84, size: 0x8, addend: 0x0, symName: __ZN5godot5MutexD0Ev.cold.1, symObjAddr: 0x4318, symBinAddr: 0xE0084, symSize: 0x1C }
  - { offset: 0xC4C98, size: 0x8, addend: 0x0, symName: __ZN5godot5MutexD0Ev.cold.1, symObjAddr: 0x4318, symBinAddr: 0xE0084, symSize: 0x1C }
  - { offset: 0xC4CAC, size: 0x8, addend: 0x0, symName: __ZN5godot5MutexD0Ev.cold.1, symObjAddr: 0x4318, symBinAddr: 0xE0084, symSize: 0x1C }
  - { offset: 0xC4CC1, size: 0x8, addend: 0x0, symName: __ZN5godot5MutexD0Ev.cold.1, symObjAddr: 0x4318, symBinAddr: 0xE0084, symSize: 0x1C }
  - { offset: 0xC4CDA, size: 0x8, addend: 0x0, symName: __ZNK5godot13MethodBindTRSINS_3RefIN6sentry16SentryBreadcrumbEEEJRKNS_6StringEEE17gen_argument_typeEi, symObjAddr: 0x1B94, symBinAddr: 0x17018, symSize: 0x14 }
  - { offset: 0xC4D50, size: 0x8, addend: 0x0, symName: __ZNK5godot13MethodBindTRSINS_3RefIN6sentry16SentryBreadcrumbEEEJRKNS_6StringEEE22gen_argument_type_infoEi, symObjAddr: 0x1BA8, symBinAddr: 0x1702C, symSize: 0x68 }
  - { offset: 0xC4E49, size: 0x8, addend: 0x0, symName: __ZN5godot11GetTypeInfoINS_3RefIN6sentry16SentryBreadcrumbEEEvE14get_class_infoEv, symObjAddr: 0x1C9C, symBinAddr: 0x17120, symSize: 0x12C }
  - { offset: 0xC4EF1, size: 0x8, addend: 0x0, symName: __ZNK5godot13MethodBindTRSINS_3RefIN6sentry16SentryBreadcrumbEEEJRKNS_6StringEEE21get_argument_metadataEi, symObjAddr: 0x1C10, symBinAddr: 0x17094, symSize: 0x8 }
  - { offset: 0xC4F42, size: 0x8, addend: 0x0, symName: __ZNK5godot13MethodBindTRSINS_3RefIN6sentry16SentryBreadcrumbEEEJRKNS_6StringEEE4callEPvPKPKvxR20GDExtensionCallError, symObjAddr: 0x1C18, symBinAddr: 0x1709C, symSize: 0x5C }
  - { offset: 0xC4FEA, size: 0x8, addend: 0x0, symName: __ZNK5godot13MethodBindTRSINS_3RefIN6sentry16SentryBreadcrumbEEEJRKNS_6StringEEE7ptrcallEPvPKPKvS9_, symObjAddr: 0x1C74, symBinAddr: 0x170F8, symSize: 0x10 }
  - { offset: 0xC50AA, size: 0x8, addend: 0x0, symName: __ZN5godot13MethodBindTRSINS_3RefIN6sentry16SentryBreadcrumbEEEJRKNS_6StringEEED1Ev, symObjAddr: 0x1C84, symBinAddr: 0x17108, symSize: 0x4 }
  - { offset: 0xC50CD, size: 0x8, addend: 0x0, symName: __ZN5godot13MethodBindTRSINS_3RefIN6sentry16SentryBreadcrumbEEEJRKNS_6StringEEED1Ev, symObjAddr: 0x1C84, symBinAddr: 0x17108, symSize: 0x4 }
  - { offset: 0xC5105, size: 0x8, addend: 0x0, symName: __ZN5godot13MethodBindTRSINS_3RefIN6sentry16SentryBreadcrumbEEEJRKNS_6StringEEED0Ev, symObjAddr: 0x1C88, symBinAddr: 0x1710C, symSize: 0x14 }
  - { offset: 0xC516D, size: 0x8, addend: 0x0, symName: __ZN5godot11GetTypeInfoINS_3RefIN6sentry16SentryBreadcrumbEEEvE14get_class_infoEv.cold.1, symObjAddr: 0x4334, symBinAddr: 0xE00A0, symSize: 0x58 }
  - { offset: 0xC52CE, size: 0x8, addend: 0x0, symName: __ZN5godot43call_with_ptr_args_static_method_ret_helperINS_3RefIN6sentry16SentryBreadcrumbEEEJRKNS_6StringEEJLm0EEEEvPFT_DpT0_EPKPKvPvNS_13IndexSequenceIJXspT1_EEEE.cold.1, symObjAddr: 0x438C, symBinAddr: 0xE00F8, symSize: 0x30 }
  - { offset: 0xC535F, size: 0x8, addend: 0x0, symName: __ZN5godot18create_method_bindIN6sentry16SentryBreadcrumbEJRKNS_6StringEEEEPNS_10MethodBindEMT_FvDpT0_E.cold.1, symObjAddr: 0x43BC, symBinAddr: 0xE0128, symSize: 0x5C }
  - { offset: 0xC53F0, size: 0x8, addend: 0x0, symName: __ZN5godot18create_method_bindIN6sentry16SentryBreadcrumbENS_6StringEJEEEPNS_10MethodBindEMT_KFT0_DpT1_E.cold.1, symObjAddr: 0x4418, symBinAddr: 0xE0184, symSize: 0x5C }
  - { offset: 0xC54BA, size: 0x8, addend: 0x0, symName: __ZN5godot18create_method_bindIN6sentry16SentryBreadcrumbEJNS1_5LevelEEEEPNS_10MethodBindEMT_FvDpT0_E.cold.1, symObjAddr: 0x4474, symBinAddr: 0xE01E0, symSize: 0x5C }
  - { offset: 0xC54E9, size: 0x8, addend: 0x0, symName: __ZNK5godot11MethodBindTIJN6sentry5LevelEEE17gen_argument_typeEi, symObjAddr: 0x2AF4, symBinAddr: 0x1783C, symSize: 0x10 }
  - { offset: 0xC551F, size: 0x8, addend: 0x0, symName: __ZNK5godot11MethodBindTIJN6sentry5LevelEEE22gen_argument_type_infoEi, symObjAddr: 0x2B04, symBinAddr: 0x1784C, symSize: 0x138 }
  - { offset: 0xC5658, size: 0x8, addend: 0x0, symName: __ZNK5godot11MethodBindTIJN6sentry5LevelEEE21get_argument_metadataEi, symObjAddr: 0x2C3C, symBinAddr: 0x17984, symSize: 0x8 }
  - { offset: 0xC568E, size: 0x8, addend: 0x0, symName: __ZNK5godot11MethodBindTIJN6sentry5LevelEEE4callEPvPKPKvxR20GDExtensionCallError, symObjAddr: 0x2C44, symBinAddr: 0x1798C, symSize: 0x40 }
  - { offset: 0xC574E, size: 0x8, addend: 0x0, symName: __ZNK5godot11MethodBindTIJN6sentry5LevelEEE7ptrcallEPvPKPKvS4_, symObjAddr: 0x2C84, symBinAddr: 0x179CC, symSize: 0x20 }
  - { offset: 0xC5839, size: 0x8, addend: 0x0, symName: __ZN5godot11MethodBindTIJN6sentry5LevelEEED1Ev, symObjAddr: 0x2CA4, symBinAddr: 0x179EC, symSize: 0x4 }
  - { offset: 0xC585C, size: 0x8, addend: 0x0, symName: __ZN5godot11MethodBindTIJN6sentry5LevelEEED1Ev, symObjAddr: 0x2CA4, symBinAddr: 0x179EC, symSize: 0x4 }
  - { offset: 0xC5894, size: 0x8, addend: 0x0, symName: __ZN5godot11MethodBindTIJN6sentry5LevelEEED0Ev, symObjAddr: 0x2CA8, symBinAddr: 0x179F0, symSize: 0x14 }
  - { offset: 0xC58FC, size: 0x8, addend: 0x0, symName: __ZN5godot11GetTypeInfoIN6sentry5LevelEvE14get_class_infoEv, symObjAddr: 0x2D90, symBinAddr: 0x17AD8, symSize: 0x128 }
  - { offset: 0xC5A19, size: 0x8, addend: 0x0, symName: __ZN5godot18create_method_bindIN6sentry16SentryBreadcrumbENS1_5LevelEJEEEPNS_10MethodBindEMT_KFT0_DpT1_E.cold.1, symObjAddr: 0x44D0, symBinAddr: 0xE023C, symSize: 0x5C }
  - { offset: 0xC5A48, size: 0x8, addend: 0x0, symName: __ZNK5godot13MethodBindTRCIN6sentry5LevelEJEE17gen_argument_typeEi, symObjAddr: 0x321C, symBinAddr: 0x17F64, symSize: 0x8 }
  - { offset: 0xC5A7E, size: 0x8, addend: 0x0, symName: __ZNK5godot13MethodBindTRCIN6sentry5LevelEJEE22gen_argument_type_infoEi, symObjAddr: 0x3224, symBinAddr: 0x17F6C, symSize: 0x4 }
  - { offset: 0xC5AB5, size: 0x8, addend: 0x0, symName: __ZNK5godot13MethodBindTRCIN6sentry5LevelEJEE22gen_argument_type_infoEi, symObjAddr: 0x3224, symBinAddr: 0x17F6C, symSize: 0x4 }
  - { offset: 0xC5AC8, size: 0x8, addend: 0x0, symName: __ZNK5godot13MethodBindTRCIN6sentry5LevelEJEE21get_argument_metadataEi, symObjAddr: 0x3228, symBinAddr: 0x17F70, symSize: 0x8 }
  - { offset: 0xC5B23, size: 0x8, addend: 0x0, symName: __ZNK5godot13MethodBindTRCIN6sentry5LevelEJEE4callEPvPKPKvxR20GDExtensionCallError, symObjAddr: 0x3230, symBinAddr: 0x17F78, symSize: 0xC0 }
  - { offset: 0xC5C63, size: 0x8, addend: 0x0, symName: __ZNK5godot13MethodBindTRCIN6sentry5LevelEJEE7ptrcallEPvPKPKvS4_, symObjAddr: 0x32F0, symBinAddr: 0x18038, symSize: 0x3C }
  - { offset: 0xC5D50, size: 0x8, addend: 0x0, symName: __ZN5godot13MethodBindTRCIN6sentry5LevelEJEED1Ev, symObjAddr: 0x332C, symBinAddr: 0x18074, symSize: 0x4 }
  - { offset: 0xC5D73, size: 0x8, addend: 0x0, symName: __ZN5godot13MethodBindTRCIN6sentry5LevelEJEED1Ev, symObjAddr: 0x332C, symBinAddr: 0x18074, symSize: 0x4 }
  - { offset: 0xC5DAB, size: 0x8, addend: 0x0, symName: __ZN5godot13MethodBindTRCIN6sentry5LevelEJEED0Ev, symObjAddr: 0x3330, symBinAddr: 0x18078, symSize: 0x14 }
  - { offset: 0xC5E75, size: 0x8, addend: 0x0, symName: __ZN5godot18create_method_bindIN6sentry16SentryBreadcrumbEJRKNS_10DictionaryEEEEPNS_10MethodBindEMT_FvDpT0_E.cold.1, symObjAddr: 0x452C, symBinAddr: 0xE0298, symSize: 0x5C }
  - { offset: 0xC5EA4, size: 0x8, addend: 0x0, symName: __ZNK5godot11MethodBindTIJRKNS_10DictionaryEEE17gen_argument_typeEi, symObjAddr: 0x3458, symBinAddr: 0x181A0, symSize: 0x10 }
  - { offset: 0xC5EDA, size: 0x8, addend: 0x0, symName: __ZNK5godot11MethodBindTIJRKNS_10DictionaryEEE22gen_argument_type_infoEi, symObjAddr: 0x3468, symBinAddr: 0x181B0, symSize: 0x138 }
  - { offset: 0xC6013, size: 0x8, addend: 0x0, symName: __ZNK5godot11MethodBindTIJRKNS_10DictionaryEEE21get_argument_metadataEi, symObjAddr: 0x35A0, symBinAddr: 0x182E8, symSize: 0x8 }
  - { offset: 0xC6049, size: 0x8, addend: 0x0, symName: __ZNK5godot11MethodBindTIJRKNS_10DictionaryEEE4callEPvPKPKvxR20GDExtensionCallError, symObjAddr: 0x35A8, symBinAddr: 0x182F0, symSize: 0x40 }
  - { offset: 0xC6109, size: 0x8, addend: 0x0, symName: __ZNK5godot11MethodBindTIJRKNS_10DictionaryEEE7ptrcallEPvPKPKvS5_, symObjAddr: 0x35E8, symBinAddr: 0x18330, symSize: 0x80 }
  - { offset: 0xC6202, size: 0x8, addend: 0x0, symName: __ZN5godot11MethodBindTIJRKNS_10DictionaryEEED1Ev, symObjAddr: 0x3668, symBinAddr: 0x183B0, symSize: 0x4 }
  - { offset: 0xC6225, size: 0x8, addend: 0x0, symName: __ZN5godot11MethodBindTIJRKNS_10DictionaryEEED1Ev, symObjAddr: 0x3668, symBinAddr: 0x183B0, symSize: 0x4 }
  - { offset: 0xC625D, size: 0x8, addend: 0x0, symName: __ZN5godot11MethodBindTIJRKNS_10DictionaryEEED0Ev, symObjAddr: 0x366C, symBinAddr: 0x183B4, symSize: 0x14 }
  - { offset: 0xC6341, size: 0x8, addend: 0x0, symName: __ZN5godot18create_method_bindIN6sentry16SentryBreadcrumbENS_3RefINS1_15SentryTimestampEEEJEEEPNS_10MethodBindEMT_FT0_DpT1_E.cold.1, symObjAddr: 0x4588, symBinAddr: 0xE02F4, symSize: 0x5C }
  - { offset: 0xC6370, size: 0x8, addend: 0x0, symName: __ZNK5godot12MethodBindTRINS_3RefIN6sentry15SentryTimestampEEEJEE17gen_argument_typeEi, symObjAddr: 0x3A48, symBinAddr: 0x18790, symSize: 0x8 }
  - { offset: 0xC63A6, size: 0x8, addend: 0x0, symName: __ZNK5godot12MethodBindTRINS_3RefIN6sentry15SentryTimestampEEEJEE22gen_argument_type_infoEi, symObjAddr: 0x3A50, symBinAddr: 0x18798, symSize: 0x4 }
  - { offset: 0xC63DD, size: 0x8, addend: 0x0, symName: __ZNK5godot12MethodBindTRINS_3RefIN6sentry15SentryTimestampEEEJEE22gen_argument_type_infoEi, symObjAddr: 0x3A50, symBinAddr: 0x18798, symSize: 0x4 }
  - { offset: 0xC63F0, size: 0x8, addend: 0x0, symName: __ZN5godot11GetTypeInfoINS_3RefIN6sentry15SentryTimestampEEEvE14get_class_infoEv, symObjAddr: 0x3B74, symBinAddr: 0x188BC, symSize: 0x12C }
  - { offset: 0xC6498, size: 0x8, addend: 0x0, symName: __ZNK5godot12MethodBindTRINS_3RefIN6sentry15SentryTimestampEEEJEE21get_argument_metadataEi, symObjAddr: 0x3A54, symBinAddr: 0x1879C, symSize: 0x8 }
  - { offset: 0xC64CE, size: 0x8, addend: 0x0, symName: __ZNK5godot12MethodBindTRINS_3RefIN6sentry15SentryTimestampEEEJEE4callEPvPKPKvxR20GDExtensionCallError, symObjAddr: 0x3A5C, symBinAddr: 0x187A4, symSize: 0x64 }
  - { offset: 0xC660A, size: 0x8, addend: 0x0, symName: __ZNK5godot12MethodBindTRINS_3RefIN6sentry15SentryTimestampEEEJEE7ptrcallEPvPKPKvS6_, symObjAddr: 0x3AC0, symBinAddr: 0x18808, symSize: 0x9C }
  - { offset: 0xC677C, size: 0x8, addend: 0x0, symName: __ZNK5godot12MethodBindTRINS_3RefIN6sentry15SentryTimestampEEEJEE7ptrcallEPvPKPKvS6_.cold.1, symObjAddr: 0x45E4, symBinAddr: 0xE0350, symSize: 0x30 }
  - { offset: 0xC67F3, size: 0x8, addend: 0x0, symName: __ZN5godot12MethodBindTRINS_3RefIN6sentry15SentryTimestampEEEJEED1Ev, symObjAddr: 0x3B5C, symBinAddr: 0x188A4, symSize: 0x4 }
  - { offset: 0xC6816, size: 0x8, addend: 0x0, symName: __ZN5godot12MethodBindTRINS_3RefIN6sentry15SentryTimestampEEEJEED1Ev, symObjAddr: 0x3B5C, symBinAddr: 0x188A4, symSize: 0x4 }
  - { offset: 0xC684E, size: 0x8, addend: 0x0, symName: __ZN5godot12MethodBindTRINS_3RefIN6sentry15SentryTimestampEEEJEED0Ev, symObjAddr: 0x3B60, symBinAddr: 0x188A8, symSize: 0x14 }
  - { offset: 0xC68BD, size: 0x8, addend: 0x0, symName: __ZN5godot11GetTypeInfoINS_3RefIN6sentry15SentryTimestampEEEvE14get_class_infoEv.cold.1, symObjAddr: 0x4614, symBinAddr: 0xE0380, symSize: 0x58 }
  - { offset: 0xC694C, size: 0x8, addend: 0x0, symName: _OUTLINED_FUNCTION_0, symObjAddr: 0x466C, symBinAddr: 0x18ACC, symSize: 0x10 }
  - { offset: 0xC6964, size: 0x8, addend: 0x0, symName: _OUTLINED_FUNCTION_1, symObjAddr: 0x467C, symBinAddr: 0x18ADC, symSize: 0xC }
  - { offset: 0xC697C, size: 0x8, addend: 0x0, symName: _OUTLINED_FUNCTION_2, symObjAddr: 0x4688, symBinAddr: 0x18AE8, symSize: 0xC }
  - { offset: 0xC6994, size: 0x8, addend: 0x0, symName: _OUTLINED_FUNCTION_3, symObjAddr: 0x4694, symBinAddr: 0x18AF4, symSize: 0x8 }
  - { offset: 0xC69AC, size: 0x8, addend: 0x0, symName: _OUTLINED_FUNCTION_4, symObjAddr: 0x469C, symBinAddr: 0x18AFC, symSize: 0x8 }
  - { offset: 0xC69C4, size: 0x8, addend: 0x0, symName: _OUTLINED_FUNCTION_5, symObjAddr: 0x46A4, symBinAddr: 0x18B04, symSize: 0x8 }
  - { offset: 0xC69DC, size: 0x8, addend: 0x0, symName: _OUTLINED_FUNCTION_6, symObjAddr: 0x46AC, symBinAddr: 0x18B0C, symSize: 0x8 }
  - { offset: 0xC69F4, size: 0x8, addend: 0x0, symName: _OUTLINED_FUNCTION_7, symObjAddr: 0x46B4, symBinAddr: 0x18B14, symSize: 0xC }
  - { offset: 0xCCB60, size: 0x8, addend: 0x0, symName: __ZN5godot18create_method_bindIN6sentry11SentryEventENS_6StringEJEEEPNS_10MethodBindEMT_KFT0_DpT1_E, symObjAddr: 0x27D4, symBinAddr: 0x1A89C, symSize: 0x12C }
  - { offset: 0xCCCB0, size: 0x8, addend: 0x0, symName: __ZN5godot18create_method_bindIN6sentry11SentryEventEJRKNS_6StringEEEEPNS_10MethodBindEMT_FvDpT0_E, symObjAddr: 0x2B6C, symBinAddr: 0x1A9C8, symSize: 0x114 }
  - { offset: 0xCCDE3, size: 0x8, addend: 0x0, symName: __ZN5godot18create_method_bindIN6sentry11SentryEventEJRKNS_3RefINS1_15SentryTimestampEEEEEEPNS_10MethodBindEMT_FvDpT0_E, symObjAddr: 0x3150, symBinAddr: 0x1AADC, symSize: 0x114 }
  - { offset: 0xCCF16, size: 0x8, addend: 0x0, symName: __ZN5godot18create_method_bindIN6sentry11SentryEventENS_3RefINS1_15SentryTimestampEEEJEEEPNS_10MethodBindEMT_KFT0_DpT1_E, symObjAddr: 0x3924, symBinAddr: 0x1B2B0, symSize: 0x12C }
  - { offset: 0xCD04C, size: 0x8, addend: 0x0, symName: __ZN5godot18create_method_bindIN6sentry11SentryEventEJNS1_5LevelEEEEPNS_10MethodBindEMT_FvDpT0_E, symObjAddr: 0x3D8C, symBinAddr: 0x1B5EC, symSize: 0x114 }
  - { offset: 0xCD17F, size: 0x8, addend: 0x0, symName: __ZN5godot18create_method_bindIN6sentry11SentryEventENS1_5LevelEJEEEPNS_10MethodBindEMT_KFT0_DpT1_E, symObjAddr: 0x449C, symBinAddr: 0x1B700, symSize: 0x12C }
  - { offset: 0xCD2B5, size: 0x8, addend: 0x0, symName: __ZN5godot18create_method_bindIN6sentry11SentryEventEJRKNS_6StringES5_EEEPNS_10MethodBindEMT_FvDpT0_E, symObjAddr: 0x46F0, symBinAddr: 0x1B82C, symSize: 0x118 }
  - { offset: 0xCD3ED, size: 0x8, addend: 0x0, symName: __ZN5godot18create_method_bindIN6sentry11SentryEventENS_6StringEJRKS3_EEEPNS_10MethodBindEMT_FT0_DpT1_E, symObjAddr: 0x4BF4, symBinAddr: 0x1BD30, symSize: 0x120 }
  - { offset: 0xCD529, size: 0x8, addend: 0x0, symName: __ZN5godot18create_method_bindIN6sentry11SentryEventEbJEEEPNS_10MethodBindEMT_KFT0_DpT1_E, symObjAddr: 0x50F8, symBinAddr: 0x1C234, symSize: 0x12C }
  - { offset: 0xCDBA5, size: 0x8, addend: 0x0, symName: __ZN5godot34call_get_argument_type_info_helperIRKNS_3RefIN6sentry15SentryTimestampEEEEEviRiRNS_12PropertyInfoE, symObjAddr: 0x34CC, symBinAddr: 0x1AE58, symSize: 0xD4 }
  - { offset: 0xCDC5D, size: 0x8, addend: 0x0, symName: __ZN5godot25call_with_variant_args_dvINS_20_gde_UnexistingClassEJRKNS_3RefIN6sentry15SentryTimestampEEEEEEvPT_MS8_FvDpT0_EPKPKviR20GDExtensionCallErrorRKNSt3__16vectorINS_7VariantENSK_9allocatorISM_EEEE, symObjAddr: 0x36CC, symBinAddr: 0x1B058, symSize: 0x170 }
  - { offset: 0xCE179, size: 0x8, addend: 0x0, symName: __ZN5godot30call_with_variant_args_retc_dvINS_20_gde_UnexistingClassENS_3RefIN6sentry15SentryTimestampEEEJEEEvPT_MS6_KFT0_DpT1_EPKPKviRNS_7VariantER20GDExtensionCallErrorRKNSt3__16vectorISH_NSL_9allocatorISH_EEEE, symObjAddr: 0x3CA8, symBinAddr: 0x1B508, symSize: 0xE4 }
  - { offset: 0xCE824, size: 0x8, addend: 0x0, symName: __ZN5godot25call_with_variant_args_dvINS_20_gde_UnexistingClassEJRKNS_6StringES4_EEEvPT_MS5_FvDpT0_EPKPKviR20GDExtensionCallErrorRKNSt3__16vectorINS_7VariantENSH_9allocatorISJ_EEEE, symObjAddr: 0x4A54, symBinAddr: 0x1BB90, symSize: 0x1A0 }
  - { offset: 0xCEC04, size: 0x8, addend: 0x0, symName: __ZN5godot29call_with_variant_args_ret_dvINS_20_gde_UnexistingClassENS_6StringEJRKS2_EEEvPT_MS5_FT0_DpT1_EPKPKviRNS_7VariantER20GDExtensionCallErrorRKNSt3__16vectorISG_NSK_9allocatorISG_EEEE, symObjAddr: 0x4F94, symBinAddr: 0x1C0D0, symSize: 0x164 }
  - { offset: 0xDCA7F, size: 0x8, addend: 0x0, symName: ___cxx_global_var_init, symObjAddr: 0x6030, symBinAddr: 0x1C5C0, symSize: 0x4C }
  - { offset: 0xDCB04, size: 0x8, addend: 0x0, symName: ___cxx_global_var_init.1, symObjAddr: 0x607C, symBinAddr: 0x1C60C, symSize: 0x4C }
  - { offset: 0xDCB89, size: 0x8, addend: 0x0, symName: ___cxx_global_var_init.2, symObjAddr: 0x60C8, symBinAddr: 0x1C658, symSize: 0x4C }
  - { offset: 0xDCC0E, size: 0x8, addend: 0x0, symName: ___cxx_global_var_init.3, symObjAddr: 0x6114, symBinAddr: 0x1C6A4, symSize: 0x4C }
  - { offset: 0xDCC93, size: 0x8, addend: 0x0, symName: ___cxx_global_var_init.4, symObjAddr: 0x6160, symBinAddr: 0x1C6F0, symSize: 0x4C }
  - { offset: 0xDCD18, size: 0x8, addend: 0x0, symName: ___cxx_global_var_init.5, symObjAddr: 0x61AC, symBinAddr: 0x1C73C, symSize: 0x4C }
  - { offset: 0xDCD9D, size: 0x8, addend: 0x0, symName: ___cxx_global_var_init.6, symObjAddr: 0x61F8, symBinAddr: 0x1C788, symSize: 0x4C }
  - { offset: 0xDD869, size: 0x8, addend: 0x0, symName: __ZN6sentry11SentryEvent13_bind_methodsEv, symObjAddr: 0x0, symBinAddr: 0x18D34, symSize: 0x1B68 }
  - { offset: 0xE1CEE, size: 0x8, addend: 0x0, symName: __ZN6sentry11SentryEvent13_bind_methodsEv.cold.1, symObjAddr: 0x543C, symBinAddr: 0xE03D8, symSize: 0x58 }
  - { offset: 0xE1D1C, size: 0x8, addend: 0x0, symName: __ZN6sentry11SentryEvent13_bind_methodsEv.cold.2, symObjAddr: 0x5494, symBinAddr: 0xE0430, symSize: 0x58 }
  - { offset: 0xE1D4A, size: 0x8, addend: 0x0, symName: __ZN6sentry11SentryEvent13_bind_methodsEv.cold.3, symObjAddr: 0x54EC, symBinAddr: 0xE0488, symSize: 0x58 }
  - { offset: 0xE1D78, size: 0x8, addend: 0x0, symName: __ZN6sentry11SentryEvent13_bind_methodsEv.cold.4, symObjAddr: 0x5544, symBinAddr: 0xE04E0, symSize: 0x58 }
  - { offset: 0xE1DA6, size: 0x8, addend: 0x0, symName: __ZN6sentry11SentryEvent13_bind_methodsEv.cold.5, symObjAddr: 0x559C, symBinAddr: 0xE0538, symSize: 0x58 }
  - { offset: 0xE1DD4, size: 0x8, addend: 0x0, symName: __ZN6sentry11SentryEvent13_bind_methodsEv.cold.6, symObjAddr: 0x55F4, symBinAddr: 0xE0590, symSize: 0x58 }
  - { offset: 0xE1E02, size: 0x8, addend: 0x0, symName: __ZN6sentry11SentryEvent13_bind_methodsEv.cold.7, symObjAddr: 0x564C, symBinAddr: 0xE05E8, symSize: 0x58 }
  - { offset: 0xE1E30, size: 0x8, addend: 0x0, symName: __ZN6sentry11SentryEvent13_bind_methodsEv.cold.8, symObjAddr: 0x56A4, symBinAddr: 0xE0640, symSize: 0x58 }
  - { offset: 0xE1E5E, size: 0x8, addend: 0x0, symName: __ZN6sentry11SentryEvent13_bind_methodsEv.cold.9, symObjAddr: 0x56FC, symBinAddr: 0xE0698, symSize: 0x58 }
  - { offset: 0xE1E93, size: 0x8, addend: 0x0, symName: __ZN5godot8internal23EngineClassRegistrationINS_6ObjectEE8callbackEv.cold.1, symObjAddr: 0x5754, symBinAddr: 0xE06F0, symSize: 0x5C }
  - { offset: 0xE1F2E, size: 0x8, addend: 0x0, symName: __ZN5godot6ObjectD1Ev.cold.1, symObjAddr: 0x57B0, symBinAddr: 0xE074C, symSize: 0x1C }
  - { offset: 0xE1F49, size: 0x8, addend: 0x0, symName: __ZN5godot6ObjectD1Ev.cold.1, symObjAddr: 0x57B0, symBinAddr: 0xE074C, symSize: 0x1C }
  - { offset: 0xE1F5D, size: 0x8, addend: 0x0, symName: __ZN5godot6ObjectD1Ev.cold.1, symObjAddr: 0x57B0, symBinAddr: 0xE074C, symSize: 0x1C }
  - { offset: 0xE1F71, size: 0x8, addend: 0x0, symName: __ZN5godot6ObjectD1Ev.cold.1, symObjAddr: 0x57B0, symBinAddr: 0xE074C, symSize: 0x1C }
  - { offset: 0xE1F86, size: 0x8, addend: 0x0, symName: __ZN5godot6ObjectD1Ev.cold.1, symObjAddr: 0x57B0, symBinAddr: 0xE074C, symSize: 0x1C }
  - { offset: 0xE1FB6, size: 0x8, addend: 0x0, symName: __ZN5godot6ObjectD0Ev.cold.1, symObjAddr: 0x57CC, symBinAddr: 0xE0768, symSize: 0x1C }
  - { offset: 0xE1FD1, size: 0x8, addend: 0x0, symName: __ZN5godot6ObjectD0Ev.cold.1, symObjAddr: 0x57CC, symBinAddr: 0xE0768, symSize: 0x1C }
  - { offset: 0xE1FE5, size: 0x8, addend: 0x0, symName: __ZN5godot6ObjectD0Ev.cold.1, symObjAddr: 0x57CC, symBinAddr: 0xE0768, symSize: 0x1C }
  - { offset: 0xE1FF9, size: 0x8, addend: 0x0, symName: __ZN5godot6ObjectD0Ev.cold.1, symObjAddr: 0x57CC, symBinAddr: 0xE0768, symSize: 0x1C }
  - { offset: 0xE200D, size: 0x8, addend: 0x0, symName: __ZN5godot6ObjectD0Ev.cold.1, symObjAddr: 0x57CC, symBinAddr: 0xE0768, symSize: 0x1C }
  - { offset: 0xE2022, size: 0x8, addend: 0x0, symName: __ZN5godot6ObjectD0Ev.cold.1, symObjAddr: 0x57CC, symBinAddr: 0xE0768, symSize: 0x1C }
  - { offset: 0xE2039, size: 0x8, addend: 0x0, symName: __ZN5godot7WrappedD1Ev.cold.1, symObjAddr: 0x57E8, symBinAddr: 0xE0784, symSize: 0x1C }
  - { offset: 0xE2054, size: 0x8, addend: 0x0, symName: __ZN5godot7WrappedD1Ev.cold.1, symObjAddr: 0x57E8, symBinAddr: 0xE0784, symSize: 0x1C }
  - { offset: 0xE2068, size: 0x8, addend: 0x0, symName: __ZN5godot7WrappedD1Ev.cold.1, symObjAddr: 0x57E8, symBinAddr: 0xE0784, symSize: 0x1C }
  - { offset: 0xE207D, size: 0x8, addend: 0x0, symName: __ZN5godot7WrappedD1Ev.cold.1, symObjAddr: 0x57E8, symBinAddr: 0xE0784, symSize: 0x1C }
  - { offset: 0xE20AC, size: 0x8, addend: 0x0, symName: __ZN5godot7WrappedD0Ev.cold.1, symObjAddr: 0x5804, symBinAddr: 0xE07A0, symSize: 0x1C }
  - { offset: 0xE20C7, size: 0x8, addend: 0x0, symName: __ZN5godot7WrappedD0Ev.cold.1, symObjAddr: 0x5804, symBinAddr: 0xE07A0, symSize: 0x1C }
  - { offset: 0xE20DB, size: 0x8, addend: 0x0, symName: __ZN5godot7WrappedD0Ev.cold.1, symObjAddr: 0x5804, symBinAddr: 0xE07A0, symSize: 0x1C }
  - { offset: 0xE20EF, size: 0x8, addend: 0x0, symName: __ZN5godot7WrappedD0Ev.cold.1, symObjAddr: 0x5804, symBinAddr: 0xE07A0, symSize: 0x1C }
  - { offset: 0xE2104, size: 0x8, addend: 0x0, symName: __ZN5godot7WrappedD0Ev.cold.1, symObjAddr: 0x5804, symBinAddr: 0xE07A0, symSize: 0x1C }
  - { offset: 0xE211A, size: 0x8, addend: 0x0, symName: __ZN5godot4ListINS_12PropertyInfoENS_16DefaultAllocatorEE5_Data5eraseEPNS3_7ElementE.cold.2, symObjAddr: 0x5840, symBinAddr: 0xE07DC, symSize: 0x20 }
  - { offset: 0xE2132, size: 0x8, addend: 0x0, symName: __ZN5godot4ListINS_12PropertyInfoENS_16DefaultAllocatorEE5_Data5eraseEPNS3_7ElementE.cold.1, symObjAddr: 0x5820, symBinAddr: 0xE07BC, symSize: 0x20 }
  - { offset: 0xE2151, size: 0x8, addend: 0x0, symName: __ZN5godot8internal23EngineClassRegistrationINS_16ClassDBSingletonEE8callbackEv.cold.1, symObjAddr: 0x5860, symBinAddr: 0xE07FC, symSize: 0x5C }
  - { offset: 0xE2186, size: 0x8, addend: 0x0, symName: __ZN5godot8internal23EngineClassRegistrationINS_10RefCountedEE8callbackEv.cold.1, symObjAddr: 0x58BC, symBinAddr: 0xE0858, symSize: 0x5C }
  - { offset: 0xE21D0, size: 0x8, addend: 0x0, symName: __ZN5godot10RefCountedD1Ev.cold.1, symObjAddr: 0x5918, symBinAddr: 0xE08B4, symSize: 0x1C }
  - { offset: 0xE21EB, size: 0x8, addend: 0x0, symName: __ZN5godot10RefCountedD1Ev.cold.1, symObjAddr: 0x5918, symBinAddr: 0xE08B4, symSize: 0x1C }
  - { offset: 0xE21FF, size: 0x8, addend: 0x0, symName: __ZN5godot10RefCountedD1Ev.cold.1, symObjAddr: 0x5918, symBinAddr: 0xE08B4, symSize: 0x1C }
  - { offset: 0xE2213, size: 0x8, addend: 0x0, symName: __ZN5godot10RefCountedD1Ev.cold.1, symObjAddr: 0x5918, symBinAddr: 0xE08B4, symSize: 0x1C }
  - { offset: 0xE2227, size: 0x8, addend: 0x0, symName: __ZN5godot10RefCountedD1Ev.cold.1, symObjAddr: 0x5918, symBinAddr: 0xE08B4, symSize: 0x1C }
  - { offset: 0xE223C, size: 0x8, addend: 0x0, symName: __ZN5godot10RefCountedD1Ev.cold.1, symObjAddr: 0x5918, symBinAddr: 0xE08B4, symSize: 0x1C }
  - { offset: 0xE226F, size: 0x8, addend: 0x0, symName: __ZN5godot10RefCountedD0Ev.cold.1, symObjAddr: 0x5934, symBinAddr: 0xE08D0, symSize: 0x1C }
  - { offset: 0xE228A, size: 0x8, addend: 0x0, symName: __ZN5godot10RefCountedD0Ev.cold.1, symObjAddr: 0x5934, symBinAddr: 0xE08D0, symSize: 0x1C }
  - { offset: 0xE229E, size: 0x8, addend: 0x0, symName: __ZN5godot10RefCountedD0Ev.cold.1, symObjAddr: 0x5934, symBinAddr: 0xE08D0, symSize: 0x1C }
  - { offset: 0xE22B2, size: 0x8, addend: 0x0, symName: __ZN5godot10RefCountedD0Ev.cold.1, symObjAddr: 0x5934, symBinAddr: 0xE08D0, symSize: 0x1C }
  - { offset: 0xE22C6, size: 0x8, addend: 0x0, symName: __ZN5godot10RefCountedD0Ev.cold.1, symObjAddr: 0x5934, symBinAddr: 0xE08D0, symSize: 0x1C }
  - { offset: 0xE22DA, size: 0x8, addend: 0x0, symName: __ZN5godot10RefCountedD0Ev.cold.1, symObjAddr: 0x5934, symBinAddr: 0xE08D0, symSize: 0x1C }
  - { offset: 0xE22EF, size: 0x8, addend: 0x0, symName: __ZN5godot10RefCountedD0Ev.cold.1, symObjAddr: 0x5934, symBinAddr: 0xE08D0, symSize: 0x1C }
  - { offset: 0xE230E, size: 0x8, addend: 0x0, symName: __ZN5godot8internal23EngineClassRegistrationINS_10ConfigFileEE8callbackEv.cold.1, symObjAddr: 0x5950, symBinAddr: 0xE08EC, symSize: 0x5C }
  - { offset: 0xE2358, size: 0x8, addend: 0x0, symName: __ZN5godot10ConfigFileD1Ev.cold.1, symObjAddr: 0x59AC, symBinAddr: 0xE0948, symSize: 0x1C }
  - { offset: 0xE2373, size: 0x8, addend: 0x0, symName: __ZN5godot10ConfigFileD1Ev.cold.1, symObjAddr: 0x59AC, symBinAddr: 0xE0948, symSize: 0x1C }
  - { offset: 0xE2387, size: 0x8, addend: 0x0, symName: __ZN5godot10ConfigFileD1Ev.cold.1, symObjAddr: 0x59AC, symBinAddr: 0xE0948, symSize: 0x1C }
  - { offset: 0xE239B, size: 0x8, addend: 0x0, symName: __ZN5godot10ConfigFileD1Ev.cold.1, symObjAddr: 0x59AC, symBinAddr: 0xE0948, symSize: 0x1C }
  - { offset: 0xE23AF, size: 0x8, addend: 0x0, symName: __ZN5godot10ConfigFileD1Ev.cold.1, symObjAddr: 0x59AC, symBinAddr: 0xE0948, symSize: 0x1C }
  - { offset: 0xE23C3, size: 0x8, addend: 0x0, symName: __ZN5godot10ConfigFileD1Ev.cold.1, symObjAddr: 0x59AC, symBinAddr: 0xE0948, symSize: 0x1C }
  - { offset: 0xE23D8, size: 0x8, addend: 0x0, symName: __ZN5godot10ConfigFileD1Ev.cold.1, symObjAddr: 0x59AC, symBinAddr: 0xE0948, symSize: 0x1C }
  - { offset: 0xE240C, size: 0x8, addend: 0x0, symName: __ZN5godot10ConfigFileD0Ev.cold.1, symObjAddr: 0x59C8, symBinAddr: 0xE0964, symSize: 0x1C }
  - { offset: 0xE2427, size: 0x8, addend: 0x0, symName: __ZN5godot10ConfigFileD0Ev.cold.1, symObjAddr: 0x59C8, symBinAddr: 0xE0964, symSize: 0x1C }
  - { offset: 0xE243B, size: 0x8, addend: 0x0, symName: __ZN5godot10ConfigFileD0Ev.cold.1, symObjAddr: 0x59C8, symBinAddr: 0xE0964, symSize: 0x1C }
  - { offset: 0xE244F, size: 0x8, addend: 0x0, symName: __ZN5godot10ConfigFileD0Ev.cold.1, symObjAddr: 0x59C8, symBinAddr: 0xE0964, symSize: 0x1C }
  - { offset: 0xE2463, size: 0x8, addend: 0x0, symName: __ZN5godot10ConfigFileD0Ev.cold.1, symObjAddr: 0x59C8, symBinAddr: 0xE0964, symSize: 0x1C }
  - { offset: 0xE2477, size: 0x8, addend: 0x0, symName: __ZN5godot10ConfigFileD0Ev.cold.1, symObjAddr: 0x59C8, symBinAddr: 0xE0964, symSize: 0x1C }
  - { offset: 0xE248B, size: 0x8, addend: 0x0, symName: __ZN5godot10ConfigFileD0Ev.cold.1, symObjAddr: 0x59C8, symBinAddr: 0xE0964, symSize: 0x1C }
  - { offset: 0xE24A0, size: 0x8, addend: 0x0, symName: __ZN5godot10ConfigFileD0Ev.cold.1, symObjAddr: 0x59C8, symBinAddr: 0xE0964, symSize: 0x1C }
  - { offset: 0xE24C0, size: 0x8, addend: 0x0, symName: __ZN5godot8internal23EngineClassRegistrationINS_6LoggerEE8callbackEv.cold.1, symObjAddr: 0x59E4, symBinAddr: 0xE0980, symSize: 0x5C }
  - { offset: 0xE24F5, size: 0x8, addend: 0x0, symName: __ZN5godot8internal23EngineClassRegistrationINS_15ScriptBacktraceEE8callbackEv.cold.1, symObjAddr: 0x5A40, symBinAddr: 0xE09DC, symSize: 0x5C }
  - { offset: 0xE253F, size: 0x8, addend: 0x0, symName: __ZN5godot15ScriptBacktraceD1Ev.cold.1, symObjAddr: 0x5A9C, symBinAddr: 0xE0A38, symSize: 0x1C }
  - { offset: 0xE255A, size: 0x8, addend: 0x0, symName: __ZN5godot15ScriptBacktraceD1Ev.cold.1, symObjAddr: 0x5A9C, symBinAddr: 0xE0A38, symSize: 0x1C }
  - { offset: 0xE256E, size: 0x8, addend: 0x0, symName: __ZN5godot15ScriptBacktraceD1Ev.cold.1, symObjAddr: 0x5A9C, symBinAddr: 0xE0A38, symSize: 0x1C }
  - { offset: 0xE2582, size: 0x8, addend: 0x0, symName: __ZN5godot15ScriptBacktraceD1Ev.cold.1, symObjAddr: 0x5A9C, symBinAddr: 0xE0A38, symSize: 0x1C }
  - { offset: 0xE2596, size: 0x8, addend: 0x0, symName: __ZN5godot15ScriptBacktraceD1Ev.cold.1, symObjAddr: 0x5A9C, symBinAddr: 0xE0A38, symSize: 0x1C }
  - { offset: 0xE25AA, size: 0x8, addend: 0x0, symName: __ZN5godot15ScriptBacktraceD1Ev.cold.1, symObjAddr: 0x5A9C, symBinAddr: 0xE0A38, symSize: 0x1C }
  - { offset: 0xE25BF, size: 0x8, addend: 0x0, symName: __ZN5godot15ScriptBacktraceD1Ev.cold.1, symObjAddr: 0x5A9C, symBinAddr: 0xE0A38, symSize: 0x1C }
  - { offset: 0xE25F3, size: 0x8, addend: 0x0, symName: __ZN5godot15ScriptBacktraceD0Ev.cold.1, symObjAddr: 0x5AB8, symBinAddr: 0xE0A54, symSize: 0x1C }
  - { offset: 0xE260E, size: 0x8, addend: 0x0, symName: __ZN5godot15ScriptBacktraceD0Ev.cold.1, symObjAddr: 0x5AB8, symBinAddr: 0xE0A54, symSize: 0x1C }
  - { offset: 0xE2622, size: 0x8, addend: 0x0, symName: __ZN5godot15ScriptBacktraceD0Ev.cold.1, symObjAddr: 0x5AB8, symBinAddr: 0xE0A54, symSize: 0x1C }
  - { offset: 0xE2636, size: 0x8, addend: 0x0, symName: __ZN5godot15ScriptBacktraceD0Ev.cold.1, symObjAddr: 0x5AB8, symBinAddr: 0xE0A54, symSize: 0x1C }
  - { offset: 0xE264A, size: 0x8, addend: 0x0, symName: __ZN5godot15ScriptBacktraceD0Ev.cold.1, symObjAddr: 0x5AB8, symBinAddr: 0xE0A54, symSize: 0x1C }
  - { offset: 0xE265E, size: 0x8, addend: 0x0, symName: __ZN5godot15ScriptBacktraceD0Ev.cold.1, symObjAddr: 0x5AB8, symBinAddr: 0xE0A54, symSize: 0x1C }
  - { offset: 0xE2672, size: 0x8, addend: 0x0, symName: __ZN5godot15ScriptBacktraceD0Ev.cold.1, symObjAddr: 0x5AB8, symBinAddr: 0xE0A54, symSize: 0x1C }
  - { offset: 0xE2687, size: 0x8, addend: 0x0, symName: __ZN5godot15ScriptBacktraceD0Ev.cold.1, symObjAddr: 0x5AB8, symBinAddr: 0xE0A54, symSize: 0x1C }
  - { offset: 0xE26A7, size: 0x8, addend: 0x0, symName: __ZN5godot8internal23EngineClassRegistrationINS_5MutexEE8callbackEv.cold.1, symObjAddr: 0x5AD4, symBinAddr: 0xE0A70, symSize: 0x5C }
  - { offset: 0xE26F1, size: 0x8, addend: 0x0, symName: __ZN5godot5MutexD1Ev.cold.1, symObjAddr: 0x5B30, symBinAddr: 0xE0ACC, symSize: 0x1C }
  - { offset: 0xE270C, size: 0x8, addend: 0x0, symName: __ZN5godot5MutexD1Ev.cold.1, symObjAddr: 0x5B30, symBinAddr: 0xE0ACC, symSize: 0x1C }
  - { offset: 0xE2720, size: 0x8, addend: 0x0, symName: __ZN5godot5MutexD1Ev.cold.1, symObjAddr: 0x5B30, symBinAddr: 0xE0ACC, symSize: 0x1C }
  - { offset: 0xE2734, size: 0x8, addend: 0x0, symName: __ZN5godot5MutexD1Ev.cold.1, symObjAddr: 0x5B30, symBinAddr: 0xE0ACC, symSize: 0x1C }
  - { offset: 0xE2748, size: 0x8, addend: 0x0, symName: __ZN5godot5MutexD1Ev.cold.1, symObjAddr: 0x5B30, symBinAddr: 0xE0ACC, symSize: 0x1C }
  - { offset: 0xE275C, size: 0x8, addend: 0x0, symName: __ZN5godot5MutexD1Ev.cold.1, symObjAddr: 0x5B30, symBinAddr: 0xE0ACC, symSize: 0x1C }
  - { offset: 0xE2771, size: 0x8, addend: 0x0, symName: __ZN5godot5MutexD1Ev.cold.1, symObjAddr: 0x5B30, symBinAddr: 0xE0ACC, symSize: 0x1C }
  - { offset: 0xE27A5, size: 0x8, addend: 0x0, symName: __ZN5godot5MutexD0Ev.cold.1, symObjAddr: 0x5B4C, symBinAddr: 0xE0AE8, symSize: 0x1C }
  - { offset: 0xE27C0, size: 0x8, addend: 0x0, symName: __ZN5godot5MutexD0Ev.cold.1, symObjAddr: 0x5B4C, symBinAddr: 0xE0AE8, symSize: 0x1C }
  - { offset: 0xE27D4, size: 0x8, addend: 0x0, symName: __ZN5godot5MutexD0Ev.cold.1, symObjAddr: 0x5B4C, symBinAddr: 0xE0AE8, symSize: 0x1C }
  - { offset: 0xE27E8, size: 0x8, addend: 0x0, symName: __ZN5godot5MutexD0Ev.cold.1, symObjAddr: 0x5B4C, symBinAddr: 0xE0AE8, symSize: 0x1C }
  - { offset: 0xE27FC, size: 0x8, addend: 0x0, symName: __ZN5godot5MutexD0Ev.cold.1, symObjAddr: 0x5B4C, symBinAddr: 0xE0AE8, symSize: 0x1C }
  - { offset: 0xE2810, size: 0x8, addend: 0x0, symName: __ZN5godot5MutexD0Ev.cold.1, symObjAddr: 0x5B4C, symBinAddr: 0xE0AE8, symSize: 0x1C }
  - { offset: 0xE2824, size: 0x8, addend: 0x0, symName: __ZN5godot5MutexD0Ev.cold.1, symObjAddr: 0x5B4C, symBinAddr: 0xE0AE8, symSize: 0x1C }
  - { offset: 0xE2839, size: 0x8, addend: 0x0, symName: __ZN5godot5MutexD0Ev.cold.1, symObjAddr: 0x5B4C, symBinAddr: 0xE0AE8, symSize: 0x1C }
  - { offset: 0xE294B, size: 0x8, addend: 0x0, symName: __ZN5godot18create_method_bindIN6sentry11SentryEventENS_6StringEJEEEPNS_10MethodBindEMT_KFT0_DpT1_E.cold.1, symObjAddr: 0x5B68, symBinAddr: 0xE0B04, symSize: 0x5C }
  - { offset: 0xE2A6E, size: 0x8, addend: 0x0, symName: __ZN5godot18create_method_bindIN6sentry11SentryEventEJRKNS_6StringEEEEPNS_10MethodBindEMT_FvDpT0_E.cold.1, symObjAddr: 0x5BC4, symBinAddr: 0xE0B60, symSize: 0x5C }
  - { offset: 0xE2BB3, size: 0x8, addend: 0x0, symName: __ZN5godot18create_method_bindIN6sentry11SentryEventEJRKNS_3RefINS1_15SentryTimestampEEEEEEPNS_10MethodBindEMT_FvDpT0_E.cold.1, symObjAddr: 0x5C20, symBinAddr: 0xE0BBC, symSize: 0x5C }
  - { offset: 0xE2BE2, size: 0x8, addend: 0x0, symName: __ZNK5godot11MethodBindTIJRKNS_3RefIN6sentry15SentryTimestampEEEEE17gen_argument_typeEi, symObjAddr: 0x3264, symBinAddr: 0x1ABF0, symSize: 0x10 }
  - { offset: 0xE2C18, size: 0x8, addend: 0x0, symName: __ZNK5godot11MethodBindTIJRKNS_3RefIN6sentry15SentryTimestampEEEEE22gen_argument_type_infoEi, symObjAddr: 0x3274, symBinAddr: 0x1AC00, symSize: 0x138 }
  - { offset: 0xE2D51, size: 0x8, addend: 0x0, symName: __ZNK5godot11MethodBindTIJRKNS_3RefIN6sentry15SentryTimestampEEEEE21get_argument_metadataEi, symObjAddr: 0x33AC, symBinAddr: 0x1AD38, symSize: 0x8 }
  - { offset: 0xE2D87, size: 0x8, addend: 0x0, symName: __ZNK5godot11MethodBindTIJRKNS_3RefIN6sentry15SentryTimestampEEEEE4callEPvPKPKvxR20GDExtensionCallError, symObjAddr: 0x33B4, symBinAddr: 0x1AD40, symSize: 0x40 }
  - { offset: 0xE2F44, size: 0x8, addend: 0x0, symName: __ZNK5godot11MethodBindTIJRKNS_3RefIN6sentry15SentryTimestampEEEEE7ptrcallEPvPKPKvS8_, symObjAddr: 0x33F4, symBinAddr: 0x1AD80, symSize: 0xC0 }
  - { offset: 0xE316F, size: 0x8, addend: 0x0, symName: __ZN5godot11MethodBindTIJRKNS_3RefIN6sentry15SentryTimestampEEEEED1Ev, symObjAddr: 0x34B4, symBinAddr: 0x1AE40, symSize: 0x4 }
  - { offset: 0xE3192, size: 0x8, addend: 0x0, symName: __ZN5godot11MethodBindTIJRKNS_3RefIN6sentry15SentryTimestampEEEEED1Ev, symObjAddr: 0x34B4, symBinAddr: 0x1AE40, symSize: 0x4 }
  - { offset: 0xE31CA, size: 0x8, addend: 0x0, symName: __ZN5godot11MethodBindTIJRKNS_3RefIN6sentry15SentryTimestampEEEEED0Ev, symObjAddr: 0x34B8, symBinAddr: 0x1AE44, symSize: 0x14 }
  - { offset: 0xE3232, size: 0x8, addend: 0x0, symName: __ZN5godot11GetTypeInfoIRKNS_3RefIN6sentry15SentryTimestampEEEvE14get_class_infoEv, symObjAddr: 0x35A0, symBinAddr: 0x1AF2C, symSize: 0x12C }
  - { offset: 0xE32E1, size: 0x8, addend: 0x0, symName: __ZN5godot11GetTypeInfoIRKNS_3RefIN6sentry15SentryTimestampEEEvE14get_class_infoEv.cold.1, symObjAddr: 0x5C7C, symBinAddr: 0xE0C18, symSize: 0x58 }
  - { offset: 0xE3388, size: 0x8, addend: 0x0, symName: __ZN5godot6Object7cast_toIN6sentry15SentryTimestampEEEPT_PS0_, symObjAddr: 0x383C, symBinAddr: 0x1B1C8, symSize: 0xE8 }
  - { offset: 0xE341E, size: 0x8, addend: 0x0, symName: __ZN5godot6Object7cast_toIN6sentry15SentryTimestampEEEPT_PS0_.cold.1, symObjAddr: 0x5CD4, symBinAddr: 0xE0C70, symSize: 0x5C }
  - { offset: 0xE34AE, size: 0x8, addend: 0x0, symName: __ZN5godot18create_method_bindIN6sentry11SentryEventENS_3RefINS1_15SentryTimestampEEEJEEEPNS_10MethodBindEMT_KFT0_DpT1_E.cold.1, symObjAddr: 0x5D30, symBinAddr: 0xE0CCC, symSize: 0x5C }
  - { offset: 0xE34DD, size: 0x8, addend: 0x0, symName: __ZNK5godot13MethodBindTRCINS_3RefIN6sentry15SentryTimestampEEEJEE17gen_argument_typeEi, symObjAddr: 0x3A50, symBinAddr: 0x1B3DC, symSize: 0x8 }
  - { offset: 0xE3513, size: 0x8, addend: 0x0, symName: __ZNK5godot13MethodBindTRCINS_3RefIN6sentry15SentryTimestampEEEJEE22gen_argument_type_infoEi, symObjAddr: 0x3A58, symBinAddr: 0x1B3E4, symSize: 0x4 }
  - { offset: 0xE354A, size: 0x8, addend: 0x0, symName: __ZNK5godot13MethodBindTRCINS_3RefIN6sentry15SentryTimestampEEEJEE22gen_argument_type_infoEi, symObjAddr: 0x3A58, symBinAddr: 0x1B3E4, symSize: 0x4 }
  - { offset: 0xE35D3, size: 0x8, addend: 0x0, symName: __ZNK5godot13MethodBindTRCINS_3RefIN6sentry15SentryTimestampEEEJEE21get_argument_metadataEi, symObjAddr: 0x3A5C, symBinAddr: 0x1B3E8, symSize: 0x8 }
  - { offset: 0xE3609, size: 0x8, addend: 0x0, symName: __ZNK5godot13MethodBindTRCINS_3RefIN6sentry15SentryTimestampEEEJEE4callEPvPKPKvxR20GDExtensionCallError, symObjAddr: 0x3A64, symBinAddr: 0x1B3F0, symSize: 0x64 }
  - { offset: 0xE36F6, size: 0x8, addend: 0x0, symName: __ZNK5godot13MethodBindTRCINS_3RefIN6sentry15SentryTimestampEEEJEE7ptrcallEPvPKPKvS6_, symObjAddr: 0x3AC8, symBinAddr: 0x1B454, symSize: 0x9C }
  - { offset: 0xE3868, size: 0x8, addend: 0x0, symName: __ZNK5godot13MethodBindTRCINS_3RefIN6sentry15SentryTimestampEEEJEE7ptrcallEPvPKPKvS6_.cold.1, symObjAddr: 0x5D8C, symBinAddr: 0xE0D28, symSize: 0x38 }
  - { offset: 0xE38DF, size: 0x8, addend: 0x0, symName: __ZN5godot13MethodBindTRCINS_3RefIN6sentry15SentryTimestampEEEJEED1Ev, symObjAddr: 0x3B64, symBinAddr: 0x1B4F0, symSize: 0x4 }
  - { offset: 0xE3902, size: 0x8, addend: 0x0, symName: __ZN5godot13MethodBindTRCINS_3RefIN6sentry15SentryTimestampEEEJEED1Ev, symObjAddr: 0x3B64, symBinAddr: 0x1B4F0, symSize: 0x4 }
  - { offset: 0xE393A, size: 0x8, addend: 0x0, symName: __ZN5godot13MethodBindTRCINS_3RefIN6sentry15SentryTimestampEEEJEED0Ev, symObjAddr: 0x3B68, symBinAddr: 0x1B4F4, symSize: 0x14 }
  - { offset: 0xE39A2, size: 0x8, addend: 0x0, symName: __ZN5godot11GetTypeInfoINS_3RefIN6sentry15SentryTimestampEEEvE14get_class_infoEv.cold.1, symObjAddr: 0x5DC4, symBinAddr: 0xE0D60, symSize: 0x58 }
  - { offset: 0xE3A49, size: 0x8, addend: 0x0, symName: __ZN5godot18create_method_bindIN6sentry11SentryEventEJNS1_5LevelEEEEPNS_10MethodBindEMT_FvDpT0_E.cold.1, symObjAddr: 0x5E1C, symBinAddr: 0xE0DB8, symSize: 0x5C }
  - { offset: 0xE3ADA, size: 0x8, addend: 0x0, symName: __ZN5godot18create_method_bindIN6sentry11SentryEventENS1_5LevelEJEEEPNS_10MethodBindEMT_KFT0_DpT1_E.cold.1, symObjAddr: 0x5E78, symBinAddr: 0xE0E14, symSize: 0x5C }
  - { offset: 0xE3B6B, size: 0x8, addend: 0x0, symName: __ZN5godot18create_method_bindIN6sentry11SentryEventEJRKNS_6StringES5_EEEPNS_10MethodBindEMT_FvDpT0_E.cold.1, symObjAddr: 0x5ED4, symBinAddr: 0xE0E70, symSize: 0x5C }
  - { offset: 0xE3B9A, size: 0x8, addend: 0x0, symName: __ZNK5godot11MethodBindTIJRKNS_6StringES3_EE17gen_argument_typeEi, symObjAddr: 0x4808, symBinAddr: 0x1B944, symSize: 0x10 }
  - { offset: 0xE3BDC, size: 0x8, addend: 0x0, symName: __ZNK5godot11MethodBindTIJRKNS_6StringES3_EE22gen_argument_type_infoEi, symObjAddr: 0x4818, symBinAddr: 0x1B954, symSize: 0x138 }
  - { offset: 0xE3D3B, size: 0x8, addend: 0x0, symName: __ZNK5godot11MethodBindTIJRKNS_6StringES3_EE21get_argument_metadataEi, symObjAddr: 0x4950, symBinAddr: 0x1BA8C, symSize: 0x8 }
  - { offset: 0xE3D71, size: 0x8, addend: 0x0, symName: __ZNK5godot11MethodBindTIJRKNS_6StringES3_EE4callEPvPKPKvxR20GDExtensionCallError, symObjAddr: 0x4958, symBinAddr: 0x1BA94, symSize: 0x40 }
  - { offset: 0xE3E1E, size: 0x8, addend: 0x0, symName: __ZNK5godot11MethodBindTIJRKNS_6StringES3_EE7ptrcallEPvPKPKvS5_, symObjAddr: 0x4998, symBinAddr: 0x1BAD4, symSize: 0xA4 }
  - { offset: 0xE3F39, size: 0x8, addend: 0x0, symName: __ZN5godot11MethodBindTIJRKNS_6StringES3_EED1Ev, symObjAddr: 0x4A3C, symBinAddr: 0x1BB78, symSize: 0x4 }
  - { offset: 0xE3F5C, size: 0x8, addend: 0x0, symName: __ZN5godot11MethodBindTIJRKNS_6StringES3_EED1Ev, symObjAddr: 0x4A3C, symBinAddr: 0x1BB78, symSize: 0x4 }
  - { offset: 0xE3F94, size: 0x8, addend: 0x0, symName: __ZN5godot11MethodBindTIJRKNS_6StringES3_EED0Ev, symObjAddr: 0x4A40, symBinAddr: 0x1BB7C, symSize: 0x14 }
  - { offset: 0xE405E, size: 0x8, addend: 0x0, symName: __ZN5godot18create_method_bindIN6sentry11SentryEventENS_6StringEJRKS3_EEEPNS_10MethodBindEMT_FT0_DpT1_E.cold.1, symObjAddr: 0x5F30, symBinAddr: 0xE0ECC, symSize: 0x5C }
  - { offset: 0xE408D, size: 0x8, addend: 0x0, symName: __ZNK5godot12MethodBindTRINS_6StringEJRKS1_EE17gen_argument_typeEi, symObjAddr: 0x4D14, symBinAddr: 0x1BE50, symSize: 0x8 }
  - { offset: 0xE40C3, size: 0x8, addend: 0x0, symName: __ZNK5godot12MethodBindTRINS_6StringEJRKS1_EE22gen_argument_type_infoEi, symObjAddr: 0x4D1C, symBinAddr: 0x1BE58, symSize: 0x150 }
  - { offset: 0xE4235, size: 0x8, addend: 0x0, symName: __ZNK5godot12MethodBindTRINS_6StringEJRKS1_EE21get_argument_metadataEi, symObjAddr: 0x4E6C, symBinAddr: 0x1BFA8, symSize: 0x8 }
  - { offset: 0xE426B, size: 0x8, addend: 0x0, symName: __ZNK5godot12MethodBindTRINS_6StringEJRKS1_EE4callEPvPKPKvxR20GDExtensionCallError, symObjAddr: 0x4E74, symBinAddr: 0x1BFB0, symSize: 0x64 }
  - { offset: 0xE4313, size: 0x8, addend: 0x0, symName: __ZNK5godot12MethodBindTRINS_6StringEJRKS1_EE7ptrcallEPvPKPKvS5_, symObjAddr: 0x4ED8, symBinAddr: 0x1C014, symSize: 0xA4 }
  - { offset: 0xE442F, size: 0x8, addend: 0x0, symName: __ZN5godot12MethodBindTRINS_6StringEJRKS1_EED1Ev, symObjAddr: 0x4F7C, symBinAddr: 0x1C0B8, symSize: 0x4 }
  - { offset: 0xE4452, size: 0x8, addend: 0x0, symName: __ZN5godot12MethodBindTRINS_6StringEJRKS1_EED1Ev, symObjAddr: 0x4F7C, symBinAddr: 0x1C0B8, symSize: 0x4 }
  - { offset: 0xE448A, size: 0x8, addend: 0x0, symName: __ZN5godot12MethodBindTRINS_6StringEJRKS1_EED0Ev, symObjAddr: 0x4F80, symBinAddr: 0x1C0BC, symSize: 0x14 }
  - { offset: 0xE4554, size: 0x8, addend: 0x0, symName: __ZN5godot18create_method_bindIN6sentry11SentryEventEbJEEEPNS_10MethodBindEMT_KFT0_DpT1_E.cold.1, symObjAddr: 0x5F8C, symBinAddr: 0xE0F28, symSize: 0x5C }
  - { offset: 0xE4583, size: 0x8, addend: 0x0, symName: __ZNK5godot13MethodBindTRCIbJEE17gen_argument_typeEi, symObjAddr: 0x5224, symBinAddr: 0x1C360, symSize: 0x8 }
  - { offset: 0xE45C0, size: 0x8, addend: 0x0, symName: __ZNK5godot13MethodBindTRCIbJEE22gen_argument_type_infoEi, symObjAddr: 0x522C, symBinAddr: 0x1C368, symSize: 0xF8 }
  - { offset: 0xE4683, size: 0x8, addend: 0x0, symName: __ZNK5godot13MethodBindTRCIbJEE21get_argument_metadataEi, symObjAddr: 0x5324, symBinAddr: 0x1C460, symSize: 0x8 }
  - { offset: 0xE46B9, size: 0x8, addend: 0x0, symName: __ZNK5godot13MethodBindTRCIbJEE4callEPvPKPKvxR20GDExtensionCallError, symObjAddr: 0x532C, symBinAddr: 0x1C468, symSize: 0xC0 }
  - { offset: 0xE47D0, size: 0x8, addend: 0x0, symName: __ZNK5godot13MethodBindTRCIbJEE7ptrcallEPvPKPKvS2_, symObjAddr: 0x53EC, symBinAddr: 0x1C528, symSize: 0x38 }
  - { offset: 0xE48B6, size: 0x8, addend: 0x0, symName: __ZN5godot13MethodBindTRCIbJEED1Ev, symObjAddr: 0x5424, symBinAddr: 0x1C560, symSize: 0x4 }
  - { offset: 0xE48D9, size: 0x8, addend: 0x0, symName: __ZN5godot13MethodBindTRCIbJEED1Ev, symObjAddr: 0x5424, symBinAddr: 0x1C560, symSize: 0x4 }
  - { offset: 0xE4911, size: 0x8, addend: 0x0, symName: __ZN5godot13MethodBindTRCIbJEED0Ev, symObjAddr: 0x5428, symBinAddr: 0x1C564, symSize: 0x14 }
  - { offset: 0xE4979, size: 0x8, addend: 0x0, symName: _OUTLINED_FUNCTION_0, symObjAddr: 0x5FE8, symBinAddr: 0x1C578, symSize: 0x10 }
  - { offset: 0xE4991, size: 0x8, addend: 0x0, symName: _OUTLINED_FUNCTION_1, symObjAddr: 0x5FF8, symBinAddr: 0x1C588, symSize: 0xC }
  - { offset: 0xE49A9, size: 0x8, addend: 0x0, symName: _OUTLINED_FUNCTION_2, symObjAddr: 0x6004, symBinAddr: 0x1C594, symSize: 0xC }
  - { offset: 0xE49C1, size: 0x8, addend: 0x0, symName: _OUTLINED_FUNCTION_3, symObjAddr: 0x6010, symBinAddr: 0x1C5A0, symSize: 0x8 }
  - { offset: 0xE49D9, size: 0x8, addend: 0x0, symName: _OUTLINED_FUNCTION_4, symObjAddr: 0x6018, symBinAddr: 0x1C5A8, symSize: 0x8 }
  - { offset: 0xE49F1, size: 0x8, addend: 0x0, symName: _OUTLINED_FUNCTION_5, symObjAddr: 0x6020, symBinAddr: 0x1C5B0, symSize: 0x8 }
  - { offset: 0xE4A09, size: 0x8, addend: 0x0, symName: _OUTLINED_FUNCTION_6, symObjAddr: 0x6028, symBinAddr: 0x1C5B8, symSize: 0x8 }
  - { offset: 0xED115, size: 0x8, addend: 0x0, symName: __ZN5godot18create_method_bindIN6sentry12SentryLoggerEJEEEPNS_10MethodBindEMT_FvDpT0_E, symObjAddr: 0x6BFC, symBinAddr: 0x2212C, symSize: 0x114 }
  - { offset: 0xF3975, size: 0x8, addend: 0x0, symName: __ZNSt3__119piecewise_constructE, symObjAddr: 0x9092, symBinAddr: 0x140E1E, symSize: 0x0 }
  - { offset: 0x10371F, size: 0x8, addend: 0x0, symName: __ZNSt3__112__hash_tableINS_17__hash_value_typeIN6sentry12SentryLogger8ErrorKeyENS_6chrono10time_pointINS5_12steady_clockENS5_8durationIxNS_5ratioILl1ELl1000000000EEEEEEEEENS_22__unordered_map_hasherIS4_SD_NS3_12ErrorKeyHashENS_8equal_toIS4_EELb1EEENS_21__unordered_map_equalIS4_SD_SH_SF_Lb1EEENS_9allocatorISD_EEE25__emplace_unique_key_argsIS4_JRKNS_21piecewise_construct_tENS_5tupleIJRKS4_EEENSS_IJEEEEEENS_4pairINS_15__hash_iteratorIPNS_11__hash_nodeISD_PvEEEEbEERKT_DpOT0_, symObjAddr: 0x5CE4, symBinAddr: 0x21414, symSize: 0x37C }
  - { offset: 0x1050CB, size: 0x8, addend: 0x0, symName: __ZN6sentry4util5printIJN5godot6StringEA9_cS3_A3_cS3_A2_ciS6_A12_cbA15_cbEEEvNS_5LevelERKNS2_7VariantEDpRKT_, symObjAddr: 0x6400, symBinAddr: 0x21930, symSize: 0x26C }
  - { offset: 0x1056D1, size: 0x8, addend: 0x0, symName: __ZN6sentry4util5printIJPKcEEEvNS_5LevelERKN5godot7VariantEDpRKT_, symObjAddr: 0x2B48, symBinAddr: 0x1F31C, symSize: 0x25C }
  - { offset: 0x105A14, size: 0x8, addend: 0x0, symName: __ZN6sentry4util5printIJN5godot6StringEEEEvNS_5LevelERKNS2_7VariantEDpRKT_, symObjAddr: 0x2914, symBinAddr: 0x1F0E8, symSize: 0x234 }
  - { offset: 0x105D35, size: 0x8, addend: 0x0, symName: __ZN6sentry4util5printIJiEEEvNS_5LevelERKN5godot7VariantEDpRKT_, symObjAddr: 0x2DA4, symBinAddr: 0x1F578, symSize: 0x234 }
  - { offset: 0x1066C3, size: 0x8, addend: 0x0, symName: __ZN6sentry12SentryLogger10_log_errorERKN5godot6StringES4_iS4_S4_biRKNS1_10TypedArrayINS1_3RefINS1_15ScriptBacktraceEEEEE, symObjAddr: 0x5D8, symBinAddr: 0x1CDAC, symSize: 0x1940 }
  - { offset: 0x1066EB, size: 0x8, addend: 0x0, symName: __ZZN6sentry12SentryLogger10_log_errorERKN5godot6StringES4_iS4_S4_biRKNS1_10TypedArrayINS1_3RefINS1_15ScriptBacktraceEEEEEE11num_entries, symObjAddr: 0x8A99, symBinAddr: 0x161778, symSize: 0x0 }
  - { offset: 0x106703, size: 0x8, addend: 0x0, symName: __ZZN6sentry12SentryLogger10_log_errorERKN5godot6StringES4_iS4_S4_biRKNS1_10TypedArrayINS1_3RefINS1_15ScriptBacktraceEEEEEE11first_print, symObjAddr: 0x16FB48, symBinAddr: 0x1617F0, symSize: 0x0 }
  - { offset: 0x10997D, size: 0x8, addend: 0x0, symName: __ZN6sentry12SentryLogger12_log_messageERKN5godot6StringEb, symObjAddr: 0x1F18, symBinAddr: 0x1E6EC, symSize: 0x310 }
  - { offset: 0x1099A5, size: 0x8, addend: 0x0, symName: __ZZN6sentry12SentryLogger12_log_messageERKN5godot6StringEbE11num_entries, symObjAddr: 0x8AB1, symBinAddr: 0x161790, symSize: 0x0 }
  - { offset: 0x1099BD, size: 0x8, addend: 0x0, symName: __ZZN6sentry12SentryLogger12_log_messageERKN5godot6StringEbE11first_print, symObjAddr: 0x16FB49, symBinAddr: 0x1617F1, symSize: 0x0 }
  - { offset: 0x109DEC, size: 0x8, addend: 0x0, symName: __ZN12_GLOBAL__N_120error_type_as_stringE, symObjAddr: 0x8AD0, symBinAddr: 0x15DEA8, symSize: 0x0 }
  - { offset: 0x10A142, size: 0x8, addend: 0x0, symName: __ZN5godot14ResourceLoader22_gde_binding_callbacksE, symObjAddr: 0x8D90, symBinAddr: 0x15DF30, symSize: 0x0 }
  - { offset: 0x10A156, size: 0x8, addend: 0x0, symName: __ZN5godot6Script22_gde_binding_callbacksE, symObjAddr: 0x8E50, symBinAddr: 0x15DF48, symSize: 0x0 }
  - { offset: 0x10B031, size: 0x8, addend: 0x0, symName: ___cxx_global_var_init, symObjAddr: 0x7F48, symBinAddr: 0x22778, symSize: 0x4C }
  - { offset: 0x10B0B6, size: 0x8, addend: 0x0, symName: ___cxx_global_var_init.1, symObjAddr: 0x7F94, symBinAddr: 0x227C4, symSize: 0x4C }
  - { offset: 0x10B13B, size: 0x8, addend: 0x0, symName: ___cxx_global_var_init.2, symObjAddr: 0x7FE0, symBinAddr: 0x22810, symSize: 0x4C }
  - { offset: 0x10B1C0, size: 0x8, addend: 0x0, symName: ___cxx_global_var_init.3, symObjAddr: 0x802C, symBinAddr: 0x2285C, symSize: 0x4C }
  - { offset: 0x10B245, size: 0x8, addend: 0x0, symName: ___cxx_global_var_init.4, symObjAddr: 0x8078, symBinAddr: 0x228A8, symSize: 0x4C }
  - { offset: 0x10B2CA, size: 0x8, addend: 0x0, symName: ___cxx_global_var_init.5, symObjAddr: 0x80C4, symBinAddr: 0x228F4, symSize: 0x4C }
  - { offset: 0x10B34F, size: 0x8, addend: 0x0, symName: ___cxx_global_var_init.6, symObjAddr: 0x8110, symBinAddr: 0x22940, symSize: 0x4C }
  - { offset: 0x10B3D4, size: 0x8, addend: 0x0, symName: ___cxx_global_var_init.7, symObjAddr: 0x815C, symBinAddr: 0x2298C, symSize: 0x4C }
  - { offset: 0x10B459, size: 0x8, addend: 0x0, symName: ___cxx_global_var_init.8, symObjAddr: 0x81A8, symBinAddr: 0x229D8, symSize: 0x4C }
  - { offset: 0x10B4DE, size: 0x8, addend: 0x0, symName: ___cxx_global_var_init.9, symObjAddr: 0x81F4, symBinAddr: 0x22A24, symSize: 0x4C }
  - { offset: 0x10B563, size: 0x8, addend: 0x0, symName: ___cxx_global_var_init.10, symObjAddr: 0x8240, symBinAddr: 0x22A70, symSize: 0x4C }
  - { offset: 0x10B5E8, size: 0x8, addend: 0x0, symName: ___cxx_global_var_init.11, symObjAddr: 0x828C, symBinAddr: 0x22ABC, symSize: 0x4C }
  - { offset: 0x10B66D, size: 0x8, addend: 0x0, symName: ___cxx_global_var_init.12, symObjAddr: 0x82D8, symBinAddr: 0x22B08, symSize: 0x4C }
  - { offset: 0x10B8E0, size: 0x8, addend: 0x0, symName: __ZNK6sentry12SentryLogger12ErrorKeyHashclERKNS0_8ErrorKeyE, symObjAddr: 0x0, symBinAddr: 0x1C7D4, symSize: 0x134 }
  - { offset: 0x10BE77, size: 0x8, addend: 0x0, symName: __ZNKSt3__121__murmur2_or_cityhashImLm64EEclB8nn190102EPKvm, symObjAddr: 0x4E8C, symBinAddr: 0x205C8, symSize: 0x44C }
  - { offset: 0x10C953, size: 0x8, addend: 0x0, symName: __ZN6sentry12SentryLogger22_connect_process_frameEv, symObjAddr: 0x134, symBinAddr: 0x1C908, symSize: 0x138 }
  - { offset: 0x10CA7E, size: 0x8, addend: 0x0, symName: __ZN5godot6Object7cast_toINS_9SceneTreeEEEPT_PS0_, symObjAddr: 0x26C, symBinAddr: 0x1CA40, symSize: 0xE8 }
  - { offset: 0x10CB14, size: 0x8, addend: 0x0, symName: __ZN6sentry12SentryLogger22_connect_process_frameEv.cold.2, symObjAddr: 0x71D0, symBinAddr: 0xE0FAC, symSize: 0x28 }
  - { offset: 0x10CB2C, size: 0x8, addend: 0x0, symName: __ZN6sentry12SentryLogger22_connect_process_frameEv.cold.1, symObjAddr: 0x71A8, symBinAddr: 0xE0F84, symSize: 0x28 }
  - { offset: 0x10CB4B, size: 0x8, addend: 0x0, symName: __ZN5godot6Object7cast_toINS_9SceneTreeEEEPT_PS0_.cold.1, symObjAddr: 0x71F8, symBinAddr: 0xE0FD4, symSize: 0x5C }
  - { offset: 0x10CED6, size: 0x8, addend: 0x0, symName: __ZN6sentry12SentryLogger14_process_frameEv, symObjAddr: 0x354, symBinAddr: 0x1CB28, symSize: 0xE4 }
  - { offset: 0x10D2D8, size: 0x8, addend: 0x0, symName: __ZNSt3__113unordered_mapIN6sentry12SentryLogger8ErrorKeyENS_6chrono10time_pointINS4_12steady_clockENS4_8durationIxNS_5ratioILl1ELl1000000000EEEEEEENS2_12ErrorKeyHashENS_8equal_toIS3_EENS_9allocatorINS_4pairIKS3_SB_EEEEE5clearB8nn190102Ev, symObjAddr: 0x558, symBinAddr: 0x1CD2C, symSize: 0x80 }
  - { offset: 0x10D302, size: 0x8, addend: 0x0, symName: __ZNSt3__113unordered_mapIN6sentry12SentryLogger8ErrorKeyENS_6chrono10time_pointINS4_12steady_clockENS4_8durationIxNS_5ratioILl1ELl1000000000EEEEEEENS2_12ErrorKeyHashENS_8equal_toIS3_EENS_9allocatorINS_4pairIKS3_SB_EEEEE5clearB8nn190102Ev, symObjAddr: 0x558, symBinAddr: 0x1CD2C, symSize: 0x80 }
  - { offset: 0x10D54F, size: 0x8, addend: 0x0, symName: __ZN6sentry12SentryLogger25_disconnect_process_frameEv, symObjAddr: 0x438, symBinAddr: 0x1CC0C, symSize: 0x120 }
  - { offset: 0x10E88A, size: 0x8, addend: 0x0, symName: __ZNSt3__112__hash_tableINS_17__hash_value_typeIN6sentry12SentryLogger8ErrorKeyENS_6chrono10time_pointINS5_12steady_clockENS5_8durationIxNS_5ratioILl1ELl1000000000EEEEEEEEENS_22__unordered_map_hasherIS4_SD_NS3_12ErrorKeyHashENS_8equal_toIS4_EELb1EEENS_21__unordered_map_equalIS4_SD_SH_SF_Lb1EEENS_9allocatorISD_EEE4findIS4_EENS_15__hash_iteratorIPNS_11__hash_nodeISD_PvEEEERKT_, symObjAddr: 0x5318, symBinAddr: 0x20A54, symSize: 0x18C }
  - { offset: 0x10EA60, size: 0x8, addend: 0x0, symName: __ZNSt3__15dequeINS_6chrono10time_pointINS1_12steady_clockENS1_8durationIxNS_5ratioILl1ELl1000000000EEEEEEENS_9allocatorIS8_EEE19__add_back_capacityEv, symObjAddr: 0x54A4, symBinAddr: 0x20BE0, symSize: 0x520 }
  - { offset: 0x10FAE4, size: 0x8, addend: 0x0, symName: __ZNSt3__114__split_bufferIPNS_6chrono10time_pointINS1_12steady_clockENS1_8durationIxNS_5ratioILl1ELl1000000000EEEEEEENS_9allocatorIS9_EEE9push_backEOS9_, symObjAddr: 0x59C4, symBinAddr: 0x21100, symSize: 0x184 }
  - { offset: 0x10FAFE, size: 0x8, addend: 0x0, symName: __ZNSt3__112__hash_tableINS_17__hash_value_typeIN6sentry12SentryLogger8ErrorKeyENS_6chrono10time_pointINS5_12steady_clockENS5_8durationIxNS_5ratioILl1ELl1000000000EEEEEEEEENS_22__unordered_map_hasherIS4_SD_NS3_12ErrorKeyHashENS_8equal_toIS4_EELb1EEENS_21__unordered_map_equalIS4_SD_SH_SF_Lb1EEENS_9allocatorISD_EEE25__emplace_unique_key_argsIS4_JRKNS_21piecewise_construct_tENS_5tupleIJRKS4_EEENSS_IJEEEEEENS_4pairINS_15__hash_iteratorIPNS_11__hash_nodeISD_PvEEEEbEERKT_DpOT0_, symObjAddr: 0x5CE4, symBinAddr: 0x21414, symSize: 0x37C }
  - { offset: 0x110204, size: 0x8, addend: 0x0, symName: __ZN5godot6Object7cast_toINS_15ScriptBacktraceEEEPT_PS0_, symObjAddr: 0x2744, symBinAddr: 0x1EF18, symSize: 0xE8 }
  - { offset: 0x11029A, size: 0x8, addend: 0x0, symName: __ZN5godot6VectorIN6sentry11SentryEvent10StackFrameEE9push_backES3_, symObjAddr: 0x481C, symBinAddr: 0x1FF58, symSize: 0xDC }
  - { offset: 0x11045F, size: 0x8, addend: 0x0, symName: __ZN6sentry11SentryEvent10StackFrameD2Ev, symObjAddr: 0x33C8, symBinAddr: 0x1FB9C, symSize: 0xB4 }
  - { offset: 0x11063F, size: 0x8, addend: 0x0, symName: __ZN5godot6Object7cast_toINS_6ScriptEEEPT_PS0_, symObjAddr: 0x282C, symBinAddr: 0x1F000, symSize: 0xE8 }
  - { offset: 0x1106D5, size: 0x8, addend: 0x0, symName: __ZN5godot7CowDataINS_4PairINS_6StringENS_7VariantEEEE6resizeILb0EEENS_5ErrorEx, symObjAddr: 0x2FD8, symBinAddr: 0x1F7AC, symSize: 0x31C }
  - { offset: 0x110E11, size: 0x8, addend: 0x0, symName: __ZN6sentry12SentryLogger10_log_errorERKN5godot6StringES4_iS4_S4_biRKNS1_10TypedArrayINS1_3RefINS1_15ScriptBacktraceEEEEE.cold.2, symObjAddr: 0x72AC, symBinAddr: 0xE1088, symSize: 0x44 }
  - { offset: 0x110E6B, size: 0x8, addend: 0x0, symName: __ZN6sentry12SentryLogger10_log_errorERKN5godot6StringES4_iS4_S4_biRKNS1_10TypedArrayINS1_3RefINS1_15ScriptBacktraceEEEEE.cold.3, symObjAddr: 0x72F0, symBinAddr: 0xE10CC, symSize: 0x44 }
  - { offset: 0x110EC5, size: 0x8, addend: 0x0, symName: __ZN6sentry12SentryLogger10_log_errorERKN5godot6StringES4_iS4_S4_biRKNS1_10TypedArrayINS1_3RefINS1_15ScriptBacktraceEEEEE.cold.4, symObjAddr: 0x7334, symBinAddr: 0xE1110, symSize: 0x44 }
  - { offset: 0x110F1F, size: 0x8, addend: 0x0, symName: __ZN6sentry12SentryLogger10_log_errorERKN5godot6StringES4_iS4_S4_biRKNS1_10TypedArrayINS1_3RefINS1_15ScriptBacktraceEEEEE.cold.1, symObjAddr: 0x7254, symBinAddr: 0xE1030, symSize: 0x58 }
  - { offset: 0x111244, size: 0x8, addend: 0x0, symName: __ZN6sentry12SentryLogger13_bind_methodsEv, symObjAddr: 0x2228, symBinAddr: 0x1E9FC, symSize: 0x10C }
  - { offset: 0x111603, size: 0x8, addend: 0x0, symName: __ZN6sentry12SentryLogger13_notificationEi, symObjAddr: 0x2334, symBinAddr: 0x1EB08, symSize: 0x114 }
  - { offset: 0x111B91, size: 0x8, addend: 0x0, symName: __ZN6sentry12SentryLoggerC2Ev, symObjAddr: 0x2448, symBinAddr: 0x1EC1C, symSize: 0x1A0 }
  - { offset: 0x112110, size: 0x8, addend: 0x0, symName: __ZNSt3__16vectorIN5godot6StringENS_9allocatorIS2_EEE18__assign_with_sizeB8nn190102IPKS2_S8_EEvT_T0_l, symObjAddr: 0x6FB8, symBinAddr: 0x224E8, symSize: 0x1F0 }
  - { offset: 0x1129DB, size: 0x8, addend: 0x0, symName: __ZN6sentry12SentryLogger22_connect_process_frameEv.cold.1, symObjAddr: 0x71A8, symBinAddr: 0xE0F84, symSize: 0x28 }
  - { offset: 0x1129F8, size: 0x8, addend: 0x0, symName: __ZN6sentry12SentryLoggerC1Ev, symObjAddr: 0x25E8, symBinAddr: 0x1EDBC, symSize: 0x4 }
  - { offset: 0x112A27, size: 0x8, addend: 0x0, symName: __ZN6sentry12SentryLoggerC1Ev, symObjAddr: 0x25E8, symBinAddr: 0x1EDBC, symSize: 0x4 }
  - { offset: 0x112E0B, size: 0x8, addend: 0x0, symName: __ZN6sentry12SentryLoggerD2Ev, symObjAddr: 0x25EC, symBinAddr: 0x1EDC0, symSize: 0x138 }
  - { offset: 0x1134DC, size: 0x8, addend: 0x0, symName: __ZNSt3__15dequeINS_6chrono10time_pointINS1_12steady_clockENS1_8durationIxNS_5ratioILl1ELl1000000000EEEEEEENS_9allocatorIS8_EEED2B8nn190102Ev, symObjAddr: 0x6EF0, symBinAddr: 0x22420, symSize: 0xC8 }
  - { offset: 0x1139B0, size: 0x8, addend: 0x0, symName: __ZN6sentry12SentryLoggerD2Ev.cold.1, symObjAddr: 0x7378, symBinAddr: 0xE1154, symSize: 0x1C }
  - { offset: 0x1139CC, size: 0x8, addend: 0x0, symName: __ZN6sentry12SentryLoggerD2Ev.cold.1, symObjAddr: 0x7378, symBinAddr: 0xE1154, symSize: 0x1C }
  - { offset: 0x1139E1, size: 0x8, addend: 0x0, symName: __ZN6sentry12SentryLoggerD2Ev.cold.1, symObjAddr: 0x7378, symBinAddr: 0xE1154, symSize: 0x1C }
  - { offset: 0x1139F5, size: 0x8, addend: 0x0, symName: __ZN6sentry12SentryLoggerD2Ev.cold.1, symObjAddr: 0x7378, symBinAddr: 0xE1154, symSize: 0x1C }
  - { offset: 0x113A09, size: 0x8, addend: 0x0, symName: __ZN6sentry12SentryLoggerD2Ev.cold.1, symObjAddr: 0x7378, symBinAddr: 0xE1154, symSize: 0x1C }
  - { offset: 0x113A1D, size: 0x8, addend: 0x0, symName: __ZN6sentry12SentryLoggerD2Ev.cold.1, symObjAddr: 0x7378, symBinAddr: 0xE1154, symSize: 0x1C }
  - { offset: 0x113A32, size: 0x8, addend: 0x0, symName: __ZN6sentry12SentryLoggerD2Ev.cold.1, symObjAddr: 0x7378, symBinAddr: 0xE1154, symSize: 0x1C }
  - { offset: 0x113A4A, size: 0x8, addend: 0x0, symName: __ZN6sentry12SentryLoggerD1Ev, symObjAddr: 0x2724, symBinAddr: 0x1EEF8, symSize: 0x4 }
  - { offset: 0x113A6D, size: 0x8, addend: 0x0, symName: __ZN6sentry12SentryLoggerD1Ev, symObjAddr: 0x2724, symBinAddr: 0x1EEF8, symSize: 0x4 }
  - { offset: 0x113A9D, size: 0x8, addend: 0x0, symName: __ZN6sentry12SentryLoggerD0Ev, symObjAddr: 0x2728, symBinAddr: 0x1EEFC, symSize: 0x14 }
  - { offset: 0x113AFD, size: 0x8, addend: 0x0, symName: __ZNK6sentry12SentryLogger19_is_extension_classEv, symObjAddr: 0x273C, symBinAddr: 0x1EF10, symSize: 0x8 }
  - { offset: 0x113B24, size: 0x8, addend: 0x0, symName: __ZN5godot6Object7cast_toINS_15ScriptBacktraceEEEPT_PS0_.cold.1, symObjAddr: 0x7394, symBinAddr: 0xE1170, symSize: 0x5C }
  - { offset: 0x113B59, size: 0x8, addend: 0x0, symName: __ZN5godot6Object7cast_toINS_6ScriptEEEPT_PS0_.cold.1, symObjAddr: 0x73F0, symBinAddr: 0xE11CC, symSize: 0x5C }
  - { offset: 0x113F22, size: 0x8, addend: 0x0, symName: __ZN5godot7CowDataINS_4PairINS_6StringENS_7VariantEEEE14_copy_on_writeEv, symObjAddr: 0x3380, symBinAddr: 0x1FB54, symSize: 0x48 }
  - { offset: 0x114032, size: 0x8, addend: 0x0, symName: __ZN5godot7CowDataINS_4PairINS_6StringENS_7VariantEEEE6resizeILb0EEENS_5ErrorEx.cold.4, symObjAddr: 0x74AC, symBinAddr: 0xE1288, symSize: 0x20 }
  - { offset: 0x11404A, size: 0x8, addend: 0x0, symName: __ZN5godot7CowDataINS_4PairINS_6StringENS_7VariantEEEE6resizeILb0EEENS_5ErrorEx.cold.5, symObjAddr: 0x74CC, symBinAddr: 0xE12A8, symSize: 0x20 }
  - { offset: 0x114062, size: 0x8, addend: 0x0, symName: __ZN5godot7CowDataINS_4PairINS_6StringENS_7VariantEEEE6resizeILb0EEENS_5ErrorEx.cold.2, symObjAddr: 0x746C, symBinAddr: 0xE1248, symSize: 0x20 }
  - { offset: 0x11407E, size: 0x8, addend: 0x0, symName: __ZN5godot7CowDataINS_4PairINS_6StringENS_7VariantEEEE6resizeILb0EEENS_5ErrorEx.cold.2, symObjAddr: 0x746C, symBinAddr: 0xE1248, symSize: 0x20 }
  - { offset: 0x114091, size: 0x8, addend: 0x0, symName: __ZN5godot7CowDataINS_4PairINS_6StringENS_7VariantEEEE6resizeILb0EEENS_5ErrorEx.cold.1, symObjAddr: 0x744C, symBinAddr: 0xE1228, symSize: 0x20 }
  - { offset: 0x1140AD, size: 0x8, addend: 0x0, symName: __ZN5godot7CowDataINS_4PairINS_6StringENS_7VariantEEEE6resizeILb0EEENS_5ErrorEx.cold.1, symObjAddr: 0x744C, symBinAddr: 0xE1228, symSize: 0x20 }
  - { offset: 0x1140C0, size: 0x8, addend: 0x0, symName: __ZN5godot7CowDataINS_4PairINS_6StringENS_7VariantEEEE6resizeILb0EEENS_5ErrorEx.cold.3, symObjAddr: 0x748C, symBinAddr: 0xE1268, symSize: 0x20 }
  - { offset: 0x1140D8, size: 0x8, addend: 0x0, symName: __ZN5godot7CowDataINS_4PairINS_6StringENS_7VariantEEEE6_unrefEv, symObjAddr: 0x32F4, symBinAddr: 0x1FAC8, symSize: 0x8C }
  - { offset: 0x11420B, size: 0x8, addend: 0x0, symName: __ZN5godot7CowDataINS_4PairINS_6StringENS_7VariantEEEE14_copy_on_writeEv.cold.1, symObjAddr: 0x74EC, symBinAddr: 0xE12C8, symSize: 0xE4 }
  - { offset: 0x114466, size: 0x8, addend: 0x0, symName: __ZN5godot10RefCountedD1Ev.cold.1, symObjAddr: 0x75D0, symBinAddr: 0xE13AC, symSize: 0x1C }
  - { offset: 0x114481, size: 0x8, addend: 0x0, symName: __ZN5godot10RefCountedD1Ev.cold.1, symObjAddr: 0x75D0, symBinAddr: 0xE13AC, symSize: 0x1C }
  - { offset: 0x114495, size: 0x8, addend: 0x0, symName: __ZN5godot10RefCountedD1Ev.cold.1, symObjAddr: 0x75D0, symBinAddr: 0xE13AC, symSize: 0x1C }
  - { offset: 0x1144A9, size: 0x8, addend: 0x0, symName: __ZN5godot10RefCountedD1Ev.cold.1, symObjAddr: 0x75D0, symBinAddr: 0xE13AC, symSize: 0x1C }
  - { offset: 0x1144BD, size: 0x8, addend: 0x0, symName: __ZN5godot10RefCountedD1Ev.cold.1, symObjAddr: 0x75D0, symBinAddr: 0xE13AC, symSize: 0x1C }
  - { offset: 0x1144D2, size: 0x8, addend: 0x0, symName: __ZN5godot10RefCountedD1Ev.cold.1, symObjAddr: 0x75D0, symBinAddr: 0xE13AC, symSize: 0x1C }
  - { offset: 0x114505, size: 0x8, addend: 0x0, symName: __ZN5godot10RefCountedD0Ev.cold.1, symObjAddr: 0x75EC, symBinAddr: 0xE13C8, symSize: 0x1C }
  - { offset: 0x114520, size: 0x8, addend: 0x0, symName: __ZN5godot10RefCountedD0Ev.cold.1, symObjAddr: 0x75EC, symBinAddr: 0xE13C8, symSize: 0x1C }
  - { offset: 0x114534, size: 0x8, addend: 0x0, symName: __ZN5godot10RefCountedD0Ev.cold.1, symObjAddr: 0x75EC, symBinAddr: 0xE13C8, symSize: 0x1C }
  - { offset: 0x114548, size: 0x8, addend: 0x0, symName: __ZN5godot10RefCountedD0Ev.cold.1, symObjAddr: 0x75EC, symBinAddr: 0xE13C8, symSize: 0x1C }
  - { offset: 0x11455C, size: 0x8, addend: 0x0, symName: __ZN5godot10RefCountedD0Ev.cold.1, symObjAddr: 0x75EC, symBinAddr: 0xE13C8, symSize: 0x1C }
  - { offset: 0x114570, size: 0x8, addend: 0x0, symName: __ZN5godot10RefCountedD0Ev.cold.1, symObjAddr: 0x75EC, symBinAddr: 0xE13C8, symSize: 0x1C }
  - { offset: 0x114585, size: 0x8, addend: 0x0, symName: __ZN5godot10RefCountedD0Ev.cold.1, symObjAddr: 0x75EC, symBinAddr: 0xE13C8, symSize: 0x1C }
  - { offset: 0x11459D, size: 0x8, addend: 0x0, symName: __ZN5godot6ObjectD1Ev.cold.1, symObjAddr: 0x7608, symBinAddr: 0xE13E4, symSize: 0x1C }
  - { offset: 0x1145B8, size: 0x8, addend: 0x0, symName: __ZN5godot6ObjectD1Ev.cold.1, symObjAddr: 0x7608, symBinAddr: 0xE13E4, symSize: 0x1C }
  - { offset: 0x1145CC, size: 0x8, addend: 0x0, symName: __ZN5godot6ObjectD1Ev.cold.1, symObjAddr: 0x7608, symBinAddr: 0xE13E4, symSize: 0x1C }
  - { offset: 0x1145E0, size: 0x8, addend: 0x0, symName: __ZN5godot6ObjectD1Ev.cold.1, symObjAddr: 0x7608, symBinAddr: 0xE13E4, symSize: 0x1C }
  - { offset: 0x1145F5, size: 0x8, addend: 0x0, symName: __ZN5godot6ObjectD1Ev.cold.1, symObjAddr: 0x7608, symBinAddr: 0xE13E4, symSize: 0x1C }
  - { offset: 0x114625, size: 0x8, addend: 0x0, symName: __ZN5godot6ObjectD0Ev.cold.1, symObjAddr: 0x7624, symBinAddr: 0xE1400, symSize: 0x1C }
  - { offset: 0x114640, size: 0x8, addend: 0x0, symName: __ZN5godot6ObjectD0Ev.cold.1, symObjAddr: 0x7624, symBinAddr: 0xE1400, symSize: 0x1C }
  - { offset: 0x114654, size: 0x8, addend: 0x0, symName: __ZN5godot6ObjectD0Ev.cold.1, symObjAddr: 0x7624, symBinAddr: 0xE1400, symSize: 0x1C }
  - { offset: 0x114668, size: 0x8, addend: 0x0, symName: __ZN5godot6ObjectD0Ev.cold.1, symObjAddr: 0x7624, symBinAddr: 0xE1400, symSize: 0x1C }
  - { offset: 0x11467C, size: 0x8, addend: 0x0, symName: __ZN5godot6ObjectD0Ev.cold.1, symObjAddr: 0x7624, symBinAddr: 0xE1400, symSize: 0x1C }
  - { offset: 0x114691, size: 0x8, addend: 0x0, symName: __ZN5godot6ObjectD0Ev.cold.1, symObjAddr: 0x7624, symBinAddr: 0xE1400, symSize: 0x1C }
  - { offset: 0x1146A8, size: 0x8, addend: 0x0, symName: __ZN5godot7WrappedD1Ev.cold.1, symObjAddr: 0x7640, symBinAddr: 0xE141C, symSize: 0x1C }
  - { offset: 0x1146C3, size: 0x8, addend: 0x0, symName: __ZN5godot7WrappedD1Ev.cold.1, symObjAddr: 0x7640, symBinAddr: 0xE141C, symSize: 0x1C }
  - { offset: 0x1146D7, size: 0x8, addend: 0x0, symName: __ZN5godot7WrappedD1Ev.cold.1, symObjAddr: 0x7640, symBinAddr: 0xE141C, symSize: 0x1C }
  - { offset: 0x1146EC, size: 0x8, addend: 0x0, symName: __ZN5godot7WrappedD1Ev.cold.1, symObjAddr: 0x7640, symBinAddr: 0xE141C, symSize: 0x1C }
  - { offset: 0x11471B, size: 0x8, addend: 0x0, symName: __ZN5godot7WrappedD0Ev.cold.1, symObjAddr: 0x765C, symBinAddr: 0xE1438, symSize: 0x1C }
  - { offset: 0x114736, size: 0x8, addend: 0x0, symName: __ZN5godot7WrappedD0Ev.cold.1, symObjAddr: 0x765C, symBinAddr: 0xE1438, symSize: 0x1C }
  - { offset: 0x11474A, size: 0x8, addend: 0x0, symName: __ZN5godot7WrappedD0Ev.cold.1, symObjAddr: 0x765C, symBinAddr: 0xE1438, symSize: 0x1C }
  - { offset: 0x11475E, size: 0x8, addend: 0x0, symName: __ZN5godot7WrappedD0Ev.cold.1, symObjAddr: 0x765C, symBinAddr: 0xE1438, symSize: 0x1C }
  - { offset: 0x114773, size: 0x8, addend: 0x0, symName: __ZN5godot7WrappedD0Ev.cold.1, symObjAddr: 0x765C, symBinAddr: 0xE1438, symSize: 0x1C }
  - { offset: 0x1147F9, size: 0x8, addend: 0x0, symName: __ZN5godot4ListINS_12PropertyInfoENS_16DefaultAllocatorEE5_Data5eraseEPNS3_7ElementE.cold.2, symObjAddr: 0x7698, symBinAddr: 0xE1474, symSize: 0x20 }
  - { offset: 0x114811, size: 0x8, addend: 0x0, symName: __ZN5godot4ListINS_12PropertyInfoENS_16DefaultAllocatorEE5_Data5eraseEPNS3_7ElementE.cold.1, symObjAddr: 0x7678, symBinAddr: 0xE1454, symSize: 0x20 }
  - { offset: 0x114830, size: 0x8, addend: 0x0, symName: __ZN5godot8internal23EngineClassRegistrationINS_6ObjectEE8callbackEv.cold.1, symObjAddr: 0x76B8, symBinAddr: 0xE1494, symSize: 0x5C }
  - { offset: 0x11488A, size: 0x8, addend: 0x0, symName: __ZN5godot8internal23EngineClassRegistrationINS_16ClassDBSingletonEE8callbackEv.cold.1, symObjAddr: 0x7714, symBinAddr: 0xE14F0, symSize: 0x5C }
  - { offset: 0x1148BF, size: 0x8, addend: 0x0, symName: __ZN5godot8internal23EngineClassRegistrationINS_10RefCountedEE8callbackEv.cold.1, symObjAddr: 0x7770, symBinAddr: 0xE154C, symSize: 0x5C }
  - { offset: 0x114919, size: 0x8, addend: 0x0, symName: __ZN5godot8internal23EngineClassRegistrationINS_6LoggerEE8callbackEv.cold.1, symObjAddr: 0x77CC, symBinAddr: 0xE15A8, symSize: 0x5C }
  - { offset: 0x114947, size: 0x8, addend: 0x0, symName: __ZN5godot8internal23EngineClassRegistrationINS_15ScriptBacktraceEE8callbackEv.cold.1, symObjAddr: 0x7828, symBinAddr: 0xE1604, symSize: 0x5C }
  - { offset: 0x114991, size: 0x8, addend: 0x0, symName: __ZN5godot15ScriptBacktraceD1Ev.cold.1, symObjAddr: 0x7884, symBinAddr: 0xE1660, symSize: 0x1C }
  - { offset: 0x1149AC, size: 0x8, addend: 0x0, symName: __ZN5godot15ScriptBacktraceD1Ev.cold.1, symObjAddr: 0x7884, symBinAddr: 0xE1660, symSize: 0x1C }
  - { offset: 0x1149C0, size: 0x8, addend: 0x0, symName: __ZN5godot15ScriptBacktraceD1Ev.cold.1, symObjAddr: 0x7884, symBinAddr: 0xE1660, symSize: 0x1C }
  - { offset: 0x1149D4, size: 0x8, addend: 0x0, symName: __ZN5godot15ScriptBacktraceD1Ev.cold.1, symObjAddr: 0x7884, symBinAddr: 0xE1660, symSize: 0x1C }
  - { offset: 0x1149E8, size: 0x8, addend: 0x0, symName: __ZN5godot15ScriptBacktraceD1Ev.cold.1, symObjAddr: 0x7884, symBinAddr: 0xE1660, symSize: 0x1C }
  - { offset: 0x1149FC, size: 0x8, addend: 0x0, symName: __ZN5godot15ScriptBacktraceD1Ev.cold.1, symObjAddr: 0x7884, symBinAddr: 0xE1660, symSize: 0x1C }
  - { offset: 0x114A11, size: 0x8, addend: 0x0, symName: __ZN5godot15ScriptBacktraceD1Ev.cold.1, symObjAddr: 0x7884, symBinAddr: 0xE1660, symSize: 0x1C }
  - { offset: 0x114A45, size: 0x8, addend: 0x0, symName: __ZN5godot15ScriptBacktraceD0Ev.cold.1, symObjAddr: 0x78A0, symBinAddr: 0xE167C, symSize: 0x1C }
  - { offset: 0x114A60, size: 0x8, addend: 0x0, symName: __ZN5godot15ScriptBacktraceD0Ev.cold.1, symObjAddr: 0x78A0, symBinAddr: 0xE167C, symSize: 0x1C }
  - { offset: 0x114A74, size: 0x8, addend: 0x0, symName: __ZN5godot15ScriptBacktraceD0Ev.cold.1, symObjAddr: 0x78A0, symBinAddr: 0xE167C, symSize: 0x1C }
  - { offset: 0x114A88, size: 0x8, addend: 0x0, symName: __ZN5godot15ScriptBacktraceD0Ev.cold.1, symObjAddr: 0x78A0, symBinAddr: 0xE167C, symSize: 0x1C }
  - { offset: 0x114A9C, size: 0x8, addend: 0x0, symName: __ZN5godot15ScriptBacktraceD0Ev.cold.1, symObjAddr: 0x78A0, symBinAddr: 0xE167C, symSize: 0x1C }
  - { offset: 0x114AB0, size: 0x8, addend: 0x0, symName: __ZN5godot15ScriptBacktraceD0Ev.cold.1, symObjAddr: 0x78A0, symBinAddr: 0xE167C, symSize: 0x1C }
  - { offset: 0x114AC4, size: 0x8, addend: 0x0, symName: __ZN5godot15ScriptBacktraceD0Ev.cold.1, symObjAddr: 0x78A0, symBinAddr: 0xE167C, symSize: 0x1C }
  - { offset: 0x114AD9, size: 0x8, addend: 0x0, symName: __ZN5godot15ScriptBacktraceD0Ev.cold.1, symObjAddr: 0x78A0, symBinAddr: 0xE167C, symSize: 0x1C }
  - { offset: 0x114AF9, size: 0x8, addend: 0x0, symName: __ZN5godot8internal23EngineClassRegistrationINS_10ConfigFileEE8callbackEv.cold.1, symObjAddr: 0x78BC, symBinAddr: 0xE1698, symSize: 0x5C }
  - { offset: 0x114B43, size: 0x8, addend: 0x0, symName: __ZN5godot10ConfigFileD1Ev.cold.1, symObjAddr: 0x7918, symBinAddr: 0xE16F4, symSize: 0x1C }
  - { offset: 0x114B5E, size: 0x8, addend: 0x0, symName: __ZN5godot10ConfigFileD1Ev.cold.1, symObjAddr: 0x7918, symBinAddr: 0xE16F4, symSize: 0x1C }
  - { offset: 0x114B72, size: 0x8, addend: 0x0, symName: __ZN5godot10ConfigFileD1Ev.cold.1, symObjAddr: 0x7918, symBinAddr: 0xE16F4, symSize: 0x1C }
  - { offset: 0x114B86, size: 0x8, addend: 0x0, symName: __ZN5godot10ConfigFileD1Ev.cold.1, symObjAddr: 0x7918, symBinAddr: 0xE16F4, symSize: 0x1C }
  - { offset: 0x114B9A, size: 0x8, addend: 0x0, symName: __ZN5godot10ConfigFileD1Ev.cold.1, symObjAddr: 0x7918, symBinAddr: 0xE16F4, symSize: 0x1C }
  - { offset: 0x114BAE, size: 0x8, addend: 0x0, symName: __ZN5godot10ConfigFileD1Ev.cold.1, symObjAddr: 0x7918, symBinAddr: 0xE16F4, symSize: 0x1C }
  - { offset: 0x114BC3, size: 0x8, addend: 0x0, symName: __ZN5godot10ConfigFileD1Ev.cold.1, symObjAddr: 0x7918, symBinAddr: 0xE16F4, symSize: 0x1C }
  - { offset: 0x114BF7, size: 0x8, addend: 0x0, symName: __ZN5godot10ConfigFileD0Ev.cold.1, symObjAddr: 0x7934, symBinAddr: 0xE1710, symSize: 0x1C }
  - { offset: 0x114C12, size: 0x8, addend: 0x0, symName: __ZN5godot10ConfigFileD0Ev.cold.1, symObjAddr: 0x7934, symBinAddr: 0xE1710, symSize: 0x1C }
  - { offset: 0x114C26, size: 0x8, addend: 0x0, symName: __ZN5godot10ConfigFileD0Ev.cold.1, symObjAddr: 0x7934, symBinAddr: 0xE1710, symSize: 0x1C }
  - { offset: 0x114C3A, size: 0x8, addend: 0x0, symName: __ZN5godot10ConfigFileD0Ev.cold.1, symObjAddr: 0x7934, symBinAddr: 0xE1710, symSize: 0x1C }
  - { offset: 0x114C4E, size: 0x8, addend: 0x0, symName: __ZN5godot10ConfigFileD0Ev.cold.1, symObjAddr: 0x7934, symBinAddr: 0xE1710, symSize: 0x1C }
  - { offset: 0x114C62, size: 0x8, addend: 0x0, symName: __ZN5godot10ConfigFileD0Ev.cold.1, symObjAddr: 0x7934, symBinAddr: 0xE1710, symSize: 0x1C }
  - { offset: 0x114C76, size: 0x8, addend: 0x0, symName: __ZN5godot10ConfigFileD0Ev.cold.1, symObjAddr: 0x7934, symBinAddr: 0xE1710, symSize: 0x1C }
  - { offset: 0x114C8B, size: 0x8, addend: 0x0, symName: __ZN5godot10ConfigFileD0Ev.cold.1, symObjAddr: 0x7934, symBinAddr: 0xE1710, symSize: 0x1C }
  - { offset: 0x114CAB, size: 0x8, addend: 0x0, symName: __ZN5godot8internal23EngineClassRegistrationINS_5MutexEE8callbackEv.cold.1, symObjAddr: 0x7950, symBinAddr: 0xE172C, symSize: 0x5C }
  - { offset: 0x114CF5, size: 0x8, addend: 0x0, symName: __ZN5godot5MutexD1Ev.cold.1, symObjAddr: 0x79AC, symBinAddr: 0xE1788, symSize: 0x1C }
  - { offset: 0x114D10, size: 0x8, addend: 0x0, symName: __ZN5godot5MutexD1Ev.cold.1, symObjAddr: 0x79AC, symBinAddr: 0xE1788, symSize: 0x1C }
  - { offset: 0x114D24, size: 0x8, addend: 0x0, symName: __ZN5godot5MutexD1Ev.cold.1, symObjAddr: 0x79AC, symBinAddr: 0xE1788, symSize: 0x1C }
  - { offset: 0x114D38, size: 0x8, addend: 0x0, symName: __ZN5godot5MutexD1Ev.cold.1, symObjAddr: 0x79AC, symBinAddr: 0xE1788, symSize: 0x1C }
  - { offset: 0x114D4C, size: 0x8, addend: 0x0, symName: __ZN5godot5MutexD1Ev.cold.1, symObjAddr: 0x79AC, symBinAddr: 0xE1788, symSize: 0x1C }
  - { offset: 0x114D60, size: 0x8, addend: 0x0, symName: __ZN5godot5MutexD1Ev.cold.1, symObjAddr: 0x79AC, symBinAddr: 0xE1788, symSize: 0x1C }
  - { offset: 0x114D75, size: 0x8, addend: 0x0, symName: __ZN5godot5MutexD1Ev.cold.1, symObjAddr: 0x79AC, symBinAddr: 0xE1788, symSize: 0x1C }
  - { offset: 0x114DA9, size: 0x8, addend: 0x0, symName: __ZN5godot5MutexD0Ev.cold.1, symObjAddr: 0x79C8, symBinAddr: 0xE17A4, symSize: 0x1C }
  - { offset: 0x114DC4, size: 0x8, addend: 0x0, symName: __ZN5godot5MutexD0Ev.cold.1, symObjAddr: 0x79C8, symBinAddr: 0xE17A4, symSize: 0x1C }
  - { offset: 0x114DD8, size: 0x8, addend: 0x0, symName: __ZN5godot5MutexD0Ev.cold.1, symObjAddr: 0x79C8, symBinAddr: 0xE17A4, symSize: 0x1C }
  - { offset: 0x114DEC, size: 0x8, addend: 0x0, symName: __ZN5godot5MutexD0Ev.cold.1, symObjAddr: 0x79C8, symBinAddr: 0xE17A4, symSize: 0x1C }
  - { offset: 0x114E00, size: 0x8, addend: 0x0, symName: __ZN5godot5MutexD0Ev.cold.1, symObjAddr: 0x79C8, symBinAddr: 0xE17A4, symSize: 0x1C }
  - { offset: 0x114E14, size: 0x8, addend: 0x0, symName: __ZN5godot5MutexD0Ev.cold.1, symObjAddr: 0x79C8, symBinAddr: 0xE17A4, symSize: 0x1C }
  - { offset: 0x114E28, size: 0x8, addend: 0x0, symName: __ZN5godot5MutexD0Ev.cold.1, symObjAddr: 0x79C8, symBinAddr: 0xE17A4, symSize: 0x1C }
  - { offset: 0x114E3D, size: 0x8, addend: 0x0, symName: __ZN5godot5MutexD0Ev.cold.1, symObjAddr: 0x79C8, symBinAddr: 0xE17A4, symSize: 0x1C }
  - { offset: 0x114E5D, size: 0x8, addend: 0x0, symName: __ZN5godot8internal23EngineClassRegistrationINS_6EngineEE8callbackEv.cold.1, symObjAddr: 0x79E4, symBinAddr: 0xE17C0, symSize: 0x5C }
  - { offset: 0x114E92, size: 0x8, addend: 0x0, symName: __ZN5godot8internal23EngineClassRegistrationINS_14ResourceLoaderEE8callbackEv, symObjAddr: 0x41B4, symBinAddr: 0x1FC50, symSize: 0x48 }
  - { offset: 0x114EDC, size: 0x8, addend: 0x0, symName: __ZN5godot8internal23EngineClassRegistrationINS_14ResourceLoaderEE8callbackEv.cold.1, symObjAddr: 0x7A40, symBinAddr: 0xE181C, symSize: 0x5C }
  - { offset: 0x114F54, size: 0x8, addend: 0x0, symName: __ZN5godot14ResourceLoader28_gde_binding_create_callbackEPvS1_, symObjAddr: 0x41FC, symBinAddr: 0x1FC98, symSize: 0x48 }
  - { offset: 0x114FF0, size: 0x8, addend: 0x0, symName: __ZN5godot14ResourceLoader26_gde_binding_free_callbackEPvS1_S1_, symObjAddr: 0x4244, symBinAddr: 0x1FCE0, symSize: 0x34 }
  - { offset: 0x115045, size: 0x8, addend: 0x0, symName: __ZN5godot14ResourceLoader31_gde_binding_reference_callbackEPvS1_h, symObjAddr: 0x4278, symBinAddr: 0x1FD14, symSize: 0x8 }
  - { offset: 0x11508C, size: 0x8, addend: 0x0, symName: __ZN5godot8internal23EngineClassRegistrationINS_8MainLoopEE8callbackEv.cold.1, symObjAddr: 0x7A9C, symBinAddr: 0xE1878, symSize: 0x5C }
  - { offset: 0x1150BF, size: 0x8, addend: 0x0, symName: __ZN5godot8internal23EngineClassRegistrationINS_9SceneTreeEE8callbackEv.cold.1, symObjAddr: 0x7AF8, symBinAddr: 0xE18D4, symSize: 0x5C }
  - { offset: 0x115125, size: 0x8, addend: 0x0, symName: __ZN5godot9SceneTreeD1Ev.cold.1, symObjAddr: 0x7B54, symBinAddr: 0xE1930, symSize: 0x1C }
  - { offset: 0x115140, size: 0x8, addend: 0x0, symName: __ZN5godot9SceneTreeD1Ev.cold.1, symObjAddr: 0x7B54, symBinAddr: 0xE1930, symSize: 0x1C }
  - { offset: 0x115154, size: 0x8, addend: 0x0, symName: __ZN5godot9SceneTreeD1Ev.cold.1, symObjAddr: 0x7B54, symBinAddr: 0xE1930, symSize: 0x1C }
  - { offset: 0x115168, size: 0x8, addend: 0x0, symName: __ZN5godot9SceneTreeD1Ev.cold.1, symObjAddr: 0x7B54, symBinAddr: 0xE1930, symSize: 0x1C }
  - { offset: 0x11517C, size: 0x8, addend: 0x0, symName: __ZN5godot9SceneTreeD1Ev.cold.1, symObjAddr: 0x7B54, symBinAddr: 0xE1930, symSize: 0x1C }
  - { offset: 0x115190, size: 0x8, addend: 0x0, symName: __ZN5godot9SceneTreeD1Ev.cold.1, symObjAddr: 0x7B54, symBinAddr: 0xE1930, symSize: 0x1C }
  - { offset: 0x1151A5, size: 0x8, addend: 0x0, symName: __ZN5godot9SceneTreeD1Ev.cold.1, symObjAddr: 0x7B54, symBinAddr: 0xE1930, symSize: 0x1C }
  - { offset: 0x1151D9, size: 0x8, addend: 0x0, symName: __ZN5godot9SceneTreeD0Ev.cold.1, symObjAddr: 0x7B70, symBinAddr: 0xE194C, symSize: 0x1C }
  - { offset: 0x1151F4, size: 0x8, addend: 0x0, symName: __ZN5godot9SceneTreeD0Ev.cold.1, symObjAddr: 0x7B70, symBinAddr: 0xE194C, symSize: 0x1C }
  - { offset: 0x115208, size: 0x8, addend: 0x0, symName: __ZN5godot9SceneTreeD0Ev.cold.1, symObjAddr: 0x7B70, symBinAddr: 0xE194C, symSize: 0x1C }
  - { offset: 0x11521C, size: 0x8, addend: 0x0, symName: __ZN5godot9SceneTreeD0Ev.cold.1, symObjAddr: 0x7B70, symBinAddr: 0xE194C, symSize: 0x1C }
  - { offset: 0x115230, size: 0x8, addend: 0x0, symName: __ZN5godot9SceneTreeD0Ev.cold.1, symObjAddr: 0x7B70, symBinAddr: 0xE194C, symSize: 0x1C }
  - { offset: 0x115244, size: 0x8, addend: 0x0, symName: __ZN5godot9SceneTreeD0Ev.cold.1, symObjAddr: 0x7B70, symBinAddr: 0xE194C, symSize: 0x1C }
  - { offset: 0x115258, size: 0x8, addend: 0x0, symName: __ZN5godot9SceneTreeD0Ev.cold.1, symObjAddr: 0x7B70, symBinAddr: 0xE194C, symSize: 0x1C }
  - { offset: 0x11526D, size: 0x8, addend: 0x0, symName: __ZN5godot9SceneTreeD0Ev.cold.1, symObjAddr: 0x7B70, symBinAddr: 0xE194C, symSize: 0x1C }
  - { offset: 0x11528D, size: 0x8, addend: 0x0, symName: __ZN5godot8internal23EngineClassRegistrationINS_8ResourceEE8callbackEv.cold.1, symObjAddr: 0x7B8C, symBinAddr: 0xE1968, symSize: 0x5C }
  - { offset: 0x1152E0, size: 0x8, addend: 0x0, symName: __ZN5godot8internal23EngineClassRegistrationINS_6ScriptEE8callbackEv, symObjAddr: 0x45E0, symBinAddr: 0x1FD1C, symSize: 0x48 }
  - { offset: 0x11532A, size: 0x8, addend: 0x0, symName: __ZN5godot8internal23EngineClassRegistrationINS_6ScriptEE8callbackEv.cold.1, symObjAddr: 0x7BE8, symBinAddr: 0xE19C4, symSize: 0x5C }
  - { offset: 0x1153A2, size: 0x8, addend: 0x0, symName: __ZN5godot6Script28_gde_binding_create_callbackEPvS1_, symObjAddr: 0x4628, symBinAddr: 0x1FD64, symSize: 0x44 }
  - { offset: 0x115484, size: 0x8, addend: 0x0, symName: __ZN5godot6Script26_gde_binding_free_callbackEPvS1_S1_, symObjAddr: 0x466C, symBinAddr: 0x1FDA8, symSize: 0x34 }
  - { offset: 0x1154D9, size: 0x8, addend: 0x0, symName: __ZN5godot6Script31_gde_binding_reference_callbackEPvS1_h, symObjAddr: 0x46A0, symBinAddr: 0x1FDDC, symSize: 0x8 }
  - { offset: 0x115551, size: 0x8, addend: 0x0, symName: __ZN5godot6ScriptD1Ev, symObjAddr: 0x46A8, symBinAddr: 0x1FDE4, symSize: 0x8C }
  - { offset: 0x115705, size: 0x8, addend: 0x0, symName: __ZN5godot6ScriptD1Ev.cold.1, symObjAddr: 0x7C44, symBinAddr: 0xE1A20, symSize: 0x1C }
  - { offset: 0x115720, size: 0x8, addend: 0x0, symName: __ZN5godot6ScriptD1Ev.cold.1, symObjAddr: 0x7C44, symBinAddr: 0xE1A20, symSize: 0x1C }
  - { offset: 0x115734, size: 0x8, addend: 0x0, symName: __ZN5godot6ScriptD1Ev.cold.1, symObjAddr: 0x7C44, symBinAddr: 0xE1A20, symSize: 0x1C }
  - { offset: 0x115748, size: 0x8, addend: 0x0, symName: __ZN5godot6ScriptD1Ev.cold.1, symObjAddr: 0x7C44, symBinAddr: 0xE1A20, symSize: 0x1C }
  - { offset: 0x11575C, size: 0x8, addend: 0x0, symName: __ZN5godot6ScriptD1Ev.cold.1, symObjAddr: 0x7C44, symBinAddr: 0xE1A20, symSize: 0x1C }
  - { offset: 0x115770, size: 0x8, addend: 0x0, symName: __ZN5godot6ScriptD1Ev.cold.1, symObjAddr: 0x7C44, symBinAddr: 0xE1A20, symSize: 0x1C }
  - { offset: 0x115784, size: 0x8, addend: 0x0, symName: __ZN5godot6ScriptD1Ev.cold.1, symObjAddr: 0x7C44, symBinAddr: 0xE1A20, symSize: 0x1C }
  - { offset: 0x115799, size: 0x8, addend: 0x0, symName: __ZN5godot6ScriptD1Ev.cold.1, symObjAddr: 0x7C44, symBinAddr: 0xE1A20, symSize: 0x1C }
  - { offset: 0x1157CE, size: 0x8, addend: 0x0, symName: __ZN5godot6ScriptD0Ev, symObjAddr: 0x4734, symBinAddr: 0x1FE70, symSize: 0x74 }
  - { offset: 0x11592F, size: 0x8, addend: 0x0, symName: __ZN5godot6ScriptD0Ev.cold.1, symObjAddr: 0x7C60, symBinAddr: 0xE1A3C, symSize: 0x1C }
  - { offset: 0x11594A, size: 0x8, addend: 0x0, symName: __ZN5godot6ScriptD0Ev.cold.1, symObjAddr: 0x7C60, symBinAddr: 0xE1A3C, symSize: 0x1C }
  - { offset: 0x11595E, size: 0x8, addend: 0x0, symName: __ZN5godot6ScriptD0Ev.cold.1, symObjAddr: 0x7C60, symBinAddr: 0xE1A3C, symSize: 0x1C }
  - { offset: 0x115972, size: 0x8, addend: 0x0, symName: __ZN5godot6ScriptD0Ev.cold.1, symObjAddr: 0x7C60, symBinAddr: 0xE1A3C, symSize: 0x1C }
  - { offset: 0x115986, size: 0x8, addend: 0x0, symName: __ZN5godot6ScriptD0Ev.cold.1, symObjAddr: 0x7C60, symBinAddr: 0xE1A3C, symSize: 0x1C }
  - { offset: 0x11599A, size: 0x8, addend: 0x0, symName: __ZN5godot6ScriptD0Ev.cold.1, symObjAddr: 0x7C60, symBinAddr: 0xE1A3C, symSize: 0x1C }
  - { offset: 0x1159AE, size: 0x8, addend: 0x0, symName: __ZN5godot6ScriptD0Ev.cold.1, symObjAddr: 0x7C60, symBinAddr: 0xE1A3C, symSize: 0x1C }
  - { offset: 0x1159C2, size: 0x8, addend: 0x0, symName: __ZN5godot6ScriptD0Ev.cold.1, symObjAddr: 0x7C60, symBinAddr: 0xE1A3C, symSize: 0x1C }
  - { offset: 0x1159D7, size: 0x8, addend: 0x0, symName: __ZN5godot6ScriptD0Ev.cold.1, symObjAddr: 0x7C60, symBinAddr: 0xE1A3C, symSize: 0x1C }
  - { offset: 0x1159F1, size: 0x8, addend: 0x0, symName: __ZN5godot7CowDataIN6sentry11SentryEvent10StackFrameEE6_unrefEv, symObjAddr: 0x47A8, symBinAddr: 0x1FEE4, symSize: 0x74 }
  - { offset: 0x115BD1, size: 0x8, addend: 0x0, symName: __ZN5godot7CowDataIN6sentry11SentryEvent10StackFrameEE6resizeILb0EEENS_5ErrorEx, symObjAddr: 0x49B4, symBinAddr: 0x200F0, symSize: 0x358 }
  - { offset: 0x116358, size: 0x8, addend: 0x0, symName: __ZN5godot7CowDataIN6sentry11SentryEvent10StackFrameEE14_copy_on_writeEv, symObjAddr: 0x4D0C, symBinAddr: 0x20448, symSize: 0x48 }
  - { offset: 0x1164A0, size: 0x8, addend: 0x0, symName: __ZN6sentry11SentryEvent10StackFrameaSERKS1_, symObjAddr: 0x4D54, symBinAddr: 0x20490, symSize: 0x138 }
  - { offset: 0x11674C, size: 0x8, addend: 0x0, symName: __ZN5godot6VectorIN6sentry11SentryEvent10StackFrameEE9push_backES3_.cold.2, symObjAddr: 0x7CC0, symBinAddr: 0xE1A9C, symSize: 0x20 }
  - { offset: 0x116764, size: 0x8, addend: 0x0, symName: __ZN5godot6VectorIN6sentry11SentryEvent10StackFrameEE9push_backES3_.cold.1, symObjAddr: 0x7C7C, symBinAddr: 0xE1A58, symSize: 0x44 }
  - { offset: 0x1167A9, size: 0x8, addend: 0x0, symName: __ZN6sentry11SentryEvent10StackFrameC1ERKS1_, symObjAddr: 0x48F8, symBinAddr: 0x20034, symSize: 0xBC }
  - { offset: 0x116A9B, size: 0x8, addend: 0x0, symName: __ZN5godot7CowDataIN6sentry11SentryEvent10StackFrameEE6resizeILb0EEENS_5ErrorEx.cold.4, symObjAddr: 0x7D40, symBinAddr: 0xE1B1C, symSize: 0x20 }
  - { offset: 0x116AB3, size: 0x8, addend: 0x0, symName: __ZN5godot7CowDataIN6sentry11SentryEvent10StackFrameEE6resizeILb0EEENS_5ErrorEx.cold.5, symObjAddr: 0x7D60, symBinAddr: 0xE1B3C, symSize: 0x20 }
  - { offset: 0x116ACB, size: 0x8, addend: 0x0, symName: __ZN5godot7CowDataIN6sentry11SentryEvent10StackFrameEE6resizeILb0EEENS_5ErrorEx.cold.2, symObjAddr: 0x7D00, symBinAddr: 0xE1ADC, symSize: 0x20 }
  - { offset: 0x116AE7, size: 0x8, addend: 0x0, symName: __ZN5godot7CowDataIN6sentry11SentryEvent10StackFrameEE6resizeILb0EEENS_5ErrorEx.cold.2, symObjAddr: 0x7D00, symBinAddr: 0xE1ADC, symSize: 0x20 }
  - { offset: 0x116AFA, size: 0x8, addend: 0x0, symName: __ZN5godot7CowDataIN6sentry11SentryEvent10StackFrameEE6resizeILb0EEENS_5ErrorEx.cold.1, symObjAddr: 0x7CE0, symBinAddr: 0xE1ABC, symSize: 0x20 }
  - { offset: 0x116B16, size: 0x8, addend: 0x0, symName: __ZN5godot7CowDataIN6sentry11SentryEvent10StackFrameEE6resizeILb0EEENS_5ErrorEx.cold.1, symObjAddr: 0x7CE0, symBinAddr: 0xE1ABC, symSize: 0x20 }
  - { offset: 0x116B29, size: 0x8, addend: 0x0, symName: __ZN5godot7CowDataIN6sentry11SentryEvent10StackFrameEE6resizeILb0EEENS_5ErrorEx.cold.3, symObjAddr: 0x7D20, symBinAddr: 0xE1AFC, symSize: 0x20 }
  - { offset: 0x116B41, size: 0x8, addend: 0x0, symName: __ZN5godot7CowDataIN6sentry11SentryEvent10StackFrameEE14_copy_on_writeEv.cold.1, symObjAddr: 0x7D80, symBinAddr: 0xE1B5C, symSize: 0xC8 }
  - { offset: 0x116FB6, size: 0x8, addend: 0x0, symName: __ZNK5godot27CallableCustomMethodPointerIN6sentry12SentryLoggerEJEE10get_objectEv, symObjAddr: 0x52D8, symBinAddr: 0x20A14, symSize: 0x8 }
  - { offset: 0x116FDD, size: 0x8, addend: 0x0, symName: __ZNK5godot27CallableCustomMethodPointerIN6sentry12SentryLoggerEJEE18get_argument_countERb, symObjAddr: 0x52E0, symBinAddr: 0x20A1C, symSize: 0x10 }
  - { offset: 0x117012, size: 0x8, addend: 0x0, symName: __ZNK5godot27CallableCustomMethodPointerIN6sentry12SentryLoggerEJEE4callEPPKNS_7VariantEiRS4_R20GDExtensionCallError, symObjAddr: 0x52F0, symBinAddr: 0x20A2C, symSize: 0x20 }
  - { offset: 0x1170D3, size: 0x8, addend: 0x0, symName: __ZN5godot27CallableCustomMethodPointerIN6sentry12SentryLoggerEJEED1Ev, symObjAddr: 0x5310, symBinAddr: 0x20A4C, symSize: 0x4 }
  - { offset: 0x1170FE, size: 0x8, addend: 0x0, symName: __ZN5godot27CallableCustomMethodPointerIN6sentry12SentryLoggerEJEED0Ev, symObjAddr: 0x5314, symBinAddr: 0x20A50, symSize: 0x4 }
  - { offset: 0x117736, size: 0x8, addend: 0x0, symName: __ZNSt3__114__split_bufferIPNS_6chrono10time_pointINS1_12steady_clockENS1_8durationIxNS_5ratioILl1ELl1000000000EEEEEEENS_9allocatorIS9_EEE9push_backEOS9_, symObjAddr: 0x59C4, symBinAddr: 0x21100, symSize: 0x184 }
  - { offset: 0x117BAE, size: 0x8, addend: 0x0, symName: __ZNSt3__114__split_bufferIPNS_6chrono10time_pointINS1_12steady_clockENS1_8durationIxNS_5ratioILl1ELl1000000000EEEEEEENS_9allocatorIS9_EEE10push_frontEOS9_, symObjAddr: 0x5B48, symBinAddr: 0x21284, symSize: 0x190 }
  - { offset: 0x117BB9, size: 0x8, addend: 0x0, symName: __ZNSt3__114__split_bufferIPNS_6chrono10time_pointINS1_12steady_clockENS1_8durationIxNS_5ratioILl1ELl1000000000EEEEEEENS_9allocatorIS9_EEE10push_frontEOS9_, symObjAddr: 0x5B48, symBinAddr: 0x21284, symSize: 0x190 }
  - { offset: 0x11848B, size: 0x8, addend: 0x0, symName: __ZNSt3__112__hash_tableINS_17__hash_value_typeIN6sentry12SentryLogger8ErrorKeyENS_6chrono10time_pointINS5_12steady_clockENS5_8durationIxNS_5ratioILl1ELl1000000000EEEEEEEEENS_22__unordered_map_hasherIS4_SD_NS3_12ErrorKeyHashENS_8equal_toIS4_EELb1EEENS_21__unordered_map_equalIS4_SD_SH_SF_Lb1EEENS_9allocatorISD_EEE11__do_rehashILb1EEEvm, symObjAddr: 0x6060, symBinAddr: 0x21790, symSize: 0x1A0 }
  - { offset: 0x118AAC, size: 0x8, addend: 0x0, symName: __ZN5godot16UtilityFunctions8printerrIJNS_7VariantENS_6StringEA9_cS3_A3_cS3_A2_ciS6_A12_cbA15_cbEEEvRKS2_DpRKT_, symObjAddr: 0x6934, symBinAddr: 0x21E64, symSize: 0x2C8 }
  - { offset: 0x118D52, size: 0x8, addend: 0x0, symName: __ZN5godot16UtilityFunctions5printIJNS_7VariantENS_6StringEA9_cS3_A3_cS3_A2_ciS6_A12_cbA15_cbEEEvRKS2_DpRKT_, symObjAddr: 0x666C, symBinAddr: 0x21B9C, symSize: 0x2C8 }
  - { offset: 0x11916E, size: 0x8, addend: 0x0, symName: __ZN5godot18create_method_bindIN6sentry12SentryLoggerEJEEEPNS_10MethodBindEMT_FvDpT0_E.cold.1, symObjAddr: 0x7E48, symBinAddr: 0xE1C24, symSize: 0x60 }
  - { offset: 0x11919D, size: 0x8, addend: 0x0, symName: __ZNK5godot11MethodBindTIJEE17gen_argument_typeEi, symObjAddr: 0x6D10, symBinAddr: 0x22240, symSize: 0x8 }
  - { offset: 0x119229, size: 0x8, addend: 0x0, symName: __ZNK5godot11MethodBindTIJEE22gen_argument_type_infoEi, symObjAddr: 0x6D18, symBinAddr: 0x22248, symSize: 0x104 }
  - { offset: 0x119309, size: 0x8, addend: 0x0, symName: __ZNK5godot11MethodBindTIJEE21get_argument_metadataEi, symObjAddr: 0x6E1C, symBinAddr: 0x2234C, symSize: 0x8 }
  - { offset: 0x119378, size: 0x8, addend: 0x0, symName: __ZNK5godot11MethodBindTIJEE4callEPvPKPKvxR20GDExtensionCallError, symObjAddr: 0x6E24, symBinAddr: 0x22354, symSize: 0x9C }
  - { offset: 0x119452, size: 0x8, addend: 0x0, symName: __ZNK5godot11MethodBindTIJEE7ptrcallEPvPKPKvS2_, symObjAddr: 0x6EC0, symBinAddr: 0x223F0, symSize: 0x18 }
  - { offset: 0x11951B, size: 0x8, addend: 0x0, symName: __ZN5godot11MethodBindTIJEED1Ev, symObjAddr: 0x6ED8, symBinAddr: 0x22408, symSize: 0x4 }
  - { offset: 0x11953E, size: 0x8, addend: 0x0, symName: __ZN5godot11MethodBindTIJEED1Ev, symObjAddr: 0x6ED8, symBinAddr: 0x22408, symSize: 0x4 }
  - { offset: 0x119576, size: 0x8, addend: 0x0, symName: __ZN5godot11MethodBindTIJEED0Ev, symObjAddr: 0x6EDC, symBinAddr: 0x2240C, symSize: 0x14 }
  - { offset: 0x1199FA, size: 0x8, addend: 0x0, symName: _OUTLINED_FUNCTION_0, symObjAddr: 0x7EA8, symBinAddr: 0x226D8, symSize: 0x10 }
  - { offset: 0x119A12, size: 0x8, addend: 0x0, symName: _OUTLINED_FUNCTION_1, symObjAddr: 0x7EB8, symBinAddr: 0x226E8, symSize: 0xC }
  - { offset: 0x119A2A, size: 0x8, addend: 0x0, symName: _OUTLINED_FUNCTION_2, symObjAddr: 0x7EC4, symBinAddr: 0x226F4, symSize: 0xC }
  - { offset: 0x119A42, size: 0x8, addend: 0x0, symName: _OUTLINED_FUNCTION_3, symObjAddr: 0x7ED0, symBinAddr: 0x22700, symSize: 0x8 }
  - { offset: 0x119A5A, size: 0x8, addend: 0x0, symName: _OUTLINED_FUNCTION_4, symObjAddr: 0x7ED8, symBinAddr: 0x22708, symSize: 0x8 }
  - { offset: 0x119A72, size: 0x8, addend: 0x0, symName: _OUTLINED_FUNCTION_5, symObjAddr: 0x7EE0, symBinAddr: 0x22710, symSize: 0x8 }
  - { offset: 0x119A8A, size: 0x8, addend: 0x0, symName: _OUTLINED_FUNCTION_6, symObjAddr: 0x7EE8, symBinAddr: 0x22718, symSize: 0x10 }
  - { offset: 0x119AA2, size: 0x8, addend: 0x0, symName: _OUTLINED_FUNCTION_7, symObjAddr: 0x7EF8, symBinAddr: 0x22728, symSize: 0x24 }
  - { offset: 0x119ABA, size: 0x8, addend: 0x0, symName: _OUTLINED_FUNCTION_8, symObjAddr: 0x7F1C, symBinAddr: 0x2274C, symSize: 0x8 }
  - { offset: 0x119AD2, size: 0x8, addend: 0x0, symName: _OUTLINED_FUNCTION_9, symObjAddr: 0x7F24, symBinAddr: 0x22754, symSize: 0x10 }
  - { offset: 0x119AEA, size: 0x8, addend: 0x0, symName: _OUTLINED_FUNCTION_10, symObjAddr: 0x7F34, symBinAddr: 0x22764, symSize: 0x8 }
  - { offset: 0x119B02, size: 0x8, addend: 0x0, symName: _OUTLINED_FUNCTION_11, symObjAddr: 0x7F3C, symBinAddr: 0x2276C, symSize: 0xC }
  - { offset: 0x11F845, size: 0x8, addend: 0x0, symName: __ZN5godot18create_method_bindIN6sentry18SentryLoggerLimitsEJiEEEPNS_10MethodBindEMT_FvDpT0_E, symObjAddr: 0x8008, symBinAddr: 0x29D58, symSize: 0x114 }
  - { offset: 0x11F98D, size: 0x8, addend: 0x0, symName: __ZN5godot18create_method_bindIN6sentry18SentryLoggerLimitsEiJEEEPNS_10MethodBindEMT_FT0_DpT1_E, symObjAddr: 0x8588, symBinAddr: 0x2A2D8, symSize: 0x120 }
  - { offset: 0x11FC03, size: 0x8, addend: 0x0, symName: __ZN5godot18create_method_bindIN6sentry13SentryOptionsEJRKNS_6StringEEEEPNS_10MethodBindEMT_FvDpT0_E, symObjAddr: 0x8F6C, symBinAddr: 0x2AB8C, symSize: 0x114 }
  - { offset: 0x11FD36, size: 0x8, addend: 0x0, symName: __ZN5godot18create_method_bindIN6sentry13SentryOptionsENS_6StringEJEEEPNS_10MethodBindEMT_KFT0_DpT1_E, symObjAddr: 0x9550, symBinAddr: 0x2ACA0, symSize: 0x12C }
  - { offset: 0x11FE6C, size: 0x8, addend: 0x0, symName: __ZN5godot18create_method_bindIN6sentry13SentryOptionsEJbEEEPNS_10MethodBindEMT_FvDpT0_E, symObjAddr: 0x9918, symBinAddr: 0x2ADFC, symSize: 0x114 }
  - { offset: 0x11FF9F, size: 0x8, addend: 0x0, symName: __ZN5godot18create_method_bindIN6sentry13SentryOptionsEbJEEEPNS_10MethodBindEMT_KFT0_DpT1_E, symObjAddr: 0x9E94, symBinAddr: 0x2B378, symSize: 0x12C }
  - { offset: 0x1200D5, size: 0x8, addend: 0x0, symName: __ZN5godot18create_method_bindIN6sentry13SentryOptionsEJNS1_5LevelEEEEPNS_10MethodBindEMT_FvDpT0_E, symObjAddr: 0xA1E8, symBinAddr: 0x2B4B4, symSize: 0x114 }
  - { offset: 0x120208, size: 0x8, addend: 0x0, symName: __ZN5godot18create_method_bindIN6sentry13SentryOptionsENS1_5LevelEJEEEPNS_10MethodBindEMT_KFT0_DpT1_E, symObjAddr: 0xA8F8, symBinAddr: 0x2B5C8, symSize: 0x12C }
  - { offset: 0x12033E, size: 0x8, addend: 0x0, symName: __ZN5godot18create_method_bindIN6sentry13SentryOptionsEJdEEEPNS_10MethodBindEMT_FvDpT0_E, symObjAddr: 0xAB70, symBinAddr: 0x2B718, symSize: 0x114 }
  - { offset: 0x120471, size: 0x8, addend: 0x0, symName: __ZN5godot18create_method_bindIN6sentry13SentryOptionsEdJEEEPNS_10MethodBindEMT_KFT0_DpT1_E, symObjAddr: 0xB0EC, symBinAddr: 0x2BC94, symSize: 0x12C }
  - { offset: 0x1205A7, size: 0x8, addend: 0x0, symName: __ZN5godot18create_method_bindIN6sentry13SentryOptionsEJiEEEPNS_10MethodBindEMT_FvDpT0_E, symObjAddr: 0xB440, symBinAddr: 0x2BFE8, symSize: 0x114 }
  - { offset: 0x1206DA, size: 0x8, addend: 0x0, symName: __ZN5godot18create_method_bindIN6sentry13SentryOptionsEiJEEEPNS_10MethodBindEMT_KFT0_DpT1_E, symObjAddr: 0xB554, symBinAddr: 0x2C0FC, symSize: 0x12C }
  - { offset: 0x120810, size: 0x8, addend: 0x0, symName: __ZN5godot18create_method_bindIN6sentry13SentryOptionsEJNS_8BitFieldINS1_14GodotErrorMaskEEEEEEPNS_10MethodBindEMT_FvDpT0_E, symObjAddr: 0xB940, symBinAddr: 0x2C4E8, symSize: 0x114 }
  - { offset: 0x120943, size: 0x8, addend: 0x0, symName: __ZN5godot18create_method_bindIN6sentry13SentryOptionsENS_8BitFieldINS1_14GodotErrorMaskEEEJEEEPNS_10MethodBindEMT_KFT0_DpT1_E, symObjAddr: 0xBF3C, symBinAddr: 0x2CAE4, symSize: 0x12C }
  - { offset: 0x120A79, size: 0x8, addend: 0x0, symName: __ZN5godot18create_method_bindIN6sentry13SentryOptionsEJRKNS_3RefINS1_18SentryLoggerLimitsEEEEEEPNS_10MethodBindEMT_FvDpT0_E, symObjAddr: 0xC1B4, symBinAddr: 0x2CD5C, symSize: 0x114 }
  - { offset: 0x120BAC, size: 0x8, addend: 0x0, symName: __ZN5godot18create_method_bindIN6sentry13SentryOptionsENS_3RefINS1_18SentryLoggerLimitsEEEJEEEPNS_10MethodBindEMT_KFT0_DpT1_E, symObjAddr: 0xC988, symBinAddr: 0x2D530, symSize: 0x12C }
  - { offset: 0x120CE2, size: 0x8, addend: 0x0, symName: __ZN5godot18create_method_bindIN6sentry13SentryOptionsEJRKNS_8CallableEEEEPNS_10MethodBindEMT_FvDpT0_E, symObjAddr: 0xCE04, symBinAddr: 0x2D9AC, symSize: 0x114 }
  - { offset: 0x120E15, size: 0x8, addend: 0x0, symName: __ZN5godot18create_method_bindIN6sentry13SentryOptionsENS_8CallableEJEEEPNS_10MethodBindEMT_KFT0_DpT1_E, symObjAddr: 0xD3E8, symBinAddr: 0x2DF90, symSize: 0x12C }
  - { offset: 0x121112, size: 0x8, addend: 0x0, symName: __ZN5godot34call_get_argument_type_info_helperIiEEviRiRNS_12PropertyInfoE, symObjAddr: 0x82EC, symBinAddr: 0x2A03C, symSize: 0x174 }
  - { offset: 0x1212C6, size: 0x8, addend: 0x0, symName: __ZN5godot25call_with_variant_args_dvINS_20_gde_UnexistingClassEJiEEEvPT_MS2_FvDpT0_EPKPKviR20GDExtensionCallErrorRKNSt3__16vectorINS_7VariantENSE_9allocatorISG_EEEE, symObjAddr: 0x8460, symBinAddr: 0x2A1B0, symSize: 0x128 }
  - { offset: 0x121C91, size: 0x8, addend: 0x0, symName: __ZN5godot34call_get_argument_type_info_helperIbEEviRiRNS_12PropertyInfoE, symObjAddr: 0x9BF8, symBinAddr: 0x2B0DC, symSize: 0x174 }
  - { offset: 0x121DB4, size: 0x8, addend: 0x0, symName: __ZN5godot25call_with_variant_args_dvINS_20_gde_UnexistingClassEJbEEEvPT_MS2_FvDpT0_EPKPKviR20GDExtensionCallErrorRKNSt3__16vectorINS_7VariantENSE_9allocatorISG_EEEE, symObjAddr: 0x9D6C, symBinAddr: 0x2B250, symSize: 0x128 }
  - { offset: 0x122561, size: 0x8, addend: 0x0, symName: __ZN5godot34call_get_argument_type_info_helperIdEEviRiRNS_12PropertyInfoE, symObjAddr: 0xAE54, symBinAddr: 0x2B9FC, symSize: 0x174 }
  - { offset: 0x122715, size: 0x8, addend: 0x0, symName: __ZN5godot25call_with_variant_args_dvINS_20_gde_UnexistingClassEJdEEEvPT_MS2_FvDpT0_EPKPKviR20GDExtensionCallErrorRKNSt3__16vectorINS_7VariantENSE_9allocatorISG_EEEE, symObjAddr: 0xAFC8, symBinAddr: 0x2BB70, symSize: 0x124 }
  - { offset: 0x12317F, size: 0x8, addend: 0x0, symName: __ZN5godot34call_get_argument_type_info_helperINS_8BitFieldIN6sentry14GodotErrorMaskEEEEEviRiRNS_12PropertyInfoE, symObjAddr: 0xBC1C, symBinAddr: 0x2C7C4, symSize: 0xD4 }
  - { offset: 0x123237, size: 0x8, addend: 0x0, symName: __ZN5godot25call_with_variant_args_dvINS_20_gde_UnexistingClassEJNS_8BitFieldIN6sentry14GodotErrorMaskEEEEEEvPT_MS6_FvDpT0_EPKPKviR20GDExtensionCallErrorRKNSt3__16vectorINS_7VariantENSI_9allocatorISK_EEEE, symObjAddr: 0xBE14, symBinAddr: 0x2C9BC, symSize: 0x128 }
  - { offset: 0x123993, size: 0x8, addend: 0x0, symName: __ZN5godot34call_get_argument_type_info_helperIRKNS_3RefIN6sentry18SentryLoggerLimitsEEEEEviRiRNS_12PropertyInfoE, symObjAddr: 0xC530, symBinAddr: 0x2D0D8, symSize: 0xD4 }
  - { offset: 0x123A4B, size: 0x8, addend: 0x0, symName: __ZN5godot25call_with_variant_args_dvINS_20_gde_UnexistingClassEJRKNS_3RefIN6sentry18SentryLoggerLimitsEEEEEEvPT_MS8_FvDpT0_EPKPKviR20GDExtensionCallErrorRKNSt3__16vectorINS_7VariantENSK_9allocatorISM_EEEE, symObjAddr: 0xC730, symBinAddr: 0x2D2D8, symSize: 0x170 }
  - { offset: 0x123F40, size: 0x8, addend: 0x0, symName: __ZN5godot30call_with_variant_args_retc_dvINS_20_gde_UnexistingClassENS_3RefIN6sentry18SentryLoggerLimitsEEEJEEEvPT_MS6_KFT0_DpT1_EPKPKviRNS_7VariantER20GDExtensionCallErrorRKNSt3__16vectorISH_NSL_9allocatorISH_EEEE, symObjAddr: 0xCD0C, symBinAddr: 0x2D8B4, symSize: 0xE4 }
  - { offset: 0x1243D2, size: 0x8, addend: 0x0, symName: __ZN5godot34call_get_argument_type_info_helperIRKNS_8CallableEEEviRiRNS_12PropertyInfoE, symObjAddr: 0xD140, symBinAddr: 0x2DCE8, symSize: 0x174 }
  - { offset: 0x1244F5, size: 0x8, addend: 0x0, symName: __ZN5godot25call_with_variant_args_dvINS_20_gde_UnexistingClassEJRKNS_8CallableEEEEvPT_MS5_FvDpT0_EPKPKviR20GDExtensionCallErrorRKNSt3__16vectorINS_7VariantENSH_9allocatorISJ_EEEE, symObjAddr: 0xD2B4, symBinAddr: 0x2DE5C, symSize: 0x134 }
  - { offset: 0x1306C6, size: 0x8, addend: 0x0, symName: __ZN6sentry13SentryOptions9singletonE, symObjAddr: 0x17E530, symBinAddr: 0x169D18, symSize: 0x0 }
  - { offset: 0x131CCA, size: 0x8, addend: 0x0, symName: __ZN6sentry13SentryOptions16create_singletonEv, symObjAddr: 0x28E4, symBinAddr: 0x25438, symSize: 0x130 }
  - { offset: 0x131CEC, size: 0x8, addend: 0x0, symName: __ZZN6sentry13SentryOptions16create_singletonEvE20are_settings_defined, symObjAddr: 0x17E538, symBinAddr: 0x1617F4, symSize: 0x0 }
  - { offset: 0x131EA7, size: 0x8, addend: 0x0, symName: __ZN12_GLOBAL__N_115_define_settingERKN5godot6StringERKNS0_7VariantEb, symObjAddr: 0x1990, symBinAddr: 0x244E4, symSize: 0x104 }
  - { offset: 0x131ECD, size: 0x8, addend: 0x0, symName: __ZZN12_GLOBAL__N_115_define_settingERKN5godot6StringERKNS0_7VariantEbE18config_value_order, symObjAddr: 0x17E53C, symBinAddr: 0x1617F8, symSize: 0x0 }
  - { offset: 0x131F1E, size: 0x8, addend: 0x0, symName: __ZN12_GLOBAL__N_115_define_settingERKN5godot12PropertyInfoERKNS0_7VariantEb, symObjAddr: 0x1A94, symBinAddr: 0x245E8, symSize: 0xDC }
  - { offset: 0x132CA5, size: 0x8, addend: 0x0, symName: ___cxx_global_var_init, symObjAddr: 0xF3E4, symBinAddr: 0x2E390, symSize: 0x4C }
  - { offset: 0x132D2A, size: 0x8, addend: 0x0, symName: ___cxx_global_var_init.1, symObjAddr: 0xF430, symBinAddr: 0x2E3DC, symSize: 0x4C }
  - { offset: 0x132DAF, size: 0x8, addend: 0x0, symName: ___cxx_global_var_init.2, symObjAddr: 0xF47C, symBinAddr: 0x2E428, symSize: 0x4C }
  - { offset: 0x132E34, size: 0x8, addend: 0x0, symName: ___cxx_global_var_init.3, symObjAddr: 0xF4C8, symBinAddr: 0x2E474, symSize: 0x4C }
  - { offset: 0x132EB9, size: 0x8, addend: 0x0, symName: ___cxx_global_var_init.4, symObjAddr: 0xF514, symBinAddr: 0x2E4C0, symSize: 0x4C }
  - { offset: 0x132F3E, size: 0x8, addend: 0x0, symName: ___cxx_global_var_init.5, symObjAddr: 0xF560, symBinAddr: 0x2E50C, symSize: 0x4C }
  - { offset: 0x132FC3, size: 0x8, addend: 0x0, symName: ___cxx_global_var_init.6, symObjAddr: 0xF5AC, symBinAddr: 0x2E558, symSize: 0x4C }
  - { offset: 0x133048, size: 0x8, addend: 0x0, symName: ___cxx_global_var_init.7, symObjAddr: 0xF5F8, symBinAddr: 0x2E5A4, symSize: 0x4C }
  - { offset: 0x1330CD, size: 0x8, addend: 0x0, symName: ___cxx_global_var_init.8, symObjAddr: 0xF644, symBinAddr: 0x2E5F0, symSize: 0x4C }
  - { offset: 0x133528, size: 0x8, addend: 0x0, symName: __ZN6sentry18SentryLoggerLimits13_bind_methodsEv, symObjAddr: 0x0, symBinAddr: 0x22B54, symSize: 0xB50 }
  - { offset: 0x134F97, size: 0x8, addend: 0x0, symName: __ZN6sentry18SentryLoggerLimits13_bind_methodsEv.cold.1, symObjAddr: 0xD794, symBinAddr: 0xE1C84, symSize: 0x5C }
  - { offset: 0x134FC5, size: 0x8, addend: 0x0, symName: __ZN6sentry18SentryLoggerLimits13_bind_methodsEv.cold.2, symObjAddr: 0xD7F0, symBinAddr: 0xE1CE0, symSize: 0x58 }
  - { offset: 0x134FF3, size: 0x8, addend: 0x0, symName: __ZN6sentry18SentryLoggerLimits13_bind_methodsEv.cold.3, symObjAddr: 0xD848, symBinAddr: 0xE1D38, symSize: 0x58 }
  - { offset: 0x135021, size: 0x8, addend: 0x0, symName: __ZN6sentry18SentryLoggerLimits13_bind_methodsEv.cold.4, symObjAddr: 0xD8A0, symBinAddr: 0xE1D90, symSize: 0x58 }
  - { offset: 0x135084, size: 0x8, addend: 0x0, symName: __ZN5godot3RefIN6sentry13SentryOptionsEED1Ev, symObjAddr: 0xB50, symBinAddr: 0x236A4, symSize: 0x4C }
  - { offset: 0x135192, size: 0x8, addend: 0x0, symName: __ZN6sentry13SentryOptions24_define_project_settingsERKN5godot3RefIS0_EE, symObjAddr: 0xB9C, symBinAddr: 0x236F0, symSize: 0xDF4 }
  - { offset: 0x13607F, size: 0x8, addend: 0x0, symName: __ZN6sentry13SentryOptions24_define_project_settingsERKN5godot3RefIS0_EE.cold.2, symObjAddr: 0xD918, symBinAddr: 0xE1E08, symSize: 0x20 }
  - { offset: 0x136097, size: 0x8, addend: 0x0, symName: __ZN6sentry13SentryOptions24_define_project_settingsERKN5godot3RefIS0_EE.cold.1, symObjAddr: 0xD8F8, symBinAddr: 0xE1DE8, symSize: 0x20 }
  - { offset: 0x1360D4, size: 0x8, addend: 0x0, symName: __ZNK5godot12PropertyInfocvNS_10DictionaryEEv, symObjAddr: 0x6FA0, symBinAddr: 0x29AF4, symSize: 0x254 }
  - { offset: 0x136266, size: 0x8, addend: 0x0, symName: __ZN6sentry13SentryOptions22_load_project_settingsERKN5godot3RefIS0_EE, symObjAddr: 0x1B70, symBinAddr: 0x246C4, symSize: 0xA74 }
  - { offset: 0x136A6A, size: 0x8, addend: 0x0, symName: __ZN6sentry13SentryOptions11set_releaseERKN5godot6StringE, symObjAddr: 0x25E4, symBinAddr: 0x25138, symSize: 0x284 }
  - { offset: 0x136B78, size: 0x8, addend: 0x0, symName: __ZN6sentry13SentryOptions22_load_project_settingsERKN5godot3RefIS0_EE.cold.3, symObjAddr: 0xD988, symBinAddr: 0xE1E78, symSize: 0x20 }
  - { offset: 0x136B90, size: 0x8, addend: 0x0, symName: __ZN6sentry13SentryOptions22_load_project_settingsERKN5godot3RefIS0_EE.cold.2, symObjAddr: 0xD968, symBinAddr: 0xE1E58, symSize: 0x20 }
  - { offset: 0x136BA8, size: 0x8, addend: 0x0, symName: __ZN6sentry13SentryOptions22_load_project_settingsERKN5godot3RefIS0_EE.cold.1, symObjAddr: 0xD938, symBinAddr: 0xE1E28, symSize: 0x30 }
  - { offset: 0x136BD6, size: 0x8, addend: 0x0, symName: __ZN6sentry13SentryOptions11set_releaseERKN5godot6StringE.cold.1, symObjAddr: 0xD9A8, symBinAddr: 0xE1E98, symSize: 0x20 }
  - { offset: 0x136BEE, size: 0x8, addend: 0x0, symName: __ZN6sentry13SentryOptions18_init_debug_optionENS0_9DebugModeE, symObjAddr: 0x2868, symBinAddr: 0x253BC, symSize: 0x7C }
  - { offset: 0x136C26, size: 0x8, addend: 0x0, symName: __ZN6sentry13SentryOptions18_init_debug_optionENS0_9DebugModeE.cold.1, symObjAddr: 0xD9C8, symBinAddr: 0xE1EB8, symSize: 0x20 }
  - { offset: 0x136D4D, size: 0x8, addend: 0x0, symName: __ZN6sentry13SentryOptionsC2Ev, symObjAddr: 0x6C48, symBinAddr: 0x2979C, symSize: 0x188 }
  - { offset: 0x136F43, size: 0x8, addend: 0x0, symName: __ZN6sentry13SentryOptions16create_singletonEv.cold.1, symObjAddr: 0xD9E8, symBinAddr: 0xE1ED8, symSize: 0x5C }
  - { offset: 0x136FB0, size: 0x8, addend: 0x0, symName: __ZN6sentry13SentryOptionsC1Ev, symObjAddr: 0x2A14, symBinAddr: 0x25568, symSize: 0x4 }
  - { offset: 0x136FD3, size: 0x8, addend: 0x0, symName: __ZN6sentry13SentryOptionsC1Ev, symObjAddr: 0x2A14, symBinAddr: 0x25568, symSize: 0x4 }
  - { offset: 0x136FE6, size: 0x8, addend: 0x0, symName: __ZN6sentry13SentryOptions17destroy_singletonEv, symObjAddr: 0x2A18, symBinAddr: 0x2556C, symSize: 0x48 }
  - { offset: 0x1370D7, size: 0x8, addend: 0x0, symName: __ZN6sentry13SentryOptions17set_logger_limitsERKN5godot3RefINS_18SentryLoggerLimitsEEE, symObjAddr: 0x2A60, symBinAddr: 0x255B4, symSize: 0x80 }
  - { offset: 0x1371C4, size: 0x8, addend: 0x0, symName: __ZN5godot3RefIN6sentry18SentryLoggerLimitsEE11instantiateEv, symObjAddr: 0x2AE0, symBinAddr: 0x25634, symSize: 0x174 }
  - { offset: 0x13754E, size: 0x8, addend: 0x0, symName: __ZN5godot3RefIN6sentry18SentryLoggerLimitsEE11instantiateEv.cold.1, symObjAddr: 0xDA44, symBinAddr: 0xE1F34, symSize: 0x5C }
  - { offset: 0x137686, size: 0x8, addend: 0x0, symName: __ZN6sentry13SentryOptions19add_event_processorERKN5godot3RefINS_20SentryEventProcessorEEE, symObjAddr: 0x2C54, symBinAddr: 0x257A8, symSize: 0x7C }
  - { offset: 0x1377DF, size: 0x8, addend: 0x0, symName: __ZN5godot6VectorINS_3RefIN6sentry20SentryEventProcessorEEEE9push_backES4_, symObjAddr: 0x2CD0, symBinAddr: 0x25824, symSize: 0x114 }
  - { offset: 0x137A04, size: 0x8, addend: 0x0, symName: __ZN6sentry13SentryOptions19add_event_processorERKN5godot3RefINS_20SentryEventProcessorEEE.cold.1, symObjAddr: 0xDAA0, symBinAddr: 0xE1F90, symSize: 0x20 }
  - { offset: 0x137B13, size: 0x8, addend: 0x0, symName: __ZN5godot7CowDataINS_3RefIN6sentry20SentryEventProcessorEEEE6resizeILb0EEENS_5ErrorEx, symObjAddr: 0x8A28, symBinAddr: 0x2A648, symSize: 0x338 }
  - { offset: 0x13827E, size: 0x8, addend: 0x0, symName: __ZN5godot7CowDataINS_3RefIN6sentry20SentryEventProcessorEEEE14_copy_on_writeEv, symObjAddr: 0x8E0C, symBinAddr: 0x2AA2C, symSize: 0x48 }
  - { offset: 0x1383C6, size: 0x8, addend: 0x0, symName: __ZN5godot6VectorINS_3RefIN6sentry20SentryEventProcessorEEEE9push_backES4_.cold.2, symObjAddr: 0xDB14, symBinAddr: 0xE2004, symSize: 0x20 }
  - { offset: 0x1383DE, size: 0x8, addend: 0x0, symName: __ZN5godot6VectorINS_3RefIN6sentry20SentryEventProcessorEEEE9push_backES4_.cold.1, symObjAddr: 0xDAC0, symBinAddr: 0xE1FB0, symSize: 0x54 }
  - { offset: 0x1384EC, size: 0x8, addend: 0x0, symName: __ZN6sentry13SentryOptions22remove_event_processorERKN5godot3RefINS_20SentryEventProcessorEEE, symObjAddr: 0x2DE4, symBinAddr: 0x25938, symSize: 0x60 }
  - { offset: 0x138637, size: 0x8, addend: 0x0, symName: __ZN5godot6VectorINS_3RefIN6sentry20SentryEventProcessorEEEE9remove_atEx, symObjAddr: 0x8E54, symBinAddr: 0x2AA74, symSize: 0x104 }
  - { offset: 0x1387BD, size: 0x8, addend: 0x0, symName: __ZN6sentry13SentryOptions22remove_event_processorERKN5godot3RefINS_20SentryEventProcessorEEE.cold.1, symObjAddr: 0xDB34, symBinAddr: 0xE2024, symSize: 0x20 }
  - { offset: 0x139035, size: 0x8, addend: 0x0, symName: __ZN6sentry13SentryOptions13_bind_methodsEv, symObjAddr: 0x2E44, symBinAddr: 0x25998, symSize: 0x3E04 }
  - { offset: 0x142313, size: 0x8, addend: 0x0, symName: __ZN5godot11GetTypeInfoINS_8BitFieldIN6sentry14GodotErrorMaskEEEvE14get_class_infoEv, symObjAddr: 0xBCF0, symBinAddr: 0x2C898, symSize: 0x124 }
  - { offset: 0x1423BA, size: 0x8, addend: 0x0, symName: __ZN6sentry13SentryOptions13_bind_methodsEv.cold.1, symObjAddr: 0xDB54, symBinAddr: 0xE2044, symSize: 0x5C }
  - { offset: 0x1423E8, size: 0x8, addend: 0x0, symName: __ZN6sentry13SentryOptions13_bind_methodsEv.cold.2, symObjAddr: 0xDBB0, symBinAddr: 0xE20A0, symSize: 0x58 }
  - { offset: 0x142416, size: 0x8, addend: 0x0, symName: __ZN6sentry13SentryOptions13_bind_methodsEv.cold.3, symObjAddr: 0xDC08, symBinAddr: 0xE20F8, symSize: 0x58 }
  - { offset: 0x142444, size: 0x8, addend: 0x0, symName: __ZN6sentry13SentryOptions13_bind_methodsEv.cold.4, symObjAddr: 0xDC60, symBinAddr: 0xE2150, symSize: 0x58 }
  - { offset: 0x142472, size: 0x8, addend: 0x0, symName: __ZN6sentry13SentryOptions13_bind_methodsEv.cold.5, symObjAddr: 0xDCB8, symBinAddr: 0xE21A8, symSize: 0x58 }
  - { offset: 0x1424A0, size: 0x8, addend: 0x0, symName: __ZN6sentry13SentryOptions13_bind_methodsEv.cold.6, symObjAddr: 0xDD10, symBinAddr: 0xE2200, symSize: 0x58 }
  - { offset: 0x1424CE, size: 0x8, addend: 0x0, symName: __ZN6sentry13SentryOptions13_bind_methodsEv.cold.7, symObjAddr: 0xDD68, symBinAddr: 0xE2258, symSize: 0x58 }
  - { offset: 0x1424FC, size: 0x8, addend: 0x0, symName: __ZN6sentry13SentryOptions13_bind_methodsEv.cold.8, symObjAddr: 0xDDC0, symBinAddr: 0xE22B0, symSize: 0x58 }
  - { offset: 0x14252A, size: 0x8, addend: 0x0, symName: __ZN6sentry13SentryOptions13_bind_methodsEv.cold.9, symObjAddr: 0xDE18, symBinAddr: 0xE2308, symSize: 0x58 }
  - { offset: 0x142558, size: 0x8, addend: 0x0, symName: __ZN6sentry13SentryOptions13_bind_methodsEv.cold.10, symObjAddr: 0xDE70, symBinAddr: 0xE2360, symSize: 0x58 }
  - { offset: 0x142586, size: 0x8, addend: 0x0, symName: __ZN6sentry13SentryOptions13_bind_methodsEv.cold.11, symObjAddr: 0xDEC8, symBinAddr: 0xE23B8, symSize: 0x58 }
  - { offset: 0x1425B4, size: 0x8, addend: 0x0, symName: __ZN6sentry13SentryOptions13_bind_methodsEv.cold.12, symObjAddr: 0xDF20, symBinAddr: 0xE2410, symSize: 0x58 }
  - { offset: 0x1425E2, size: 0x8, addend: 0x0, symName: __ZN6sentry13SentryOptions13_bind_methodsEv.cold.13, symObjAddr: 0xDF78, symBinAddr: 0xE2468, symSize: 0x58 }
  - { offset: 0x142610, size: 0x8, addend: 0x0, symName: __ZN6sentry13SentryOptions13_bind_methodsEv.cold.14, symObjAddr: 0xDFD0, symBinAddr: 0xE24C0, symSize: 0x58 }
  - { offset: 0x14263E, size: 0x8, addend: 0x0, symName: __ZN6sentry13SentryOptions13_bind_methodsEv.cold.15, symObjAddr: 0xE028, symBinAddr: 0xE2518, symSize: 0x58 }
  - { offset: 0x14266C, size: 0x8, addend: 0x0, symName: __ZN6sentry13SentryOptions13_bind_methodsEv.cold.16, symObjAddr: 0xE080, symBinAddr: 0xE2570, symSize: 0x58 }
  - { offset: 0x14269A, size: 0x8, addend: 0x0, symName: __ZN6sentry13SentryOptions13_bind_methodsEv.cold.17, symObjAddr: 0xE0D8, symBinAddr: 0xE25C8, symSize: 0x58 }
  - { offset: 0x1426C8, size: 0x8, addend: 0x0, symName: __ZN6sentry13SentryOptions13_bind_methodsEv.cold.18, symObjAddr: 0xE130, symBinAddr: 0xE2620, symSize: 0x58 }
  - { offset: 0x1426F6, size: 0x8, addend: 0x0, symName: __ZN6sentry13SentryOptions13_bind_methodsEv.cold.19, symObjAddr: 0xE188, symBinAddr: 0xE2678, symSize: 0x58 }
  - { offset: 0x142724, size: 0x8, addend: 0x0, symName: __ZN6sentry13SentryOptions13_bind_methodsEv.cold.20, symObjAddr: 0xE1E0, symBinAddr: 0xE26D0, symSize: 0x58 }
  - { offset: 0x142752, size: 0x8, addend: 0x0, symName: __ZN6sentry13SentryOptions13_bind_methodsEv.cold.21, symObjAddr: 0xE238, symBinAddr: 0xE2728, symSize: 0x58 }
  - { offset: 0x142780, size: 0x8, addend: 0x0, symName: __ZN6sentry13SentryOptions13_bind_methodsEv.cold.22, symObjAddr: 0xE290, symBinAddr: 0xE2780, symSize: 0x58 }
  - { offset: 0x1427AE, size: 0x8, addend: 0x0, symName: __ZN6sentry13SentryOptions13_bind_methodsEv.cold.23, symObjAddr: 0xE2E8, symBinAddr: 0xE27D8, symSize: 0x58 }
  - { offset: 0x1427DC, size: 0x8, addend: 0x0, symName: __ZN6sentry13SentryOptions13_bind_methodsEv.cold.24, symObjAddr: 0xE340, symBinAddr: 0xE2830, symSize: 0x58 }
  - { offset: 0x14280A, size: 0x8, addend: 0x0, symName: __ZN6sentry13SentryOptions13_bind_methodsEv.cold.25, symObjAddr: 0xE398, symBinAddr: 0xE2888, symSize: 0x58 }
  - { offset: 0x142838, size: 0x8, addend: 0x0, symName: __ZN6sentry13SentryOptions13_bind_methodsEv.cold.26, symObjAddr: 0xE3F0, symBinAddr: 0xE28E0, symSize: 0x58 }
  - { offset: 0x142866, size: 0x8, addend: 0x0, symName: __ZN6sentry13SentryOptions13_bind_methodsEv.cold.27, symObjAddr: 0xE448, symBinAddr: 0xE2938, symSize: 0x58 }
  - { offset: 0x142983, size: 0x8, addend: 0x0, symName: __ZN6sentry13SentryOptionsC2Ev.cold.1, symObjAddr: 0xE4A0, symBinAddr: 0xE2990, symSize: 0x30 }
  - { offset: 0x142BC0, size: 0x8, addend: 0x0, symName: __ZN6sentry13SentryOptionsD2Ev, symObjAddr: 0x6DD0, symBinAddr: 0x29924, symSize: 0x1B0 }
  - { offset: 0x143006, size: 0x8, addend: 0x0, symName: __ZN6sentry13SentryOptionsD2Ev.cold.1, symObjAddr: 0xE4D0, symBinAddr: 0xE29C0, symSize: 0x1C }
  - { offset: 0x143021, size: 0x8, addend: 0x0, symName: __ZN6sentry13SentryOptionsD2Ev.cold.1, symObjAddr: 0xE4D0, symBinAddr: 0xE29C0, symSize: 0x1C }
  - { offset: 0x143035, size: 0x8, addend: 0x0, symName: __ZN6sentry13SentryOptionsD2Ev.cold.1, symObjAddr: 0xE4D0, symBinAddr: 0xE29C0, symSize: 0x1C }
  - { offset: 0x143049, size: 0x8, addend: 0x0, symName: __ZN6sentry13SentryOptionsD2Ev.cold.1, symObjAddr: 0xE4D0, symBinAddr: 0xE29C0, symSize: 0x1C }
  - { offset: 0x14305D, size: 0x8, addend: 0x0, symName: __ZN6sentry13SentryOptionsD2Ev.cold.1, symObjAddr: 0xE4D0, symBinAddr: 0xE29C0, symSize: 0x1C }
  - { offset: 0x143072, size: 0x8, addend: 0x0, symName: __ZN6sentry13SentryOptionsD2Ev.cold.1, symObjAddr: 0xE4D0, symBinAddr: 0xE29C0, symSize: 0x1C }
  - { offset: 0x143089, size: 0x8, addend: 0x0, symName: __ZN6sentry13SentryOptionsD1Ev, symObjAddr: 0x6F80, symBinAddr: 0x29AD4, symSize: 0x4 }
  - { offset: 0x1430AC, size: 0x8, addend: 0x0, symName: __ZN6sentry13SentryOptionsD1Ev, symObjAddr: 0x6F80, symBinAddr: 0x29AD4, symSize: 0x4 }
  - { offset: 0x1430DB, size: 0x8, addend: 0x0, symName: __ZN6sentry13SentryOptionsD0Ev, symObjAddr: 0x6F84, symBinAddr: 0x29AD8, symSize: 0x14 }
  - { offset: 0x143138, size: 0x8, addend: 0x0, symName: __ZNK6sentry13SentryOptions19_is_extension_classEv, symObjAddr: 0x6F98, symBinAddr: 0x29AEC, symSize: 0x8 }
  - { offset: 0x143184, size: 0x8, addend: 0x0, symName: __ZN5godot10RefCountedD1Ev.cold.1, symObjAddr: 0xE4EC, symBinAddr: 0xE29DC, symSize: 0x1C }
  - { offset: 0x14319F, size: 0x8, addend: 0x0, symName: __ZN5godot10RefCountedD1Ev.cold.1, symObjAddr: 0xE4EC, symBinAddr: 0xE29DC, symSize: 0x1C }
  - { offset: 0x1431B3, size: 0x8, addend: 0x0, symName: __ZN5godot10RefCountedD1Ev.cold.1, symObjAddr: 0xE4EC, symBinAddr: 0xE29DC, symSize: 0x1C }
  - { offset: 0x1431C7, size: 0x8, addend: 0x0, symName: __ZN5godot10RefCountedD1Ev.cold.1, symObjAddr: 0xE4EC, symBinAddr: 0xE29DC, symSize: 0x1C }
  - { offset: 0x1431DB, size: 0x8, addend: 0x0, symName: __ZN5godot10RefCountedD1Ev.cold.1, symObjAddr: 0xE4EC, symBinAddr: 0xE29DC, symSize: 0x1C }
  - { offset: 0x1431F0, size: 0x8, addend: 0x0, symName: __ZN5godot10RefCountedD1Ev.cold.1, symObjAddr: 0xE4EC, symBinAddr: 0xE29DC, symSize: 0x1C }
  - { offset: 0x143223, size: 0x8, addend: 0x0, symName: __ZN5godot10RefCountedD0Ev.cold.1, symObjAddr: 0xE508, symBinAddr: 0xE29F8, symSize: 0x1C }
  - { offset: 0x14323E, size: 0x8, addend: 0x0, symName: __ZN5godot10RefCountedD0Ev.cold.1, symObjAddr: 0xE508, symBinAddr: 0xE29F8, symSize: 0x1C }
  - { offset: 0x143252, size: 0x8, addend: 0x0, symName: __ZN5godot10RefCountedD0Ev.cold.1, symObjAddr: 0xE508, symBinAddr: 0xE29F8, symSize: 0x1C }
  - { offset: 0x143266, size: 0x8, addend: 0x0, symName: __ZN5godot10RefCountedD0Ev.cold.1, symObjAddr: 0xE508, symBinAddr: 0xE29F8, symSize: 0x1C }
  - { offset: 0x14327A, size: 0x8, addend: 0x0, symName: __ZN5godot10RefCountedD0Ev.cold.1, symObjAddr: 0xE508, symBinAddr: 0xE29F8, symSize: 0x1C }
  - { offset: 0x14328E, size: 0x8, addend: 0x0, symName: __ZN5godot10RefCountedD0Ev.cold.1, symObjAddr: 0xE508, symBinAddr: 0xE29F8, symSize: 0x1C }
  - { offset: 0x1432A3, size: 0x8, addend: 0x0, symName: __ZN5godot10RefCountedD0Ev.cold.1, symObjAddr: 0xE508, symBinAddr: 0xE29F8, symSize: 0x1C }
  - { offset: 0x1432BB, size: 0x8, addend: 0x0, symName: __ZN5godot6ObjectD1Ev.cold.1, symObjAddr: 0xE524, symBinAddr: 0xE2A14, symSize: 0x1C }
  - { offset: 0x1432D6, size: 0x8, addend: 0x0, symName: __ZN5godot6ObjectD1Ev.cold.1, symObjAddr: 0xE524, symBinAddr: 0xE2A14, symSize: 0x1C }
  - { offset: 0x1432EA, size: 0x8, addend: 0x0, symName: __ZN5godot6ObjectD1Ev.cold.1, symObjAddr: 0xE524, symBinAddr: 0xE2A14, symSize: 0x1C }
  - { offset: 0x1432FE, size: 0x8, addend: 0x0, symName: __ZN5godot6ObjectD1Ev.cold.1, symObjAddr: 0xE524, symBinAddr: 0xE2A14, symSize: 0x1C }
  - { offset: 0x143313, size: 0x8, addend: 0x0, symName: __ZN5godot6ObjectD1Ev.cold.1, symObjAddr: 0xE524, symBinAddr: 0xE2A14, symSize: 0x1C }
  - { offset: 0x143343, size: 0x8, addend: 0x0, symName: __ZN5godot6ObjectD0Ev.cold.1, symObjAddr: 0xE540, symBinAddr: 0xE2A30, symSize: 0x1C }
  - { offset: 0x14335E, size: 0x8, addend: 0x0, symName: __ZN5godot6ObjectD0Ev.cold.1, symObjAddr: 0xE540, symBinAddr: 0xE2A30, symSize: 0x1C }
  - { offset: 0x143372, size: 0x8, addend: 0x0, symName: __ZN5godot6ObjectD0Ev.cold.1, symObjAddr: 0xE540, symBinAddr: 0xE2A30, symSize: 0x1C }
  - { offset: 0x143386, size: 0x8, addend: 0x0, symName: __ZN5godot6ObjectD0Ev.cold.1, symObjAddr: 0xE540, symBinAddr: 0xE2A30, symSize: 0x1C }
  - { offset: 0x14339A, size: 0x8, addend: 0x0, symName: __ZN5godot6ObjectD0Ev.cold.1, symObjAddr: 0xE540, symBinAddr: 0xE2A30, symSize: 0x1C }
  - { offset: 0x1433AF, size: 0x8, addend: 0x0, symName: __ZN5godot6ObjectD0Ev.cold.1, symObjAddr: 0xE540, symBinAddr: 0xE2A30, symSize: 0x1C }
  - { offset: 0x1433C6, size: 0x8, addend: 0x0, symName: __ZN5godot7WrappedD1Ev.cold.1, symObjAddr: 0xE55C, symBinAddr: 0xE2A4C, symSize: 0x1C }
  - { offset: 0x1433E1, size: 0x8, addend: 0x0, symName: __ZN5godot7WrappedD1Ev.cold.1, symObjAddr: 0xE55C, symBinAddr: 0xE2A4C, symSize: 0x1C }
  - { offset: 0x1433F5, size: 0x8, addend: 0x0, symName: __ZN5godot7WrappedD1Ev.cold.1, symObjAddr: 0xE55C, symBinAddr: 0xE2A4C, symSize: 0x1C }
  - { offset: 0x14340A, size: 0x8, addend: 0x0, symName: __ZN5godot7WrappedD1Ev.cold.1, symObjAddr: 0xE55C, symBinAddr: 0xE2A4C, symSize: 0x1C }
  - { offset: 0x143439, size: 0x8, addend: 0x0, symName: __ZN5godot7WrappedD0Ev.cold.1, symObjAddr: 0xE578, symBinAddr: 0xE2A68, symSize: 0x1C }
  - { offset: 0x143454, size: 0x8, addend: 0x0, symName: __ZN5godot7WrappedD0Ev.cold.1, symObjAddr: 0xE578, symBinAddr: 0xE2A68, symSize: 0x1C }
  - { offset: 0x143468, size: 0x8, addend: 0x0, symName: __ZN5godot7WrappedD0Ev.cold.1, symObjAddr: 0xE578, symBinAddr: 0xE2A68, symSize: 0x1C }
  - { offset: 0x14347C, size: 0x8, addend: 0x0, symName: __ZN5godot7WrappedD0Ev.cold.1, symObjAddr: 0xE578, symBinAddr: 0xE2A68, symSize: 0x1C }
  - { offset: 0x143491, size: 0x8, addend: 0x0, symName: __ZN5godot7WrappedD0Ev.cold.1, symObjAddr: 0xE578, symBinAddr: 0xE2A68, symSize: 0x1C }
  - { offset: 0x1434DF, size: 0x8, addend: 0x0, symName: __ZN5godot4ListINS_12PropertyInfoENS_16DefaultAllocatorEE5_Data5eraseEPNS3_7ElementE.cold.2, symObjAddr: 0xE5B4, symBinAddr: 0xE2AA4, symSize: 0x20 }
  - { offset: 0x1434F7, size: 0x8, addend: 0x0, symName: __ZN5godot4ListINS_12PropertyInfoENS_16DefaultAllocatorEE5_Data5eraseEPNS3_7ElementE.cold.1, symObjAddr: 0xE594, symBinAddr: 0xE2A84, symSize: 0x20 }
  - { offset: 0x143516, size: 0x8, addend: 0x0, symName: __ZN5godot8internal23EngineClassRegistrationINS_6ObjectEE8callbackEv.cold.1, symObjAddr: 0xE5D4, symBinAddr: 0xE2AC4, symSize: 0x5C }
  - { offset: 0x14354B, size: 0x8, addend: 0x0, symName: __ZN5godot8internal23EngineClassRegistrationINS_16ClassDBSingletonEE8callbackEv.cold.1, symObjAddr: 0xE630, symBinAddr: 0xE2B20, symSize: 0x5C }
  - { offset: 0x143580, size: 0x8, addend: 0x0, symName: __ZN5godot8internal23EngineClassRegistrationINS_10RefCountedEE8callbackEv.cold.1, symObjAddr: 0xE68C, symBinAddr: 0xE2B7C, symSize: 0x5C }
  - { offset: 0x1435B5, size: 0x8, addend: 0x0, symName: __ZN5godot8internal23EngineClassRegistrationINS_6LoggerEE8callbackEv.cold.1, symObjAddr: 0xE6E8, symBinAddr: 0xE2BD8, symSize: 0x5C }
  - { offset: 0x1435EA, size: 0x8, addend: 0x0, symName: __ZN5godot8internal23EngineClassRegistrationINS_10ConfigFileEE8callbackEv.cold.1, symObjAddr: 0xE744, symBinAddr: 0xE2C34, symSize: 0x5C }
  - { offset: 0x143634, size: 0x8, addend: 0x0, symName: __ZN5godot10ConfigFileD1Ev.cold.1, symObjAddr: 0xE7A0, symBinAddr: 0xE2C90, symSize: 0x1C }
  - { offset: 0x14364F, size: 0x8, addend: 0x0, symName: __ZN5godot10ConfigFileD1Ev.cold.1, symObjAddr: 0xE7A0, symBinAddr: 0xE2C90, symSize: 0x1C }
  - { offset: 0x143663, size: 0x8, addend: 0x0, symName: __ZN5godot10ConfigFileD1Ev.cold.1, symObjAddr: 0xE7A0, symBinAddr: 0xE2C90, symSize: 0x1C }
  - { offset: 0x143677, size: 0x8, addend: 0x0, symName: __ZN5godot10ConfigFileD1Ev.cold.1, symObjAddr: 0xE7A0, symBinAddr: 0xE2C90, symSize: 0x1C }
  - { offset: 0x14368B, size: 0x8, addend: 0x0, symName: __ZN5godot10ConfigFileD1Ev.cold.1, symObjAddr: 0xE7A0, symBinAddr: 0xE2C90, symSize: 0x1C }
  - { offset: 0x14369F, size: 0x8, addend: 0x0, symName: __ZN5godot10ConfigFileD1Ev.cold.1, symObjAddr: 0xE7A0, symBinAddr: 0xE2C90, symSize: 0x1C }
  - { offset: 0x1436B4, size: 0x8, addend: 0x0, symName: __ZN5godot10ConfigFileD1Ev.cold.1, symObjAddr: 0xE7A0, symBinAddr: 0xE2C90, symSize: 0x1C }
  - { offset: 0x1436E8, size: 0x8, addend: 0x0, symName: __ZN5godot10ConfigFileD0Ev.cold.1, symObjAddr: 0xE7BC, symBinAddr: 0xE2CAC, symSize: 0x1C }
  - { offset: 0x143703, size: 0x8, addend: 0x0, symName: __ZN5godot10ConfigFileD0Ev.cold.1, symObjAddr: 0xE7BC, symBinAddr: 0xE2CAC, symSize: 0x1C }
  - { offset: 0x143717, size: 0x8, addend: 0x0, symName: __ZN5godot10ConfigFileD0Ev.cold.1, symObjAddr: 0xE7BC, symBinAddr: 0xE2CAC, symSize: 0x1C }
  - { offset: 0x14372B, size: 0x8, addend: 0x0, symName: __ZN5godot10ConfigFileD0Ev.cold.1, symObjAddr: 0xE7BC, symBinAddr: 0xE2CAC, symSize: 0x1C }
  - { offset: 0x14373F, size: 0x8, addend: 0x0, symName: __ZN5godot10ConfigFileD0Ev.cold.1, symObjAddr: 0xE7BC, symBinAddr: 0xE2CAC, symSize: 0x1C }
  - { offset: 0x143753, size: 0x8, addend: 0x0, symName: __ZN5godot10ConfigFileD0Ev.cold.1, symObjAddr: 0xE7BC, symBinAddr: 0xE2CAC, symSize: 0x1C }
  - { offset: 0x143767, size: 0x8, addend: 0x0, symName: __ZN5godot10ConfigFileD0Ev.cold.1, symObjAddr: 0xE7BC, symBinAddr: 0xE2CAC, symSize: 0x1C }
  - { offset: 0x14377C, size: 0x8, addend: 0x0, symName: __ZN5godot10ConfigFileD0Ev.cold.1, symObjAddr: 0xE7BC, symBinAddr: 0xE2CAC, symSize: 0x1C }
  - { offset: 0x14379C, size: 0x8, addend: 0x0, symName: __ZN5godot8internal23EngineClassRegistrationINS_15ScriptBacktraceEE8callbackEv.cold.1, symObjAddr: 0xE7D8, symBinAddr: 0xE2CC8, symSize: 0x5C }
  - { offset: 0x1437E6, size: 0x8, addend: 0x0, symName: __ZN5godot15ScriptBacktraceD1Ev.cold.1, symObjAddr: 0xE834, symBinAddr: 0xE2D24, symSize: 0x1C }
  - { offset: 0x143801, size: 0x8, addend: 0x0, symName: __ZN5godot15ScriptBacktraceD1Ev.cold.1, symObjAddr: 0xE834, symBinAddr: 0xE2D24, symSize: 0x1C }
  - { offset: 0x143815, size: 0x8, addend: 0x0, symName: __ZN5godot15ScriptBacktraceD1Ev.cold.1, symObjAddr: 0xE834, symBinAddr: 0xE2D24, symSize: 0x1C }
  - { offset: 0x143829, size: 0x8, addend: 0x0, symName: __ZN5godot15ScriptBacktraceD1Ev.cold.1, symObjAddr: 0xE834, symBinAddr: 0xE2D24, symSize: 0x1C }
  - { offset: 0x14383D, size: 0x8, addend: 0x0, symName: __ZN5godot15ScriptBacktraceD1Ev.cold.1, symObjAddr: 0xE834, symBinAddr: 0xE2D24, symSize: 0x1C }
  - { offset: 0x143851, size: 0x8, addend: 0x0, symName: __ZN5godot15ScriptBacktraceD1Ev.cold.1, symObjAddr: 0xE834, symBinAddr: 0xE2D24, symSize: 0x1C }
  - { offset: 0x143866, size: 0x8, addend: 0x0, symName: __ZN5godot15ScriptBacktraceD1Ev.cold.1, symObjAddr: 0xE834, symBinAddr: 0xE2D24, symSize: 0x1C }
  - { offset: 0x14389A, size: 0x8, addend: 0x0, symName: __ZN5godot15ScriptBacktraceD0Ev.cold.1, symObjAddr: 0xE850, symBinAddr: 0xE2D40, symSize: 0x1C }
  - { offset: 0x1438B5, size: 0x8, addend: 0x0, symName: __ZN5godot15ScriptBacktraceD0Ev.cold.1, symObjAddr: 0xE850, symBinAddr: 0xE2D40, symSize: 0x1C }
  - { offset: 0x1438C9, size: 0x8, addend: 0x0, symName: __ZN5godot15ScriptBacktraceD0Ev.cold.1, symObjAddr: 0xE850, symBinAddr: 0xE2D40, symSize: 0x1C }
  - { offset: 0x1438DD, size: 0x8, addend: 0x0, symName: __ZN5godot15ScriptBacktraceD0Ev.cold.1, symObjAddr: 0xE850, symBinAddr: 0xE2D40, symSize: 0x1C }
  - { offset: 0x1438F1, size: 0x8, addend: 0x0, symName: __ZN5godot15ScriptBacktraceD0Ev.cold.1, symObjAddr: 0xE850, symBinAddr: 0xE2D40, symSize: 0x1C }
  - { offset: 0x143905, size: 0x8, addend: 0x0, symName: __ZN5godot15ScriptBacktraceD0Ev.cold.1, symObjAddr: 0xE850, symBinAddr: 0xE2D40, symSize: 0x1C }
  - { offset: 0x143919, size: 0x8, addend: 0x0, symName: __ZN5godot15ScriptBacktraceD0Ev.cold.1, symObjAddr: 0xE850, symBinAddr: 0xE2D40, symSize: 0x1C }
  - { offset: 0x14392E, size: 0x8, addend: 0x0, symName: __ZN5godot15ScriptBacktraceD0Ev.cold.1, symObjAddr: 0xE850, symBinAddr: 0xE2D40, symSize: 0x1C }
  - { offset: 0x14394E, size: 0x8, addend: 0x0, symName: __ZN5godot8internal23EngineClassRegistrationINS_5MutexEE8callbackEv.cold.1, symObjAddr: 0xE86C, symBinAddr: 0xE2D5C, symSize: 0x5C }
  - { offset: 0x143998, size: 0x8, addend: 0x0, symName: __ZN5godot5MutexD1Ev.cold.1, symObjAddr: 0xE8C8, symBinAddr: 0xE2DB8, symSize: 0x1C }
  - { offset: 0x1439B3, size: 0x8, addend: 0x0, symName: __ZN5godot5MutexD1Ev.cold.1, symObjAddr: 0xE8C8, symBinAddr: 0xE2DB8, symSize: 0x1C }
  - { offset: 0x1439C7, size: 0x8, addend: 0x0, symName: __ZN5godot5MutexD1Ev.cold.1, symObjAddr: 0xE8C8, symBinAddr: 0xE2DB8, symSize: 0x1C }
  - { offset: 0x1439DB, size: 0x8, addend: 0x0, symName: __ZN5godot5MutexD1Ev.cold.1, symObjAddr: 0xE8C8, symBinAddr: 0xE2DB8, symSize: 0x1C }
  - { offset: 0x1439EF, size: 0x8, addend: 0x0, symName: __ZN5godot5MutexD1Ev.cold.1, symObjAddr: 0xE8C8, symBinAddr: 0xE2DB8, symSize: 0x1C }
  - { offset: 0x143A03, size: 0x8, addend: 0x0, symName: __ZN5godot5MutexD1Ev.cold.1, symObjAddr: 0xE8C8, symBinAddr: 0xE2DB8, symSize: 0x1C }
  - { offset: 0x143A18, size: 0x8, addend: 0x0, symName: __ZN5godot5MutexD1Ev.cold.1, symObjAddr: 0xE8C8, symBinAddr: 0xE2DB8, symSize: 0x1C }
  - { offset: 0x143A4C, size: 0x8, addend: 0x0, symName: __ZN5godot5MutexD0Ev.cold.1, symObjAddr: 0xE8E4, symBinAddr: 0xE2DD4, symSize: 0x1C }
  - { offset: 0x143A67, size: 0x8, addend: 0x0, symName: __ZN5godot5MutexD0Ev.cold.1, symObjAddr: 0xE8E4, symBinAddr: 0xE2DD4, symSize: 0x1C }
  - { offset: 0x143A7B, size: 0x8, addend: 0x0, symName: __ZN5godot5MutexD0Ev.cold.1, symObjAddr: 0xE8E4, symBinAddr: 0xE2DD4, symSize: 0x1C }
  - { offset: 0x143A8F, size: 0x8, addend: 0x0, symName: __ZN5godot5MutexD0Ev.cold.1, symObjAddr: 0xE8E4, symBinAddr: 0xE2DD4, symSize: 0x1C }
  - { offset: 0x143AA3, size: 0x8, addend: 0x0, symName: __ZN5godot5MutexD0Ev.cold.1, symObjAddr: 0xE8E4, symBinAddr: 0xE2DD4, symSize: 0x1C }
  - { offset: 0x143AB7, size: 0x8, addend: 0x0, symName: __ZN5godot5MutexD0Ev.cold.1, symObjAddr: 0xE8E4, symBinAddr: 0xE2DD4, symSize: 0x1C }
  - { offset: 0x143ACB, size: 0x8, addend: 0x0, symName: __ZN5godot5MutexD0Ev.cold.1, symObjAddr: 0xE8E4, symBinAddr: 0xE2DD4, symSize: 0x1C }
  - { offset: 0x143AE0, size: 0x8, addend: 0x0, symName: __ZN5godot5MutexD0Ev.cold.1, symObjAddr: 0xE8E4, symBinAddr: 0xE2DD4, symSize: 0x1C }
  - { offset: 0x143B00, size: 0x8, addend: 0x0, symName: __ZN5godot8internal23EngineClassRegistrationINS_2OSEE8callbackEv.cold.1, symObjAddr: 0xE900, symBinAddr: 0xE2DF0, symSize: 0x5C }
  - { offset: 0x143B35, size: 0x8, addend: 0x0, symName: __ZN5godot8internal23EngineClassRegistrationINS_15ProjectSettingsEE8callbackEv.cold.1, symObjAddr: 0xE95C, symBinAddr: 0xE2E4C, symSize: 0x5C }
  - { offset: 0x143B63, size: 0x8, addend: 0x0, symName: __ZN6sentry18SentryLoggerLimits20set_events_per_frameEi, symObjAddr: 0x7FF8, symBinAddr: 0x29D48, symSize: 0x8 }
  - { offset: 0x143B96, size: 0x8, addend: 0x0, symName: __ZN6sentry18SentryLoggerLimits20get_events_per_frameEv, symObjAddr: 0x8000, symBinAddr: 0x29D50, symSize: 0x8 }
  - { offset: 0x143CB6, size: 0x8, addend: 0x0, symName: __ZN5godot18create_method_bindIN6sentry18SentryLoggerLimitsEJiEEEPNS_10MethodBindEMT_FvDpT0_E.cold.1, symObjAddr: 0xE9B8, symBinAddr: 0xE2EA8, symSize: 0x5C }
  - { offset: 0x143CE5, size: 0x8, addend: 0x0, symName: __ZNK5godot11MethodBindTIJiEE17gen_argument_typeEi, symObjAddr: 0x811C, symBinAddr: 0x29E6C, symSize: 0x10 }
  - { offset: 0x143D7D, size: 0x8, addend: 0x0, symName: __ZNK5godot11MethodBindTIJiEE22gen_argument_type_infoEi, symObjAddr: 0x812C, symBinAddr: 0x29E7C, symSize: 0x138 }
  - { offset: 0x143EC0, size: 0x8, addend: 0x0, symName: __ZNK5godot11MethodBindTIJiEE21get_argument_metadataEi, symObjAddr: 0x8264, symBinAddr: 0x29FB4, symSize: 0x10 }
  - { offset: 0x143EF9, size: 0x8, addend: 0x0, symName: __ZNK5godot11MethodBindTIJiEE21get_argument_metadataEi, symObjAddr: 0x8264, symBinAddr: 0x29FB4, symSize: 0x10 }
  - { offset: 0x143F32, size: 0x8, addend: 0x0, symName: __ZNK5godot11MethodBindTIJiEE21get_argument_metadataEi, symObjAddr: 0x8264, symBinAddr: 0x29FB4, symSize: 0x10 }
  - { offset: 0x143F69, size: 0x8, addend: 0x0, symName: __ZNK5godot11MethodBindTIJiEE4callEPvPKPKvxR20GDExtensionCallError, symObjAddr: 0x8274, symBinAddr: 0x29FC4, symSize: 0x40 }
  - { offset: 0x144029, size: 0x8, addend: 0x0, symName: __ZNK5godot11MethodBindTIJiEE7ptrcallEPvPKPKvS2_, symObjAddr: 0x82B4, symBinAddr: 0x2A004, symSize: 0x20 }
  - { offset: 0x144114, size: 0x8, addend: 0x0, symName: __ZN5godot11MethodBindTIJiEED1Ev, symObjAddr: 0x82D4, symBinAddr: 0x2A024, symSize: 0x4 }
  - { offset: 0x144137, size: 0x8, addend: 0x0, symName: __ZN5godot11MethodBindTIJiEED1Ev, symObjAddr: 0x82D4, symBinAddr: 0x2A024, symSize: 0x4 }
  - { offset: 0x14416F, size: 0x8, addend: 0x0, symName: __ZN5godot11MethodBindTIJiEED0Ev, symObjAddr: 0x82D8, symBinAddr: 0x2A028, symSize: 0x14 }
  - { offset: 0x144291, size: 0x8, addend: 0x0, symName: __ZN5godot18create_method_bindIN6sentry18SentryLoggerLimitsEiJEEEPNS_10MethodBindEMT_FT0_DpT1_E.cold.1, symObjAddr: 0xEA14, symBinAddr: 0xE2F04, symSize: 0x5C }
  - { offset: 0x1442C0, size: 0x8, addend: 0x0, symName: __ZNK5godot12MethodBindTRIiJEE17gen_argument_typeEi, symObjAddr: 0x86A8, symBinAddr: 0x2A3F8, symSize: 0x8 }
  - { offset: 0x1442F6, size: 0x8, addend: 0x0, symName: __ZNK5godot12MethodBindTRIiJEE22gen_argument_type_infoEi, symObjAddr: 0x86B0, symBinAddr: 0x2A400, symSize: 0xF8 }
  - { offset: 0x1443B9, size: 0x8, addend: 0x0, symName: __ZNK5godot12MethodBindTRIiJEE21get_argument_metadataEi, symObjAddr: 0x87A8, symBinAddr: 0x2A4F8, symSize: 0xC }
  - { offset: 0x144428, size: 0x8, addend: 0x0, symName: __ZNK5godot12MethodBindTRIiJEE4callEPvPKPKvxR20GDExtensionCallError, symObjAddr: 0x87B4, symBinAddr: 0x2A504, symSize: 0xC0 }
  - { offset: 0x144568, size: 0x8, addend: 0x0, symName: __ZNK5godot12MethodBindTRIiJEE7ptrcallEPvPKPKvS2_, symObjAddr: 0x8874, symBinAddr: 0x2A5C4, symSize: 0x3C }
  - { offset: 0x144655, size: 0x8, addend: 0x0, symName: __ZN5godot12MethodBindTRIiJEED1Ev, symObjAddr: 0x88B0, symBinAddr: 0x2A600, symSize: 0x4 }
  - { offset: 0x144678, size: 0x8, addend: 0x0, symName: __ZN5godot12MethodBindTRIiJEED1Ev, symObjAddr: 0x88B0, symBinAddr: 0x2A600, symSize: 0x4 }
  - { offset: 0x1446B0, size: 0x8, addend: 0x0, symName: __ZN5godot12MethodBindTRIiJEED0Ev, symObjAddr: 0x88B4, symBinAddr: 0x2A604, symSize: 0x14 }
  - { offset: 0x144718, size: 0x8, addend: 0x0, symName: __ZN6sentry18SentryLoggerLimits28set_repeated_error_window_msEi, symObjAddr: 0x88C8, symBinAddr: 0x2A618, symSize: 0x8 }
  - { offset: 0x14474B, size: 0x8, addend: 0x0, symName: __ZN6sentry18SentryLoggerLimits28get_repeated_error_window_msEv, symObjAddr: 0x88D0, symBinAddr: 0x2A620, symSize: 0x8 }
  - { offset: 0x144772, size: 0x8, addend: 0x0, symName: __ZN6sentry18SentryLoggerLimits19set_throttle_eventsEi, symObjAddr: 0x88D8, symBinAddr: 0x2A628, symSize: 0x8 }
  - { offset: 0x1447A5, size: 0x8, addend: 0x0, symName: __ZN6sentry18SentryLoggerLimits19get_throttle_eventsEv, symObjAddr: 0x88E0, symBinAddr: 0x2A630, symSize: 0x8 }
  - { offset: 0x1447CC, size: 0x8, addend: 0x0, symName: __ZN6sentry18SentryLoggerLimits22set_throttle_window_msEi, symObjAddr: 0x88E8, symBinAddr: 0x2A638, symSize: 0x8 }
  - { offset: 0x1447FF, size: 0x8, addend: 0x0, symName: __ZN6sentry18SentryLoggerLimits22get_throttle_window_msEv, symObjAddr: 0x88F0, symBinAddr: 0x2A640, symSize: 0x8 }
  - { offset: 0x144842, size: 0x8, addend: 0x0, symName: __ZN6sentry18SentryLoggerLimitsD1Ev.cold.1, symObjAddr: 0xEA70, symBinAddr: 0xE2F60, symSize: 0x1C }
  - { offset: 0x14485D, size: 0x8, addend: 0x0, symName: __ZN6sentry18SentryLoggerLimitsD1Ev.cold.1, symObjAddr: 0xEA70, symBinAddr: 0xE2F60, symSize: 0x1C }
  - { offset: 0x144871, size: 0x8, addend: 0x0, symName: __ZN6sentry18SentryLoggerLimitsD1Ev.cold.1, symObjAddr: 0xEA70, symBinAddr: 0xE2F60, symSize: 0x1C }
  - { offset: 0x144885, size: 0x8, addend: 0x0, symName: __ZN6sentry18SentryLoggerLimitsD1Ev.cold.1, symObjAddr: 0xEA70, symBinAddr: 0xE2F60, symSize: 0x1C }
  - { offset: 0x144899, size: 0x8, addend: 0x0, symName: __ZN6sentry18SentryLoggerLimitsD1Ev.cold.1, symObjAddr: 0xEA70, symBinAddr: 0xE2F60, symSize: 0x1C }
  - { offset: 0x1448AD, size: 0x8, addend: 0x0, symName: __ZN6sentry18SentryLoggerLimitsD1Ev.cold.1, symObjAddr: 0xEA70, symBinAddr: 0xE2F60, symSize: 0x1C }
  - { offset: 0x1448C2, size: 0x8, addend: 0x0, symName: __ZN6sentry18SentryLoggerLimitsD1Ev.cold.1, symObjAddr: 0xEA70, symBinAddr: 0xE2F60, symSize: 0x1C }
  - { offset: 0x1448F6, size: 0x8, addend: 0x0, symName: __ZN6sentry18SentryLoggerLimitsD0Ev.cold.1, symObjAddr: 0xEA8C, symBinAddr: 0xE2F7C, symSize: 0x1C }
  - { offset: 0x144911, size: 0x8, addend: 0x0, symName: __ZN6sentry18SentryLoggerLimitsD0Ev.cold.1, symObjAddr: 0xEA8C, symBinAddr: 0xE2F7C, symSize: 0x1C }
  - { offset: 0x144925, size: 0x8, addend: 0x0, symName: __ZN6sentry18SentryLoggerLimitsD0Ev.cold.1, symObjAddr: 0xEA8C, symBinAddr: 0xE2F7C, symSize: 0x1C }
  - { offset: 0x144939, size: 0x8, addend: 0x0, symName: __ZN6sentry18SentryLoggerLimitsD0Ev.cold.1, symObjAddr: 0xEA8C, symBinAddr: 0xE2F7C, symSize: 0x1C }
  - { offset: 0x14494D, size: 0x8, addend: 0x0, symName: __ZN6sentry18SentryLoggerLimitsD0Ev.cold.1, symObjAddr: 0xEA8C, symBinAddr: 0xE2F7C, symSize: 0x1C }
  - { offset: 0x144961, size: 0x8, addend: 0x0, symName: __ZN6sentry18SentryLoggerLimitsD0Ev.cold.1, symObjAddr: 0xEA8C, symBinAddr: 0xE2F7C, symSize: 0x1C }
  - { offset: 0x144975, size: 0x8, addend: 0x0, symName: __ZN6sentry18SentryLoggerLimitsD0Ev.cold.1, symObjAddr: 0xEA8C, symBinAddr: 0xE2F7C, symSize: 0x1C }
  - { offset: 0x14498A, size: 0x8, addend: 0x0, symName: __ZN6sentry18SentryLoggerLimitsD0Ev.cold.1, symObjAddr: 0xEA8C, symBinAddr: 0xE2F7C, symSize: 0x1C }
  - { offset: 0x144B30, size: 0x8, addend: 0x0, symName: __ZN5godot7CowDataINS_3RefIN6sentry20SentryEventProcessorEEEE6resizeILb0EEENS_5ErrorEx.cold.4, symObjAddr: 0xEB08, symBinAddr: 0xE2FF8, symSize: 0x20 }
  - { offset: 0x144B48, size: 0x8, addend: 0x0, symName: __ZN5godot7CowDataINS_3RefIN6sentry20SentryEventProcessorEEEE6resizeILb0EEENS_5ErrorEx.cold.5, symObjAddr: 0xEB28, symBinAddr: 0xE3018, symSize: 0x20 }
  - { offset: 0x144B60, size: 0x8, addend: 0x0, symName: __ZN5godot7CowDataINS_3RefIN6sentry20SentryEventProcessorEEEE6resizeILb0EEENS_5ErrorEx.cold.2, symObjAddr: 0xEAC8, symBinAddr: 0xE2FB8, symSize: 0x20 }
  - { offset: 0x144B7C, size: 0x8, addend: 0x0, symName: __ZN5godot7CowDataINS_3RefIN6sentry20SentryEventProcessorEEEE6resizeILb0EEENS_5ErrorEx.cold.2, symObjAddr: 0xEAC8, symBinAddr: 0xE2FB8, symSize: 0x20 }
  - { offset: 0x144B8F, size: 0x8, addend: 0x0, symName: __ZN5godot7CowDataINS_3RefIN6sentry20SentryEventProcessorEEEE6resizeILb0EEENS_5ErrorEx.cold.1, symObjAddr: 0xEAA8, symBinAddr: 0xE2F98, symSize: 0x20 }
  - { offset: 0x144BAB, size: 0x8, addend: 0x0, symName: __ZN5godot7CowDataINS_3RefIN6sentry20SentryEventProcessorEEEE6resizeILb0EEENS_5ErrorEx.cold.1, symObjAddr: 0xEAA8, symBinAddr: 0xE2F98, symSize: 0x20 }
  - { offset: 0x144BBE, size: 0x8, addend: 0x0, symName: __ZN5godot7CowDataINS_3RefIN6sentry20SentryEventProcessorEEEE6resizeILb0EEENS_5ErrorEx.cold.3, symObjAddr: 0xEAE8, symBinAddr: 0xE2FD8, symSize: 0x20 }
  - { offset: 0x144BD6, size: 0x8, addend: 0x0, symName: __ZN5godot7CowDataINS_3RefIN6sentry20SentryEventProcessorEEEE6_unrefEv, symObjAddr: 0x8D60, symBinAddr: 0x2A980, symSize: 0xAC }
  - { offset: 0x144D7A, size: 0x8, addend: 0x0, symName: __ZN5godot7CowDataINS_3RefIN6sentry20SentryEventProcessorEEEE14_copy_on_writeEv.cold.1, symObjAddr: 0xEB48, symBinAddr: 0xE3038, symSize: 0xEC }
  - { offset: 0x145035, size: 0x8, addend: 0x0, symName: __ZN5godot6VectorINS_3RefIN6sentry20SentryEventProcessorEEEE9remove_atEx.cold.1, symObjAddr: 0xEC34, symBinAddr: 0xE3124, symSize: 0x60 }
  - { offset: 0x145078, size: 0x8, addend: 0x0, symName: __ZN6sentry13SentryOptions7set_dsnERKN5godot6StringE, symObjAddr: 0x8F58, symBinAddr: 0x2AB78, symSize: 0x8 }
  - { offset: 0x1450AD, size: 0x8, addend: 0x0, symName: __ZNK6sentry13SentryOptions7get_dsnEv, symObjAddr: 0x8F60, symBinAddr: 0x2AB80, symSize: 0xC }
  - { offset: 0x145136, size: 0x8, addend: 0x0, symName: __ZN5godot18create_method_bindIN6sentry13SentryOptionsEJRKNS_6StringEEEEPNS_10MethodBindEMT_FvDpT0_E.cold.1, symObjAddr: 0xEC94, symBinAddr: 0xE3184, symSize: 0x5C }
  - { offset: 0x1451C7, size: 0x8, addend: 0x0, symName: __ZN5godot18create_method_bindIN6sentry13SentryOptionsENS_6StringEJEEEPNS_10MethodBindEMT_KFT0_DpT1_E.cold.1, symObjAddr: 0xECF0, symBinAddr: 0xE31E0, symSize: 0x5C }
  - { offset: 0x1451F6, size: 0x8, addend: 0x0, symName: __ZNK6sentry13SentryOptions11get_releaseEv, symObjAddr: 0x98E8, symBinAddr: 0x2ADCC, symSize: 0xC }
  - { offset: 0x14521D, size: 0x8, addend: 0x0, symName: __ZN6sentry13SentryOptions8set_distERKN5godot6StringE, symObjAddr: 0x98F4, symBinAddr: 0x2ADD8, symSize: 0x8 }
  - { offset: 0x145252, size: 0x8, addend: 0x0, symName: __ZNK6sentry13SentryOptions8get_distEv, symObjAddr: 0x98FC, symBinAddr: 0x2ADE0, symSize: 0xC }
  - { offset: 0x145279, size: 0x8, addend: 0x0, symName: __ZN6sentry13SentryOptions17set_debug_enabledEb, symObjAddr: 0x9908, symBinAddr: 0x2ADEC, symSize: 0x8 }
  - { offset: 0x1452A9, size: 0x8, addend: 0x0, symName: __ZNK6sentry13SentryOptions16is_debug_enabledEv, symObjAddr: 0x9910, symBinAddr: 0x2ADF4, symSize: 0x8 }
  - { offset: 0x145332, size: 0x8, addend: 0x0, symName: __ZN5godot18create_method_bindIN6sentry13SentryOptionsEJbEEEPNS_10MethodBindEMT_FvDpT0_E.cold.1, symObjAddr: 0xED4C, symBinAddr: 0xE323C, symSize: 0x5C }
  - { offset: 0x145361, size: 0x8, addend: 0x0, symName: __ZNK5godot11MethodBindTIJbEE17gen_argument_typeEi, symObjAddr: 0x9A2C, symBinAddr: 0x2AF10, symSize: 0xC }
  - { offset: 0x145397, size: 0x8, addend: 0x0, symName: __ZNK5godot11MethodBindTIJbEE22gen_argument_type_infoEi, symObjAddr: 0x9A38, symBinAddr: 0x2AF1C, symSize: 0x138 }
  - { offset: 0x1454D0, size: 0x8, addend: 0x0, symName: __ZNK5godot11MethodBindTIJbEE21get_argument_metadataEi, symObjAddr: 0x9B70, symBinAddr: 0x2B054, symSize: 0x8 }
  - { offset: 0x145506, size: 0x8, addend: 0x0, symName: __ZNK5godot11MethodBindTIJbEE4callEPvPKPKvxR20GDExtensionCallError, symObjAddr: 0x9B78, symBinAddr: 0x2B05C, symSize: 0x40 }
  - { offset: 0x1455C6, size: 0x8, addend: 0x0, symName: __ZNK5godot11MethodBindTIJbEE7ptrcallEPvPKPKvS2_, symObjAddr: 0x9BB8, symBinAddr: 0x2B09C, symSize: 0x28 }
  - { offset: 0x1456B3, size: 0x8, addend: 0x0, symName: __ZN5godot11MethodBindTIJbEED1Ev, symObjAddr: 0x9BE0, symBinAddr: 0x2B0C4, symSize: 0x4 }
  - { offset: 0x1456D6, size: 0x8, addend: 0x0, symName: __ZN5godot11MethodBindTIJbEED1Ev, symObjAddr: 0x9BE0, symBinAddr: 0x2B0C4, symSize: 0x4 }
  - { offset: 0x14570E, size: 0x8, addend: 0x0, symName: __ZN5godot11MethodBindTIJbEED0Ev, symObjAddr: 0x9BE4, symBinAddr: 0x2B0C8, symSize: 0x14 }
  - { offset: 0x1457F2, size: 0x8, addend: 0x0, symName: __ZN5godot18create_method_bindIN6sentry13SentryOptionsEbJEEEPNS_10MethodBindEMT_KFT0_DpT1_E.cold.1, symObjAddr: 0xEDA8, symBinAddr: 0xE3298, symSize: 0x5C }
  - { offset: 0x145821, size: 0x8, addend: 0x0, symName: __ZN6sentry13SentryOptions20set_diagnostic_levelENS_5LevelE, symObjAddr: 0xA1D8, symBinAddr: 0x2B4A4, symSize: 0x8 }
  - { offset: 0x145854, size: 0x8, addend: 0x0, symName: __ZNK6sentry13SentryOptions20get_diagnostic_levelEv, symObjAddr: 0xA1E0, symBinAddr: 0x2B4AC, symSize: 0x8 }
  - { offset: 0x1458DD, size: 0x8, addend: 0x0, symName: __ZN5godot18create_method_bindIN6sentry13SentryOptionsEJNS1_5LevelEEEEPNS_10MethodBindEMT_FvDpT0_E.cold.1, symObjAddr: 0xEE04, symBinAddr: 0xE32F4, symSize: 0x5C }
  - { offset: 0x14596E, size: 0x8, addend: 0x0, symName: __ZN5godot18create_method_bindIN6sentry13SentryOptionsENS1_5LevelEJEEEPNS_10MethodBindEMT_KFT0_DpT1_E.cold.1, symObjAddr: 0xEE60, symBinAddr: 0xE3350, symSize: 0x5C }
  - { offset: 0x14599D, size: 0x8, addend: 0x0, symName: __ZN6sentry13SentryOptions15set_environmentERKN5godot6StringE, symObjAddr: 0xAB4C, symBinAddr: 0x2B6F4, symSize: 0x8 }
  - { offset: 0x1459D2, size: 0x8, addend: 0x0, symName: __ZNK6sentry13SentryOptions15get_environmentEv, symObjAddr: 0xAB54, symBinAddr: 0x2B6FC, symSize: 0xC }
  - { offset: 0x1459F9, size: 0x8, addend: 0x0, symName: __ZN6sentry13SentryOptions15set_sample_rateEd, symObjAddr: 0xAB60, symBinAddr: 0x2B708, symSize: 0x8 }
  - { offset: 0x145A2D, size: 0x8, addend: 0x0, symName: __ZNK6sentry13SentryOptions15get_sample_rateEv, symObjAddr: 0xAB68, symBinAddr: 0x2B710, symSize: 0x8 }
  - { offset: 0x145AB4, size: 0x8, addend: 0x0, symName: __ZN5godot18create_method_bindIN6sentry13SentryOptionsEJdEEEPNS_10MethodBindEMT_FvDpT0_E.cold.1, symObjAddr: 0xEEBC, symBinAddr: 0xE33AC, symSize: 0x5C }
  - { offset: 0x145AE3, size: 0x8, addend: 0x0, symName: __ZNK5godot11MethodBindTIJdEE17gen_argument_typeEi, symObjAddr: 0xAC84, symBinAddr: 0x2B82C, symSize: 0x10 }
  - { offset: 0x145B19, size: 0x8, addend: 0x0, symName: __ZNK5godot11MethodBindTIJdEE22gen_argument_type_infoEi, symObjAddr: 0xAC94, symBinAddr: 0x2B83C, symSize: 0x138 }
  - { offset: 0x145C52, size: 0x8, addend: 0x0, symName: __ZNK5godot11MethodBindTIJdEE21get_argument_metadataEi, symObjAddr: 0xADCC, symBinAddr: 0x2B974, symSize: 0x10 }
  - { offset: 0x145C8B, size: 0x8, addend: 0x0, symName: __ZNK5godot11MethodBindTIJdEE21get_argument_metadataEi, symObjAddr: 0xADCC, symBinAddr: 0x2B974, symSize: 0x10 }
  - { offset: 0x145CC4, size: 0x8, addend: 0x0, symName: __ZNK5godot11MethodBindTIJdEE21get_argument_metadataEi, symObjAddr: 0xADCC, symBinAddr: 0x2B974, symSize: 0x10 }
  - { offset: 0x145CE0, size: 0x8, addend: 0x0, symName: __ZNK5godot11MethodBindTIJdEE4callEPvPKPKvxR20GDExtensionCallError, symObjAddr: 0xADDC, symBinAddr: 0x2B984, symSize: 0x40 }
  - { offset: 0x145DA0, size: 0x8, addend: 0x0, symName: __ZNK5godot11MethodBindTIJdEE7ptrcallEPvPKPKvS2_, symObjAddr: 0xAE1C, symBinAddr: 0x2B9C4, symSize: 0x20 }
  - { offset: 0x145E85, size: 0x8, addend: 0x0, symName: __ZN5godot11MethodBindTIJdEED1Ev, symObjAddr: 0xAE3C, symBinAddr: 0x2B9E4, symSize: 0x4 }
  - { offset: 0x145EA8, size: 0x8, addend: 0x0, symName: __ZN5godot11MethodBindTIJdEED1Ev, symObjAddr: 0xAE3C, symBinAddr: 0x2B9E4, symSize: 0x4 }
  - { offset: 0x145EE0, size: 0x8, addend: 0x0, symName: __ZN5godot11MethodBindTIJdEED0Ev, symObjAddr: 0xAE40, symBinAddr: 0x2B9E8, symSize: 0x14 }
  - { offset: 0x145FC4, size: 0x8, addend: 0x0, symName: __ZN5godot18create_method_bindIN6sentry13SentryOptionsEdJEEEPNS_10MethodBindEMT_KFT0_DpT1_E.cold.1, symObjAddr: 0xEF18, symBinAddr: 0xE3408, symSize: 0x5C }
  - { offset: 0x145FF3, size: 0x8, addend: 0x0, symName: __ZNK5godot13MethodBindTRCIdJEE17gen_argument_typeEi, symObjAddr: 0xB218, symBinAddr: 0x2BDC0, symSize: 0x8 }
  - { offset: 0x146029, size: 0x8, addend: 0x0, symName: __ZNK5godot13MethodBindTRCIdJEE22gen_argument_type_infoEi, symObjAddr: 0xB220, symBinAddr: 0x2BDC8, symSize: 0xF8 }
  - { offset: 0x1460EC, size: 0x8, addend: 0x0, symName: __ZNK5godot13MethodBindTRCIdJEE21get_argument_metadataEi, symObjAddr: 0xB318, symBinAddr: 0x2BEC0, symSize: 0xC }
  - { offset: 0x146122, size: 0x8, addend: 0x0, symName: __ZNK5godot13MethodBindTRCIdJEE4callEPvPKPKvxR20GDExtensionCallError, symObjAddr: 0xB324, symBinAddr: 0x2BECC, symSize: 0xBC }
  - { offset: 0x146239, size: 0x8, addend: 0x0, symName: __ZNK5godot13MethodBindTRCIdJEE7ptrcallEPvPKPKvS2_, symObjAddr: 0xB3E0, symBinAddr: 0x2BF88, symSize: 0x38 }
  - { offset: 0x146327, size: 0x8, addend: 0x0, symName: __ZN5godot13MethodBindTRCIdJEED1Ev, symObjAddr: 0xB418, symBinAddr: 0x2BFC0, symSize: 0x4 }
  - { offset: 0x14634A, size: 0x8, addend: 0x0, symName: __ZN5godot13MethodBindTRCIdJEED1Ev, symObjAddr: 0xB418, symBinAddr: 0x2BFC0, symSize: 0x4 }
  - { offset: 0x146382, size: 0x8, addend: 0x0, symName: __ZN5godot13MethodBindTRCIdJEED0Ev, symObjAddr: 0xB41C, symBinAddr: 0x2BFC4, symSize: 0x14 }
  - { offset: 0x1463EA, size: 0x8, addend: 0x0, symName: __ZN6sentry13SentryOptions19set_max_breadcrumbsEi, symObjAddr: 0xB430, symBinAddr: 0x2BFD8, symSize: 0x8 }
  - { offset: 0x14641D, size: 0x8, addend: 0x0, symName: __ZNK6sentry13SentryOptions19get_max_breadcrumbsEv, symObjAddr: 0xB438, symBinAddr: 0x2BFE0, symSize: 0x8 }
  - { offset: 0x146444, size: 0x8, addend: 0x0, symName: __ZN5godot18create_method_bindIN6sentry13SentryOptionsEJiEEEPNS_10MethodBindEMT_FvDpT0_E.cold.1, symObjAddr: 0xEF74, symBinAddr: 0xE3464, symSize: 0x5C }
  - { offset: 0x1464D5, size: 0x8, addend: 0x0, symName: __ZN5godot18create_method_bindIN6sentry13SentryOptionsEiJEEEPNS_10MethodBindEMT_KFT0_DpT1_E.cold.1, symObjAddr: 0xEFD0, symBinAddr: 0xE34C0, symSize: 0x5C }
  - { offset: 0x146504, size: 0x8, addend: 0x0, symName: __ZNK5godot13MethodBindTRCIiJEE17gen_argument_typeEi, symObjAddr: 0xB680, symBinAddr: 0x2C228, symSize: 0x8 }
  - { offset: 0x14653A, size: 0x8, addend: 0x0, symName: __ZNK5godot13MethodBindTRCIiJEE22gen_argument_type_infoEi, symObjAddr: 0xB688, symBinAddr: 0x2C230, symSize: 0xF8 }
  - { offset: 0x1465FD, size: 0x8, addend: 0x0, symName: __ZNK5godot13MethodBindTRCIiJEE21get_argument_metadataEi, symObjAddr: 0xB780, symBinAddr: 0x2C328, symSize: 0xC }
  - { offset: 0x146633, size: 0x8, addend: 0x0, symName: __ZNK5godot13MethodBindTRCIiJEE4callEPvPKPKvxR20GDExtensionCallError, symObjAddr: 0xB78C, symBinAddr: 0x2C334, symSize: 0xC0 }
  - { offset: 0x146755, size: 0x8, addend: 0x0, symName: __ZNK5godot13MethodBindTRCIiJEE7ptrcallEPvPKPKvS2_, symObjAddr: 0xB84C, symBinAddr: 0x2C3F4, symSize: 0x3C }
  - { offset: 0x146842, size: 0x8, addend: 0x0, symName: __ZN5godot13MethodBindTRCIiJEED1Ev, symObjAddr: 0xB888, symBinAddr: 0x2C430, symSize: 0x4 }
  - { offset: 0x146865, size: 0x8, addend: 0x0, symName: __ZN5godot13MethodBindTRCIiJEED1Ev, symObjAddr: 0xB888, symBinAddr: 0x2C430, symSize: 0x4 }
  - { offset: 0x14689D, size: 0x8, addend: 0x0, symName: __ZN5godot13MethodBindTRCIiJEED0Ev, symObjAddr: 0xB88C, symBinAddr: 0x2C434, symSize: 0x14 }
  - { offset: 0x146905, size: 0x8, addend: 0x0, symName: __ZN6sentry13SentryOptions20set_send_default_piiEb, symObjAddr: 0xB8A0, symBinAddr: 0x2C448, symSize: 0x8 }
  - { offset: 0x146935, size: 0x8, addend: 0x0, symName: __ZNK6sentry13SentryOptions27is_send_default_pii_enabledEv, symObjAddr: 0xB8A8, symBinAddr: 0x2C450, symSize: 0x8 }
  - { offset: 0x14695C, size: 0x8, addend: 0x0, symName: __ZN6sentry13SentryOptions14set_attach_logEb, symObjAddr: 0xB8B0, symBinAddr: 0x2C458, symSize: 0x8 }
  - { offset: 0x14698C, size: 0x8, addend: 0x0, symName: __ZNK6sentry13SentryOptions21is_attach_log_enabledEv, symObjAddr: 0xB8B8, symBinAddr: 0x2C460, symSize: 0x8 }
  - { offset: 0x1469B3, size: 0x8, addend: 0x0, symName: __ZN6sentry13SentryOptions21set_attach_screenshotEb, symObjAddr: 0xB8C0, symBinAddr: 0x2C468, symSize: 0x8 }
  - { offset: 0x1469E3, size: 0x8, addend: 0x0, symName: __ZNK6sentry13SentryOptions28is_attach_screenshot_enabledEv, symObjAddr: 0xB8C8, symBinAddr: 0x2C470, symSize: 0x8 }
  - { offset: 0x146A0A, size: 0x8, addend: 0x0, symName: __ZN6sentry13SentryOptions20set_screenshot_levelENS_5LevelE, symObjAddr: 0xB8D0, symBinAddr: 0x2C478, symSize: 0x8 }
  - { offset: 0x146A3D, size: 0x8, addend: 0x0, symName: __ZNK6sentry13SentryOptions20get_screenshot_levelEv, symObjAddr: 0xB8D8, symBinAddr: 0x2C480, symSize: 0x8 }
  - { offset: 0x146A64, size: 0x8, addend: 0x0, symName: __ZN6sentry13SentryOptions21set_attach_scene_treeEb, symObjAddr: 0xB8E0, symBinAddr: 0x2C488, symSize: 0x8 }
  - { offset: 0x146A94, size: 0x8, addend: 0x0, symName: __ZNK6sentry13SentryOptions28is_attach_scene_tree_enabledEv, symObjAddr: 0xB8E8, symBinAddr: 0x2C490, symSize: 0x8 }
  - { offset: 0x146ABB, size: 0x8, addend: 0x0, symName: __ZN6sentry13SentryOptions18set_logger_enabledEb, symObjAddr: 0xB8F0, symBinAddr: 0x2C498, symSize: 0x8 }
  - { offset: 0x146AEB, size: 0x8, addend: 0x0, symName: __ZNK6sentry13SentryOptions17is_logger_enabledEv, symObjAddr: 0xB8F8, symBinAddr: 0x2C4A0, symSize: 0x8 }
  - { offset: 0x146B12, size: 0x8, addend: 0x0, symName: __ZN6sentry13SentryOptions25set_logger_include_sourceEb, symObjAddr: 0xB900, symBinAddr: 0x2C4A8, symSize: 0x8 }
  - { offset: 0x146B42, size: 0x8, addend: 0x0, symName: __ZNK6sentry13SentryOptions32is_logger_include_source_enabledEv, symObjAddr: 0xB908, symBinAddr: 0x2C4B0, symSize: 0x8 }
  - { offset: 0x146B69, size: 0x8, addend: 0x0, symName: __ZN6sentry13SentryOptions28set_logger_include_variablesEb, symObjAddr: 0xB910, symBinAddr: 0x2C4B8, symSize: 0x8 }
  - { offset: 0x146B99, size: 0x8, addend: 0x0, symName: __ZNK6sentry13SentryOptions35is_logger_include_variables_enabledEv, symObjAddr: 0xB918, symBinAddr: 0x2C4C0, symSize: 0x8 }
  - { offset: 0x146BC0, size: 0x8, addend: 0x0, symName: __ZN6sentry13SentryOptions34set_logger_messages_as_breadcrumbsEb, symObjAddr: 0xB920, symBinAddr: 0x2C4C8, symSize: 0x8 }
  - { offset: 0x146BF0, size: 0x8, addend: 0x0, symName: __ZNK6sentry13SentryOptions41is_logger_messages_as_breadcrumbs_enabledEv, symObjAddr: 0xB928, symBinAddr: 0x2C4D0, symSize: 0x8 }
  - { offset: 0x146C17, size: 0x8, addend: 0x0, symName: __ZN6sentry13SentryOptions21set_logger_event_maskEN5godot8BitFieldINS_14GodotErrorMaskEEE, symObjAddr: 0xB930, symBinAddr: 0x2C4D8, symSize: 0x8 }
  - { offset: 0x146C4A, size: 0x8, addend: 0x0, symName: __ZNK6sentry13SentryOptions21get_logger_event_maskEv, symObjAddr: 0xB938, symBinAddr: 0x2C4E0, symSize: 0x8 }
  - { offset: 0x146CD3, size: 0x8, addend: 0x0, symName: __ZN5godot18create_method_bindIN6sentry13SentryOptionsEJNS_8BitFieldINS1_14GodotErrorMaskEEEEEEPNS_10MethodBindEMT_FvDpT0_E.cold.1, symObjAddr: 0xF02C, symBinAddr: 0xE351C, symSize: 0x5C }
  - { offset: 0x146D02, size: 0x8, addend: 0x0, symName: __ZNK5godot11MethodBindTIJNS_8BitFieldIN6sentry14GodotErrorMaskEEEEE17gen_argument_typeEi, symObjAddr: 0xBA54, symBinAddr: 0x2C5FC, symSize: 0x10 }
  - { offset: 0x146D38, size: 0x8, addend: 0x0, symName: __ZNK5godot11MethodBindTIJNS_8BitFieldIN6sentry14GodotErrorMaskEEEEE22gen_argument_type_infoEi, symObjAddr: 0xBA64, symBinAddr: 0x2C60C, symSize: 0x138 }
  - { offset: 0x146E71, size: 0x8, addend: 0x0, symName: __ZNK5godot11MethodBindTIJNS_8BitFieldIN6sentry14GodotErrorMaskEEEEE21get_argument_metadataEi, symObjAddr: 0xBB9C, symBinAddr: 0x2C744, symSize: 0x8 }
  - { offset: 0x146EA7, size: 0x8, addend: 0x0, symName: __ZNK5godot11MethodBindTIJNS_8BitFieldIN6sentry14GodotErrorMaskEEEEE4callEPvPKPKvxR20GDExtensionCallError, symObjAddr: 0xBBA4, symBinAddr: 0x2C74C, symSize: 0x40 }
  - { offset: 0x146F67, size: 0x8, addend: 0x0, symName: __ZNK5godot11MethodBindTIJNS_8BitFieldIN6sentry14GodotErrorMaskEEEEE7ptrcallEPvPKPKvS6_, symObjAddr: 0xBBE4, symBinAddr: 0x2C78C, symSize: 0x20 }
  - { offset: 0x147052, size: 0x8, addend: 0x0, symName: __ZN5godot11MethodBindTIJNS_8BitFieldIN6sentry14GodotErrorMaskEEEEED1Ev, symObjAddr: 0xBC04, symBinAddr: 0x2C7AC, symSize: 0x4 }
  - { offset: 0x147075, size: 0x8, addend: 0x0, symName: __ZN5godot11MethodBindTIJNS_8BitFieldIN6sentry14GodotErrorMaskEEEEED1Ev, symObjAddr: 0xBC04, symBinAddr: 0x2C7AC, symSize: 0x4 }
  - { offset: 0x1470AD, size: 0x8, addend: 0x0, symName: __ZN5godot11MethodBindTIJNS_8BitFieldIN6sentry14GodotErrorMaskEEEEED0Ev, symObjAddr: 0xBC08, symBinAddr: 0x2C7B0, symSize: 0x14 }
  - { offset: 0x14718A, size: 0x8, addend: 0x0, symName: __ZN5godot18create_method_bindIN6sentry13SentryOptionsENS_8BitFieldINS1_14GodotErrorMaskEEEJEEEPNS_10MethodBindEMT_KFT0_DpT1_E.cold.1, symObjAddr: 0xF088, symBinAddr: 0xE3578, symSize: 0x5C }
  - { offset: 0x1471B9, size: 0x8, addend: 0x0, symName: __ZNK5godot13MethodBindTRCINS_8BitFieldIN6sentry14GodotErrorMaskEEEJEE17gen_argument_typeEi, symObjAddr: 0xC068, symBinAddr: 0x2CC10, symSize: 0x8 }
  - { offset: 0x1471EF, size: 0x8, addend: 0x0, symName: __ZNK5godot13MethodBindTRCINS_8BitFieldIN6sentry14GodotErrorMaskEEEJEE22gen_argument_type_infoEi, symObjAddr: 0xC070, symBinAddr: 0x2CC18, symSize: 0x4 }
  - { offset: 0x147226, size: 0x8, addend: 0x0, symName: __ZNK5godot13MethodBindTRCINS_8BitFieldIN6sentry14GodotErrorMaskEEEJEE22gen_argument_type_infoEi, symObjAddr: 0xC070, symBinAddr: 0x2CC18, symSize: 0x4 }
  - { offset: 0x147239, size: 0x8, addend: 0x0, symName: __ZNK5godot13MethodBindTRCINS_8BitFieldIN6sentry14GodotErrorMaskEEEJEE21get_argument_metadataEi, symObjAddr: 0xC074, symBinAddr: 0x2CC1C, symSize: 0x8 }
  - { offset: 0x14726F, size: 0x8, addend: 0x0, symName: __ZNK5godot13MethodBindTRCINS_8BitFieldIN6sentry14GodotErrorMaskEEEJEE4callEPvPKPKvxR20GDExtensionCallError, symObjAddr: 0xC07C, symBinAddr: 0x2CC24, symSize: 0xC0 }
  - { offset: 0x14739C, size: 0x8, addend: 0x0, symName: __ZNK5godot13MethodBindTRCINS_8BitFieldIN6sentry14GodotErrorMaskEEEJEE7ptrcallEPvPKPKvS6_, symObjAddr: 0xC13C, symBinAddr: 0x2CCE4, symSize: 0x38 }
  - { offset: 0x147489, size: 0x8, addend: 0x0, symName: __ZN5godot13MethodBindTRCINS_8BitFieldIN6sentry14GodotErrorMaskEEEJEED1Ev, symObjAddr: 0xC174, symBinAddr: 0x2CD1C, symSize: 0x4 }
  - { offset: 0x1474AC, size: 0x8, addend: 0x0, symName: __ZN5godot13MethodBindTRCINS_8BitFieldIN6sentry14GodotErrorMaskEEEJEED1Ev, symObjAddr: 0xC174, symBinAddr: 0x2CD1C, symSize: 0x4 }
  - { offset: 0x1474E4, size: 0x8, addend: 0x0, symName: __ZN5godot13MethodBindTRCINS_8BitFieldIN6sentry14GodotErrorMaskEEEJEED0Ev, symObjAddr: 0xC178, symBinAddr: 0x2CD20, symSize: 0x14 }
  - { offset: 0x14754C, size: 0x8, addend: 0x0, symName: __ZN6sentry13SentryOptions26set_logger_breadcrumb_maskEN5godot8BitFieldINS_14GodotErrorMaskEEE, symObjAddr: 0xC18C, symBinAddr: 0x2CD34, symSize: 0x8 }
  - { offset: 0x14757F, size: 0x8, addend: 0x0, symName: __ZNK6sentry13SentryOptions26get_logger_breadcrumb_maskEv, symObjAddr: 0xC194, symBinAddr: 0x2CD3C, symSize: 0x8 }
  - { offset: 0x1475F0, size: 0x8, addend: 0x0, symName: __ZNK6sentry13SentryOptions17get_logger_limitsEv, symObjAddr: 0xC19C, symBinAddr: 0x2CD44, symSize: 0x18 }
  - { offset: 0x147619, size: 0x8, addend: 0x0, symName: __ZNK6sentry13SentryOptions17get_logger_limitsEv, symObjAddr: 0xC19C, symBinAddr: 0x2CD44, symSize: 0x18 }
  - { offset: 0x14763D, size: 0x8, addend: 0x0, symName: __ZNK6sentry13SentryOptions17get_logger_limitsEv, symObjAddr: 0xC19C, symBinAddr: 0x2CD44, symSize: 0x18 }
  - { offset: 0x1476E8, size: 0x8, addend: 0x0, symName: __ZN5godot18create_method_bindIN6sentry13SentryOptionsEJRKNS_3RefINS1_18SentryLoggerLimitsEEEEEEPNS_10MethodBindEMT_FvDpT0_E.cold.1, symObjAddr: 0xF0E4, symBinAddr: 0xE35D4, symSize: 0x5C }
  - { offset: 0x147717, size: 0x8, addend: 0x0, symName: __ZNK5godot11MethodBindTIJRKNS_3RefIN6sentry18SentryLoggerLimitsEEEEE17gen_argument_typeEi, symObjAddr: 0xC2C8, symBinAddr: 0x2CE70, symSize: 0x10 }
  - { offset: 0x14774D, size: 0x8, addend: 0x0, symName: __ZNK5godot11MethodBindTIJRKNS_3RefIN6sentry18SentryLoggerLimitsEEEEE22gen_argument_type_infoEi, symObjAddr: 0xC2D8, symBinAddr: 0x2CE80, symSize: 0x138 }
  - { offset: 0x147886, size: 0x8, addend: 0x0, symName: __ZNK5godot11MethodBindTIJRKNS_3RefIN6sentry18SentryLoggerLimitsEEEEE21get_argument_metadataEi, symObjAddr: 0xC410, symBinAddr: 0x2CFB8, symSize: 0x8 }
  - { offset: 0x1478BC, size: 0x8, addend: 0x0, symName: __ZNK5godot11MethodBindTIJRKNS_3RefIN6sentry18SentryLoggerLimitsEEEEE4callEPvPKPKvxR20GDExtensionCallError, symObjAddr: 0xC418, symBinAddr: 0x2CFC0, symSize: 0x40 }
  - { offset: 0x14798B, size: 0x8, addend: 0x0, symName: __ZNK5godot11MethodBindTIJRKNS_3RefIN6sentry18SentryLoggerLimitsEEEEE7ptrcallEPvPKPKvS8_, symObjAddr: 0xC458, symBinAddr: 0x2D000, symSize: 0xC0 }
  - { offset: 0x147BB6, size: 0x8, addend: 0x0, symName: __ZN5godot11MethodBindTIJRKNS_3RefIN6sentry18SentryLoggerLimitsEEEEED1Ev, symObjAddr: 0xC518, symBinAddr: 0x2D0C0, symSize: 0x4 }
  - { offset: 0x147BD9, size: 0x8, addend: 0x0, symName: __ZN5godot11MethodBindTIJRKNS_3RefIN6sentry18SentryLoggerLimitsEEEEED1Ev, symObjAddr: 0xC518, symBinAddr: 0x2D0C0, symSize: 0x4 }
  - { offset: 0x147C11, size: 0x8, addend: 0x0, symName: __ZN5godot11MethodBindTIJRKNS_3RefIN6sentry18SentryLoggerLimitsEEEEED0Ev, symObjAddr: 0xC51C, symBinAddr: 0x2D0C4, symSize: 0x14 }
  - { offset: 0x147C79, size: 0x8, addend: 0x0, symName: __ZN5godot11GetTypeInfoIRKNS_3RefIN6sentry18SentryLoggerLimitsEEEvE14get_class_infoEv, symObjAddr: 0xC604, symBinAddr: 0x2D1AC, symSize: 0x12C }
  - { offset: 0x147D21, size: 0x8, addend: 0x0, symName: __ZN5godot11GetTypeInfoIRKNS_3RefIN6sentry18SentryLoggerLimitsEEEvE14get_class_infoEv.cold.1, symObjAddr: 0xF140, symBinAddr: 0xE3630, symSize: 0x58 }
  - { offset: 0x147DC8, size: 0x8, addend: 0x0, symName: __ZN5godot6Object7cast_toIN6sentry18SentryLoggerLimitsEEEPT_PS0_, symObjAddr: 0xC8A0, symBinAddr: 0x2D448, symSize: 0xE8 }
  - { offset: 0x147E5E, size: 0x8, addend: 0x0, symName: __ZN5godot6Object7cast_toIN6sentry18SentryLoggerLimitsEEEPT_PS0_.cold.1, symObjAddr: 0xF198, symBinAddr: 0xE3688, symSize: 0x5C }
  - { offset: 0x147EEE, size: 0x8, addend: 0x0, symName: __ZN5godot18create_method_bindIN6sentry13SentryOptionsENS_3RefINS1_18SentryLoggerLimitsEEEJEEEPNS_10MethodBindEMT_KFT0_DpT1_E.cold.1, symObjAddr: 0xF1F4, symBinAddr: 0xE36E4, symSize: 0x5C }
  - { offset: 0x147F1D, size: 0x8, addend: 0x0, symName: __ZNK5godot13MethodBindTRCINS_3RefIN6sentry18SentryLoggerLimitsEEEJEE17gen_argument_typeEi, symObjAddr: 0xCAB4, symBinAddr: 0x2D65C, symSize: 0x8 }
  - { offset: 0x147F53, size: 0x8, addend: 0x0, symName: __ZNK5godot13MethodBindTRCINS_3RefIN6sentry18SentryLoggerLimitsEEEJEE22gen_argument_type_infoEi, symObjAddr: 0xCABC, symBinAddr: 0x2D664, symSize: 0x4 }
  - { offset: 0x147F8A, size: 0x8, addend: 0x0, symName: __ZNK5godot13MethodBindTRCINS_3RefIN6sentry18SentryLoggerLimitsEEEJEE22gen_argument_type_infoEi, symObjAddr: 0xCABC, symBinAddr: 0x2D664, symSize: 0x4 }
  - { offset: 0x147F9D, size: 0x8, addend: 0x0, symName: __ZN5godot11GetTypeInfoINS_3RefIN6sentry18SentryLoggerLimitsEEEvE14get_class_infoEv, symObjAddr: 0xCBE0, symBinAddr: 0x2D788, symSize: 0x12C }
  - { offset: 0x148045, size: 0x8, addend: 0x0, symName: __ZNK5godot13MethodBindTRCINS_3RefIN6sentry18SentryLoggerLimitsEEEJEE21get_argument_metadataEi, symObjAddr: 0xCAC0, symBinAddr: 0x2D668, symSize: 0x8 }
  - { offset: 0x14807B, size: 0x8, addend: 0x0, symName: __ZNK5godot13MethodBindTRCINS_3RefIN6sentry18SentryLoggerLimitsEEEJEE4callEPvPKPKvxR20GDExtensionCallError, symObjAddr: 0xCAC8, symBinAddr: 0x2D670, symSize: 0x64 }
  - { offset: 0x148163, size: 0x8, addend: 0x0, symName: __ZNK5godot13MethodBindTRCINS_3RefIN6sentry18SentryLoggerLimitsEEEJEE7ptrcallEPvPKPKvS6_, symObjAddr: 0xCB2C, symBinAddr: 0x2D6D4, symSize: 0x9C }
  - { offset: 0x1482D5, size: 0x8, addend: 0x0, symName: __ZNK5godot13MethodBindTRCINS_3RefIN6sentry18SentryLoggerLimitsEEEJEE7ptrcallEPvPKPKvS6_.cold.1, symObjAddr: 0xF250, symBinAddr: 0xE3740, symSize: 0x30 }
  - { offset: 0x14834C, size: 0x8, addend: 0x0, symName: __ZN5godot13MethodBindTRCINS_3RefIN6sentry18SentryLoggerLimitsEEEJEED1Ev, symObjAddr: 0xCBC8, symBinAddr: 0x2D770, symSize: 0x4 }
  - { offset: 0x14836F, size: 0x8, addend: 0x0, symName: __ZN5godot13MethodBindTRCINS_3RefIN6sentry18SentryLoggerLimitsEEEJEED1Ev, symObjAddr: 0xCBC8, symBinAddr: 0x2D770, symSize: 0x4 }
  - { offset: 0x1483A7, size: 0x8, addend: 0x0, symName: __ZN5godot13MethodBindTRCINS_3RefIN6sentry18SentryLoggerLimitsEEEJEED0Ev, symObjAddr: 0xCBCC, symBinAddr: 0x2D774, symSize: 0x14 }
  - { offset: 0x14840F, size: 0x8, addend: 0x0, symName: __ZN5godot11GetTypeInfoINS_3RefIN6sentry18SentryLoggerLimitsEEEvE14get_class_infoEv.cold.1, symObjAddr: 0xF280, symBinAddr: 0xE3770, symSize: 0x58 }
  - { offset: 0x148454, size: 0x8, addend: 0x0, symName: __ZN6sentry13SentryOptions15set_before_sendERKN5godot8CallableE, symObjAddr: 0xCDF0, symBinAddr: 0x2D998, symSize: 0x8 }
  - { offset: 0x148489, size: 0x8, addend: 0x0, symName: __ZNK6sentry13SentryOptions15get_before_sendEv, symObjAddr: 0xCDF8, symBinAddr: 0x2D9A0, symSize: 0xC }
  - { offset: 0x148512, size: 0x8, addend: 0x0, symName: __ZN5godot18create_method_bindIN6sentry13SentryOptionsEJRKNS_8CallableEEEEPNS_10MethodBindEMT_FvDpT0_E.cold.1, symObjAddr: 0xF2D8, symBinAddr: 0xE37C8, symSize: 0x5C }
  - { offset: 0x148541, size: 0x8, addend: 0x0, symName: __ZNK5godot11MethodBindTIJRKNS_8CallableEEE17gen_argument_typeEi, symObjAddr: 0xCF18, symBinAddr: 0x2DAC0, symSize: 0x10 }
  - { offset: 0x148577, size: 0x8, addend: 0x0, symName: __ZNK5godot11MethodBindTIJRKNS_8CallableEEE22gen_argument_type_infoEi, symObjAddr: 0xCF28, symBinAddr: 0x2DAD0, symSize: 0x138 }
  - { offset: 0x1486B0, size: 0x8, addend: 0x0, symName: __ZNK5godot11MethodBindTIJRKNS_8CallableEEE21get_argument_metadataEi, symObjAddr: 0xD060, symBinAddr: 0x2DC08, symSize: 0x8 }
  - { offset: 0x1486E6, size: 0x8, addend: 0x0, symName: __ZNK5godot11MethodBindTIJRKNS_8CallableEEE4callEPvPKPKvxR20GDExtensionCallError, symObjAddr: 0xD068, symBinAddr: 0x2DC10, symSize: 0x40 }
  - { offset: 0x1487A6, size: 0x8, addend: 0x0, symName: __ZNK5godot11MethodBindTIJRKNS_8CallableEEE7ptrcallEPvPKPKvS5_, symObjAddr: 0xD0A8, symBinAddr: 0x2DC50, symSize: 0x80 }
  - { offset: 0x14889F, size: 0x8, addend: 0x0, symName: __ZN5godot11MethodBindTIJRKNS_8CallableEEED1Ev, symObjAddr: 0xD128, symBinAddr: 0x2DCD0, symSize: 0x4 }
  - { offset: 0x1488C2, size: 0x8, addend: 0x0, symName: __ZN5godot11MethodBindTIJRKNS_8CallableEEED1Ev, symObjAddr: 0xD128, symBinAddr: 0x2DCD0, symSize: 0x4 }
  - { offset: 0x1488FA, size: 0x8, addend: 0x0, symName: __ZN5godot11MethodBindTIJRKNS_8CallableEEED0Ev, symObjAddr: 0xD12C, symBinAddr: 0x2DCD4, symSize: 0x14 }
  - { offset: 0x1489DE, size: 0x8, addend: 0x0, symName: __ZN5godot18create_method_bindIN6sentry13SentryOptionsENS_8CallableEJEEEPNS_10MethodBindEMT_KFT0_DpT1_E.cold.1, symObjAddr: 0xF334, symBinAddr: 0xE3824, symSize: 0x5C }
  - { offset: 0x148A0D, size: 0x8, addend: 0x0, symName: __ZNK5godot13MethodBindTRCINS_8CallableEJEE17gen_argument_typeEi, symObjAddr: 0xD514, symBinAddr: 0x2E0BC, symSize: 0x8 }
  - { offset: 0x148A4A, size: 0x8, addend: 0x0, symName: __ZNK5godot13MethodBindTRCINS_8CallableEJEE22gen_argument_type_infoEi, symObjAddr: 0xD51C, symBinAddr: 0x2E0C4, symSize: 0xF8 }
  - { offset: 0x148B0D, size: 0x8, addend: 0x0, symName: __ZNK5godot13MethodBindTRCINS_8CallableEJEE21get_argument_metadataEi, symObjAddr: 0xD614, symBinAddr: 0x2E1BC, symSize: 0x8 }
  - { offset: 0x148B43, size: 0x8, addend: 0x0, symName: __ZNK5godot13MethodBindTRCINS_8CallableEJEE4callEPvPKPKvxR20GDExtensionCallError, symObjAddr: 0xD61C, symBinAddr: 0x2E1C4, symSize: 0xCC }
  - { offset: 0x148C60, size: 0x8, addend: 0x0, symName: __ZNK5godot13MethodBindTRCINS_8CallableEJEE7ptrcallEPvPKPKvS3_, symObjAddr: 0xD6E8, symBinAddr: 0x2E290, symSize: 0x80 }
  - { offset: 0x148D54, size: 0x8, addend: 0x0, symName: __ZN5godot13MethodBindTRCINS_8CallableEJEED1Ev, symObjAddr: 0xD768, symBinAddr: 0x2E310, symSize: 0x4 }
  - { offset: 0x148D77, size: 0x8, addend: 0x0, symName: __ZN5godot13MethodBindTRCINS_8CallableEJEED1Ev, symObjAddr: 0xD768, symBinAddr: 0x2E310, symSize: 0x4 }
  - { offset: 0x148DAF, size: 0x8, addend: 0x0, symName: __ZN5godot13MethodBindTRCINS_8CallableEJEED0Ev, symObjAddr: 0xD76C, symBinAddr: 0x2E314, symSize: 0x14 }
  - { offset: 0x148E17, size: 0x8, addend: 0x0, symName: __ZN6sentry13SentryOptions29set_before_capture_screenshotERKN5godot8CallableE, symObjAddr: 0xD780, symBinAddr: 0x2E328, symSize: 0x8 }
  - { offset: 0x148E4C, size: 0x8, addend: 0x0, symName: __ZNK6sentry13SentryOptions29get_before_capture_screenshotEv, symObjAddr: 0xD788, symBinAddr: 0x2E330, symSize: 0xC }
  - { offset: 0x148E7A, size: 0x8, addend: 0x0, symName: __GLOBAL__sub_I_sentry_options.cpp, symObjAddr: 0xF690, symBinAddr: 0x2E63C, symSize: 0x20 }
  - { offset: 0x148E92, size: 0x8, addend: 0x0, symName: __GLOBAL__sub_I_sentry_options.cpp, symObjAddr: 0xF690, symBinAddr: 0x2E63C, symSize: 0x20 }
  - { offset: 0x148EDE, size: 0x8, addend: 0x0, symName: _OUTLINED_FUNCTION_0, symObjAddr: 0xF390, symBinAddr: 0x2E33C, symSize: 0x10 }
  - { offset: 0x148EF6, size: 0x8, addend: 0x0, symName: _OUTLINED_FUNCTION_1, symObjAddr: 0xF3A0, symBinAddr: 0x2E34C, symSize: 0xC }
  - { offset: 0x148F0E, size: 0x8, addend: 0x0, symName: _OUTLINED_FUNCTION_2, symObjAddr: 0xF3AC, symBinAddr: 0x2E358, symSize: 0xC }
  - { offset: 0x148F26, size: 0x8, addend: 0x0, symName: _OUTLINED_FUNCTION_3, symObjAddr: 0xF3B8, symBinAddr: 0x2E364, symSize: 0x8 }
  - { offset: 0x148F3E, size: 0x8, addend: 0x0, symName: _OUTLINED_FUNCTION_4, symObjAddr: 0xF3C0, symBinAddr: 0x2E36C, symSize: 0x8 }
  - { offset: 0x148F56, size: 0x8, addend: 0x0, symName: _OUTLINED_FUNCTION_5, symObjAddr: 0xF3C8, symBinAddr: 0x2E374, symSize: 0x8 }
  - { offset: 0x148F6E, size: 0x8, addend: 0x0, symName: _OUTLINED_FUNCTION_6, symObjAddr: 0xF3D0, symBinAddr: 0x2E37C, symSize: 0x8 }
  - { offset: 0x148F86, size: 0x8, addend: 0x0, symName: _OUTLINED_FUNCTION_7, symObjAddr: 0xF3D8, symBinAddr: 0x2E384, symSize: 0xC }
  - { offset: 0x151586, size: 0x8, addend: 0x0, symName: __ZN5godot18create_method_bindIN6sentry9SentrySDKEJRKNS_8CallableEEEEPNS_10MethodBindEMT_FvDpT0_E, symObjAddr: 0x4CE0, symBinAddr: 0x31E08, symSize: 0x114 }
  - { offset: 0x1516CE, size: 0x8, addend: 0x0, symName: __ZN5godot18create_method_bindIN6sentry9SentrySDKEJEEEPNS_10MethodBindEMT_FvDpT0_E, symObjAddr: 0x52C4, symBinAddr: 0x31F1C, symSize: 0x114 }
  - { offset: 0x1517FB, size: 0x8, addend: 0x0, symName: __ZN5godot18create_method_bindIN6sentry9SentrySDKEbJEEEPNS_10MethodBindEMT_KFT0_DpT1_E, symObjAddr: 0x55B8, symBinAddr: 0x32030, symSize: 0x12C }
  - { offset: 0x151931, size: 0x8, addend: 0x0, symName: __ZN5godot18create_method_bindIN6sentry9SentrySDKEJRKNS_3RefINS1_16SentryBreadcrumbEEEEEEPNS_10MethodBindEMT_FvDpT0_E, symObjAddr: 0x58FC, symBinAddr: 0x3215C, symSize: 0x114 }
  - { offset: 0x151A64, size: 0x8, addend: 0x0, symName: __ZN5godot18create_method_bindIN6sentry9SentrySDKENS_6StringEJRKS3_NS1_5LevelEEEEPNS_10MethodBindEMT_FT0_DpT1_E, symObjAddr: 0x60D0, symBinAddr: 0x32930, symSize: 0x124 }
  - { offset: 0x151BA5, size: 0x8, addend: 0x0, symName: __ZN5godot18create_method_bindIN6sentry9SentrySDKENS_6StringEJEEEPNS_10MethodBindEMT_KFT0_DpT1_E, symObjAddr: 0x6930, symBinAddr: 0x32F48, symSize: 0x12C }
  - { offset: 0x151CDB, size: 0x8, addend: 0x0, symName: __ZN5godot18create_method_bindIN6sentry9SentrySDKEJRKNS_6StringERKNS_10DictionaryEEEEPNS_10MethodBindEMT_FvDpT0_E, symObjAddr: 0x6CC8, symBinAddr: 0x33074, symSize: 0x118 }
  - { offset: 0x151E13, size: 0x8, addend: 0x0, symName: __ZN5godot18create_method_bindIN6sentry9SentrySDKEJRKNS_6StringES5_EEEPNS_10MethodBindEMT_FvDpT0_E, symObjAddr: 0x7354, symBinAddr: 0x3358C, symSize: 0x118 }
  - { offset: 0x151F4B, size: 0x8, addend: 0x0, symName: __ZN5godot18create_method_bindIN6sentry9SentrySDKEJRKNS_6StringEEEEPNS_10MethodBindEMT_FvDpT0_E, symObjAddr: 0x7858, symBinAddr: 0x336A4, symSize: 0x114 }
  - { offset: 0x15207E, size: 0x8, addend: 0x0, symName: __ZN5godot18create_method_bindIN6sentry9SentrySDKEJRKNS_3RefINS1_10SentryUserEEEEEEPNS_10MethodBindEMT_FvDpT0_E, symObjAddr: 0x7CC8, symBinAddr: 0x337B8, symSize: 0x114 }
  - { offset: 0x1521B1, size: 0x8, addend: 0x0, symName: __ZN5godot18create_method_bindIN6sentry9SentrySDKENS_3RefINS1_11SentryEventEEEJEEEPNS_10MethodBindEMT_KFT0_DpT1_E, symObjAddr: 0x849C, symBinAddr: 0x33F8C, symSize: 0x12C }
  - { offset: 0x1522E7, size: 0x8, addend: 0x0, symName: __ZN5godot18create_method_bindIN6sentry9SentrySDKENS_6StringEJRKNS_3RefINS1_11SentryEventEEEEEEPNS_10MethodBindEMT_FT0_DpT1_E, symObjAddr: 0x8904, symBinAddr: 0x343F4, symSize: 0x120 }
  - { offset: 0x152423, size: 0x8, addend: 0x0, symName: __ZN5godot18create_method_bindIN6sentry9SentrySDKEJRKNS_3RefINS1_16SentryAttachmentEEEEEEPNS_10MethodBindEMT_FvDpT0_E, symObjAddr: 0x9214, symBinAddr: 0x34D04, symSize: 0x114 }
  - { offset: 0x152556, size: 0x8, addend: 0x0, symName: __ZN5godot18create_method_bindIN6sentry9SentrySDKENS_8CallableEJEEEPNS_10MethodBindEMT_FT0_DpT1_E, symObjAddr: 0x99E8, symBinAddr: 0x354D8, symSize: 0x120 }
  - { offset: 0x152D96, size: 0x8, addend: 0x0, symName: __ZN5godot34call_get_argument_type_info_helperIRKNS_3RefIN6sentry16SentryBreadcrumbEEEEEviRiRNS_12PropertyInfoE, symObjAddr: 0x5C78, symBinAddr: 0x324D8, symSize: 0xD4 }
  - { offset: 0x152E4E, size: 0x8, addend: 0x0, symName: __ZN5godot25call_with_variant_args_dvINS_20_gde_UnexistingClassEJRKNS_3RefIN6sentry16SentryBreadcrumbEEEEEEvPT_MS8_FvDpT0_EPKPKviR20GDExtensionCallErrorRKNSt3__16vectorINS_7VariantENSK_9allocatorISM_EEEE, symObjAddr: 0x5E78, symBinAddr: 0x326D8, symSize: 0x170 }
  - { offset: 0x15352A, size: 0x8, addend: 0x0, symName: __ZN5godot29call_with_variant_args_ret_dvINS_20_gde_UnexistingClassENS_6StringEJRKS2_N6sentry5LevelEEEEvPT_MS7_FT0_DpT1_EPKPKviRNS_7VariantER20GDExtensionCallErrorRKNSt3__16vectorISI_NSM_9allocatorISI_EEEE, symObjAddr: 0x66EC, symBinAddr: 0x32D04, symSize: 0x178 }
  - { offset: 0x153776, size: 0x8, addend: 0x0, symName: __ZN5godot33call_with_variant_args_ret_helperINS_20_gde_UnexistingClassENS_6StringEJRKS2_N6sentry5LevelEEJLm0ELm1EEEEvPT_MS7_FT0_DpT1_EPPKNS_7VariantERSE_R20GDExtensionCallErrorNS_13IndexSequenceIJXspT2_EEEE, symObjAddr: 0x6864, symBinAddr: 0x32E7C, symSize: 0xCC }
  - { offset: 0x153BFD, size: 0x8, addend: 0x0, symName: __ZN5godot25call_with_variant_args_dvINS_20_gde_UnexistingClassEJRKNS_6StringERKNS_10DictionaryEEEEvPT_MS8_FvDpT0_EPKPKviR20GDExtensionCallErrorRKNSt3__16vectorINS_7VariantENSK_9allocatorISM_EEEE, symObjAddr: 0x71B4, symBinAddr: 0x333EC, symSize: 0x1A0 }
  - { offset: 0x154271, size: 0x8, addend: 0x0, symName: __ZN5godot34call_get_argument_type_info_helperIRKNS_3RefIN6sentry10SentryUserEEEEEviRiRNS_12PropertyInfoE, symObjAddr: 0x8044, symBinAddr: 0x33B34, symSize: 0xD4 }
  - { offset: 0x154329, size: 0x8, addend: 0x0, symName: __ZN5godot25call_with_variant_args_dvINS_20_gde_UnexistingClassEJRKNS_3RefIN6sentry10SentryUserEEEEEEvPT_MS8_FvDpT0_EPKPKviR20GDExtensionCallErrorRKNSt3__16vectorINS_7VariantENSK_9allocatorISM_EEEE, symObjAddr: 0x8244, symBinAddr: 0x33D34, symSize: 0x170 }
  - { offset: 0x154845, size: 0x8, addend: 0x0, symName: __ZN5godot30call_with_variant_args_retc_dvINS_20_gde_UnexistingClassENS_3RefIN6sentry11SentryEventEEEJEEEvPT_MS6_KFT0_DpT1_EPKPKviRNS_7VariantER20GDExtensionCallErrorRKNSt3__16vectorISH_NSL_9allocatorISH_EEEE, symObjAddr: 0x8820, symBinAddr: 0x34310, symSize: 0xE4 }
  - { offset: 0x154D07, size: 0x8, addend: 0x0, symName: __ZN5godot34call_get_argument_type_info_helperIRKNS_3RefIN6sentry11SentryEventEEEEEviRiRNS_12PropertyInfoE, symObjAddr: 0x8C24, symBinAddr: 0x34714, symSize: 0xD4 }
  - { offset: 0x154DBF, size: 0x8, addend: 0x0, symName: __ZN5godot29call_with_variant_args_ret_dvINS_20_gde_UnexistingClassENS_6StringEJRKNS_3RefIN6sentry11SentryEventEEEEEEvPT_MS9_FT0_DpT1_EPKPKviRNS_7VariantER20GDExtensionCallErrorRKNSt3__16vectorISK_NSO_9allocatorISK_EEEE, symObjAddr: 0x8E24, symBinAddr: 0x34914, symSize: 0x11C }
  - { offset: 0x154F7E, size: 0x8, addend: 0x0, symName: __ZN5godot29call_with_ptr_args_ret_helperINS_20_gde_UnexistingClassENS_6StringEJRKNS_3RefIN6sentry11SentryEventEEEEJLm0EEEEvPT_MS9_FT0_DpT1_EPKPKvPvNS_13IndexSequenceIJXspT2_EEEE, symObjAddr: 0x9120, symBinAddr: 0x34C10, symSize: 0xF4 }
  - { offset: 0x1551A4, size: 0x8, addend: 0x0, symName: __ZN5godot33call_with_variant_args_ret_helperINS_20_gde_UnexistingClassENS_6StringEJRKNS_3RefIN6sentry11SentryEventEEEEJLm0EEEEvPT_MS9_FT0_DpT1_EPPKNS_7VariantERSG_R20GDExtensionCallErrorNS_13IndexSequenceIJXspT2_EEEE, symObjAddr: 0x8F40, symBinAddr: 0x34A30, symSize: 0xF8 }
  - { offset: 0x155542, size: 0x8, addend: 0x0, symName: __ZN5godot34call_get_argument_type_info_helperIRKNS_3RefIN6sentry16SentryAttachmentEEEEEviRiRNS_12PropertyInfoE, symObjAddr: 0x9590, symBinAddr: 0x35080, symSize: 0xD4 }
  - { offset: 0x1555FA, size: 0x8, addend: 0x0, symName: __ZN5godot25call_with_variant_args_dvINS_20_gde_UnexistingClassEJRKNS_3RefIN6sentry16SentryAttachmentEEEEEEvPT_MS8_FvDpT0_EPKPKviR20GDExtensionCallErrorRKNSt3__16vectorINS_7VariantENSK_9allocatorISM_EEEE, symObjAddr: 0x9790, symBinAddr: 0x35280, symSize: 0x170 }
  - { offset: 0x16601C, size: 0x8, addend: 0x0, symName: __ZN6sentry9SentrySDK9singletonE, symObjAddr: 0x177290, symBinAddr: 0x169D20, symSize: 0x0 }
  - { offset: 0x1666CA, size: 0x8, addend: 0x0, symName: __ZN6sentry4util5printIJPcEEEvNS_5LevelERKN5godot7VariantEDpRKT_, symObjAddr: 0x4778, symBinAddr: 0x31B14, symSize: 0x25C }
  - { offset: 0x167927, size: 0x8, addend: 0x0, symName: __ZN5godot10FileAccess22_gde_binding_callbacksE, symObjAddr: 0xC8F8, symBinAddr: 0x15E570, symSize: 0x0 }
  - { offset: 0x1686FC, size: 0x8, addend: 0x0, symName: ___cxx_global_var_init, symObjAddr: 0xB2E4, symBinAddr: 0x35904, symSize: 0x4C }
  - { offset: 0x168781, size: 0x8, addend: 0x0, symName: ___cxx_global_var_init.1, symObjAddr: 0xB330, symBinAddr: 0x35950, symSize: 0x4C }
  - { offset: 0x168806, size: 0x8, addend: 0x0, symName: ___cxx_global_var_init.2, symObjAddr: 0xB37C, symBinAddr: 0x3599C, symSize: 0x4C }
  - { offset: 0x16888B, size: 0x8, addend: 0x0, symName: ___cxx_global_var_init.3, symObjAddr: 0xB3C8, symBinAddr: 0x359E8, symSize: 0x4C }
  - { offset: 0x168910, size: 0x8, addend: 0x0, symName: ___cxx_global_var_init.4, symObjAddr: 0xB414, symBinAddr: 0x35A34, symSize: 0x4C }
  - { offset: 0x168995, size: 0x8, addend: 0x0, symName: ___cxx_global_var_init.5, symObjAddr: 0xB460, symBinAddr: 0x35A80, symSize: 0x4C }
  - { offset: 0x168A1A, size: 0x8, addend: 0x0, symName: ___cxx_global_var_init.6, symObjAddr: 0xB4AC, symBinAddr: 0x35ACC, symSize: 0x4C }
  - { offset: 0x168A9F, size: 0x8, addend: 0x0, symName: ___cxx_global_var_init.7, symObjAddr: 0xB4F8, symBinAddr: 0x35B18, symSize: 0x4C }
  - { offset: 0x168B24, size: 0x8, addend: 0x0, symName: ___cxx_global_var_init.8, symObjAddr: 0xB544, symBinAddr: 0x35B64, symSize: 0x4C }
  - { offset: 0x168BA9, size: 0x8, addend: 0x0, symName: ___cxx_global_var_init.9, symObjAddr: 0xB590, symBinAddr: 0x35BB0, symSize: 0x4C }
  - { offset: 0x168C2E, size: 0x8, addend: 0x0, symName: ___cxx_global_var_init.10, symObjAddr: 0xB5DC, symBinAddr: 0x35BFC, symSize: 0x4C }
  - { offset: 0x168CB3, size: 0x8, addend: 0x0, symName: ___cxx_global_var_init.11, symObjAddr: 0xB628, symBinAddr: 0x35C48, symSize: 0x4C }
  - { offset: 0x168D4F, size: 0x8, addend: 0x0, symName: __ZN6sentry9SentrySDK16create_singletonEv, symObjAddr: 0x0, symBinAddr: 0x2E65C, symSize: 0x104 }
  - { offset: 0x168E1A, size: 0x8, addend: 0x0, symName: __ZN6sentry9SentrySDKC2Ev, symObjAddr: 0x2F2C, symBinAddr: 0x31588, symSize: 0x14C }
  - { offset: 0x169273, size: 0x8, addend: 0x0, symName: __ZN6sentry9SentrySDK16create_singletonEv.cold.2, symObjAddr: 0x9E10, symBinAddr: 0xE38DC, symSize: 0x20 }
  - { offset: 0x16928B, size: 0x8, addend: 0x0, symName: __ZN6sentry9SentrySDK16create_singletonEv.cold.1, symObjAddr: 0x9DB4, symBinAddr: 0xE3880, symSize: 0x5C }
  - { offset: 0x1692F8, size: 0x8, addend: 0x0, symName: __ZN6sentry9SentrySDKC1Ev, symObjAddr: 0x104, symBinAddr: 0x2E760, symSize: 0x4 }
  - { offset: 0x16931B, size: 0x8, addend: 0x0, symName: __ZN6sentry9SentrySDKC1Ev, symObjAddr: 0x104, symBinAddr: 0x2E760, symSize: 0x4 }
  - { offset: 0x16932E, size: 0x8, addend: 0x0, symName: __ZN6sentry9SentrySDK17destroy_singletonEv, symObjAddr: 0x108, symBinAddr: 0x2E764, symSize: 0xC8 }
  - { offset: 0x16937A, size: 0x8, addend: 0x0, symName: __ZN6sentry9SentrySDK17destroy_singletonEv.cold.1, symObjAddr: 0x9E30, symBinAddr: 0xE38FC, symSize: 0x20 }
  - { offset: 0x169739, size: 0x8, addend: 0x0, symName: __ZN6sentry9SentrySDK4initERKN5godot8CallableE, symObjAddr: 0x1D0, symBinAddr: 0x2E82C, symSize: 0x248 }
  - { offset: 0x169BB4, size: 0x8, addend: 0x0, symName: __ZN6sentry9SentrySDK23_get_global_attachmentsEv, symObjAddr: 0x418, symBinAddr: 0x2EA74, symSize: 0x318 }
  - { offset: 0x169ECF, size: 0x8, addend: 0x0, symName: __ZN6sentry9SentrySDK14_init_contextsEv, symObjAddr: 0x730, symBinAddr: 0x2ED8C, symSize: 0x1DC }
  - { offset: 0x16A0EC, size: 0x8, addend: 0x0, symName: __ZN5godot3RefIN6sentry12SentryLoggerEE11instantiateEv, symObjAddr: 0x90C, symBinAddr: 0x2EF68, symSize: 0x110 }
  - { offset: 0x16A27B, size: 0x8, addend: 0x0, symName: __ZN5godot6Object7cast_toINS_6LoggerEEEPT_PS0_, symObjAddr: 0x4690, symBinAddr: 0x31A2C, symSize: 0xE8 }
  - { offset: 0x16A311, size: 0x8, addend: 0x0, symName: __ZN6sentry9SentrySDK4initERKN5godot8CallableE.cold.1, symObjAddr: 0x9E50, symBinAddr: 0xE391C, symSize: 0x28 }
  - { offset: 0x16A497, size: 0x8, addend: 0x0, symName: __ZN5godot3RefIN6sentry12SentryLoggerEE11instantiateEv.cold.1, symObjAddr: 0x9E78, symBinAddr: 0xE3944, symSize: 0x5C }
  - { offset: 0x16A51A, size: 0x8, addend: 0x0, symName: __ZN6sentry9SentrySDK5closeEv, symObjAddr: 0xA1C, symBinAddr: 0x2F078, symSize: 0x138 }
  - { offset: 0x16A796, size: 0x8, addend: 0x0, symName: __ZN6sentry9SentrySDK15capture_messageERKN5godot6StringENS_5LevelE, symObjAddr: 0xB54, symBinAddr: 0x2F1B0, symSize: 0x10 }
  - { offset: 0x16A7DD, size: 0x8, addend: 0x0, symName: __ZN6sentry9SentrySDK15capture_messageERKN5godot6StringENS_5LevelE, symObjAddr: 0xB54, symBinAddr: 0x2F1B0, symSize: 0x10 }
  - { offset: 0x16A836, size: 0x8, addend: 0x0, symName: __ZN6sentry9SentrySDK14add_breadcrumbERKN5godot3RefINS_16SentryBreadcrumbEEE, symObjAddr: 0xB64, symBinAddr: 0x2F1C0, symSize: 0x2C }
  - { offset: 0x16A870, size: 0x8, addend: 0x0, symName: __ZN6sentry9SentrySDK14add_breadcrumbERKN5godot3RefINS_16SentryBreadcrumbEEE, symObjAddr: 0xB64, symBinAddr: 0x2F1C0, symSize: 0x2C }
  - { offset: 0x16A8C1, size: 0x8, addend: 0x0, symName: __ZN6sentry9SentrySDK14add_breadcrumbERKN5godot3RefINS_16SentryBreadcrumbEEE.cold.1, symObjAddr: 0x9ED4, symBinAddr: 0xE39A0, symSize: 0x28 }
  - { offset: 0x16A8D9, size: 0x8, addend: 0x0, symName: __ZNK6sentry9SentrySDK17get_last_event_idEv, symObjAddr: 0xB90, symBinAddr: 0x2F1EC, symSize: 0x10 }
  - { offset: 0x16A904, size: 0x8, addend: 0x0, symName: __ZNK6sentry9SentrySDK17get_last_event_idEv, symObjAddr: 0xB90, symBinAddr: 0x2F1EC, symSize: 0x10 }
  - { offset: 0x16A934, size: 0x8, addend: 0x0, symName: __ZNK6sentry9SentrySDK12create_eventEv, symObjAddr: 0xBA0, symBinAddr: 0x2F1FC, symSize: 0x10 }
  - { offset: 0x16A95F, size: 0x8, addend: 0x0, symName: __ZNK6sentry9SentrySDK12create_eventEv, symObjAddr: 0xBA0, symBinAddr: 0x2F1FC, symSize: 0x10 }
  - { offset: 0x16A9AA, size: 0x8, addend: 0x0, symName: __ZN6sentry9SentrySDK13capture_eventERKN5godot3RefINS_11SentryEventEEE, symObjAddr: 0xBB0, symBinAddr: 0x2F20C, symSize: 0x30 }
  - { offset: 0x16A9E4, size: 0x8, addend: 0x0, symName: __ZN6sentry9SentrySDK13capture_eventERKN5godot3RefINS_11SentryEventEEE, symObjAddr: 0xBB0, symBinAddr: 0x2F20C, symSize: 0x30 }
  - { offset: 0x16AA35, size: 0x8, addend: 0x0, symName: __ZN6sentry9SentrySDK13capture_eventERKN5godot3RefINS_11SentryEventEEE.cold.1, symObjAddr: 0x9EFC, symBinAddr: 0xE39C8, symSize: 0x58 }
  - { offset: 0x16AA68, size: 0x8, addend: 0x0, symName: __ZN6sentry9SentrySDK14add_attachmentERKN5godot3RefINS_16SentryAttachmentEEE, symObjAddr: 0xBE0, symBinAddr: 0x2F23C, symSize: 0x2C }
  - { offset: 0x16AAA2, size: 0x8, addend: 0x0, symName: __ZN6sentry9SentrySDK14add_attachmentERKN5godot3RefINS_16SentryAttachmentEEE, symObjAddr: 0xBE0, symBinAddr: 0x2F23C, symSize: 0x2C }
  - { offset: 0x16AAF3, size: 0x8, addend: 0x0, symName: __ZN6sentry9SentrySDK14add_attachmentERKN5godot3RefINS_16SentryAttachmentEEE.cold.1, symObjAddr: 0x9F54, symBinAddr: 0xE3A20, symSize: 0x28 }
  - { offset: 0x16AB0B, size: 0x8, addend: 0x0, symName: __ZN6sentry9SentrySDK7set_tagERKN5godot6StringES4_, symObjAddr: 0xC0C, symBinAddr: 0x2F268, symSize: 0x60 }
  - { offset: 0x16AB89, size: 0x8, addend: 0x0, symName: __ZN6sentry9SentrySDK7set_tagERKN5godot6StringES4_.cold.1, symObjAddr: 0x9F7C, symBinAddr: 0xE3A48, symSize: 0x28 }
  - { offset: 0x16ABA1, size: 0x8, addend: 0x0, symName: __ZN6sentry9SentrySDK10remove_tagERKN5godot6StringE, symObjAddr: 0xC6C, symBinAddr: 0x2F2C8, symSize: 0x4C }
  - { offset: 0x16AC10, size: 0x8, addend: 0x0, symName: __ZN6sentry9SentrySDK10remove_tagERKN5godot6StringE.cold.1, symObjAddr: 0x9FA4, symBinAddr: 0xE3A70, symSize: 0x28 }
  - { offset: 0x16AC28, size: 0x8, addend: 0x0, symName: __ZN6sentry9SentrySDK8set_userERKN5godot3RefINS_10SentryUserEEE, symObjAddr: 0xCB8, symBinAddr: 0x2F314, symSize: 0x10 }
  - { offset: 0x16AC61, size: 0x8, addend: 0x0, symName: __ZN6sentry9SentrySDK8set_userERKN5godot3RefINS_10SentryUserEEE, symObjAddr: 0xCB8, symBinAddr: 0x2F314, symSize: 0x10 }
  - { offset: 0x16AC91, size: 0x8, addend: 0x0, symName: __ZN6sentry9SentrySDK11remove_userEv, symObjAddr: 0xCC8, symBinAddr: 0x2F324, symSize: 0x10 }
  - { offset: 0x16ACBC, size: 0x8, addend: 0x0, symName: __ZN6sentry9SentrySDK11remove_userEv, symObjAddr: 0xCC8, symBinAddr: 0x2F324, symSize: 0x10 }
  - { offset: 0x16ACE4, size: 0x8, addend: 0x0, symName: __ZN6sentry9SentrySDK11set_contextERKN5godot6StringERKNS1_10DictionaryE, symObjAddr: 0xCD8, symBinAddr: 0x2F334, symSize: 0x60 }
  - { offset: 0x16AD62, size: 0x8, addend: 0x0, symName: __ZN6sentry9SentrySDK11set_contextERKN5godot6StringERKNS1_10DictionaryE.cold.1, symObjAddr: 0x9FCC, symBinAddr: 0xE3A98, symSize: 0x28 }
  - { offset: 0x16ADBC, size: 0x8, addend: 0x0, symName: __ZN6sentry9SentrySDK16_auto_initializeEv, symObjAddr: 0xD38, symBinAddr: 0x2F394, symSize: 0x384 }
  - { offset: 0x16B386, size: 0x8, addend: 0x0, symName: __ZN6sentry9SentrySDK22_demo_helper_crash_appEv, symObjAddr: 0x10BC, symBinAddr: 0x2F718, symSize: 0x88 }
  - { offset: 0x16B5C2, size: 0x8, addend: 0x0, symName: __ZN6sentry9SentrySDK27prepare_and_auto_initializeEv, symObjAddr: 0x1144, symBinAddr: 0x2F7A0, symSize: 0x340 }
  - { offset: 0x16BD4A, size: 0x8, addend: 0x0, symName: __ZN5godot3RefIN6sentry13RuntimeConfigEE11instantiateEv, symObjAddr: 0x1484, symBinAddr: 0x2FAE0, symSize: 0x110 }
  - { offset: 0x16BED9, size: 0x8, addend: 0x0, symName: __ZN6sentry9SentrySDK27prepare_and_auto_initializeEv.cold.1, symObjAddr: 0x9FF4, symBinAddr: 0xE3AC0, symSize: 0x58 }
  - { offset: 0x16BF48, size: 0x8, addend: 0x0, symName: __ZN6sentry9SentrySDK27prepare_and_auto_initializeEv.cold.2, symObjAddr: 0xA04C, symBinAddr: 0xE3B18, symSize: 0x58 }
  - { offset: 0x16C0BE, size: 0x8, addend: 0x0, symName: __ZN5godot3RefIN6sentry13RuntimeConfigEE11instantiateEv.cold.1, symObjAddr: 0xA0A4, symBinAddr: 0xE3B70, symSize: 0x5C }
  - { offset: 0x16C231, size: 0x8, addend: 0x0, symName: __ZN12_GLOBAL__N_124_verify_project_settingsEv, symObjAddr: 0x1594, symBinAddr: 0x2FBF0, symSize: 0x414 }
  - { offset: 0x16C5D0, size: 0x8, addend: 0x0, symName: __ZN12_GLOBAL__N_124_verify_project_settingsEv.cold.2, symObjAddr: 0xA120, symBinAddr: 0xE3BEC, symSize: 0x20 }
  - { offset: 0x16C5E8, size: 0x8, addend: 0x0, symName: __ZN12_GLOBAL__N_124_verify_project_settingsEv.cold.1, symObjAddr: 0xA100, symBinAddr: 0xE3BCC, symSize: 0x20 }
  - { offset: 0x16C600, size: 0x8, addend: 0x0, symName: __ZN6sentry9SentrySDK13_notificationEi, symObjAddr: 0x19A8, symBinAddr: 0x30004, symSize: 0xB8 }
  - { offset: 0x16D4F6, size: 0x8, addend: 0x0, symName: __ZN6sentry9SentrySDK13_bind_methodsEv, symObjAddr: 0x1A60, symBinAddr: 0x300BC, symSize: 0x1308 }
  - { offset: 0x1712DA, size: 0x8, addend: 0x0, symName: __ZN6sentry9SentrySDK13_bind_methodsEv.cold.1, symObjAddr: 0xA140, symBinAddr: 0xE3C0C, symSize: 0x5C }
  - { offset: 0x171309, size: 0x8, addend: 0x0, symName: __ZN6sentry9SentrySDK13_bind_methodsEv.cold.2, symObjAddr: 0xA19C, symBinAddr: 0xE3C68, symSize: 0x58 }
  - { offset: 0x171338, size: 0x8, addend: 0x0, symName: __ZN6sentry9SentrySDK13_bind_methodsEv.cold.3, symObjAddr: 0xA1F4, symBinAddr: 0xE3CC0, symSize: 0x58 }
  - { offset: 0x171367, size: 0x8, addend: 0x0, symName: __ZN6sentry9SentrySDK13_bind_methodsEv.cold.4, symObjAddr: 0xA24C, symBinAddr: 0xE3D18, symSize: 0x58 }
  - { offset: 0x171396, size: 0x8, addend: 0x0, symName: __ZN6sentry9SentrySDK13_bind_methodsEv.cold.5, symObjAddr: 0xA2A4, symBinAddr: 0xE3D70, symSize: 0x58 }
  - { offset: 0x1713C5, size: 0x8, addend: 0x0, symName: __ZNK6sentry9SentrySDK10is_enabledEv, symObjAddr: 0x2D68, symBinAddr: 0x313C4, symSize: 0x10 }
  - { offset: 0x1713EE, size: 0x8, addend: 0x0, symName: __ZNK6sentry9SentrySDK10is_enabledEv, symObjAddr: 0x2D68, symBinAddr: 0x313C4, symSize: 0x10 }
  - { offset: 0x171437, size: 0x8, addend: 0x0, symName: __ZN6sentry9SentrySDK15set_before_sendERKN5godot8CallableE, symObjAddr: 0x2D78, symBinAddr: 0x313D4, symSize: 0x78 }
  - { offset: 0x171564, size: 0x8, addend: 0x0, symName: __ZN6sentry9SentrySDK17unset_before_sendEv, symObjAddr: 0x2DF0, symBinAddr: 0x3144C, symSize: 0xC0 }
  - { offset: 0x171696, size: 0x8, addend: 0x0, symName: __ZN6sentry9SentrySDK15get_before_sendEv, symObjAddr: 0x2EB0, symBinAddr: 0x3150C, symSize: 0x7C }
  - { offset: 0x171B3F, size: 0x8, addend: 0x0, symName: __ZN6sentry9SentrySDKC2Ev.cold.2, symObjAddr: 0xA32C, symBinAddr: 0xE3DF8, symSize: 0x30 }
  - { offset: 0x171B57, size: 0x8, addend: 0x0, symName: __ZN6sentry9SentrySDKC2Ev.cold.1, symObjAddr: 0xA2FC, symBinAddr: 0xE3DC8, symSize: 0x30 }
  - { offset: 0x171C49, size: 0x8, addend: 0x0, symName: __ZN6sentry9SentrySDKD2Ev, symObjAddr: 0x3078, symBinAddr: 0x316D4, symSize: 0x130 }
  - { offset: 0x172012, size: 0x8, addend: 0x0, symName: __ZN6sentry9SentrySDKD2Ev.cold.1, symObjAddr: 0xA35C, symBinAddr: 0xE3E28, symSize: 0x1C }
  - { offset: 0x17202E, size: 0x8, addend: 0x0, symName: __ZN6sentry9SentrySDKD2Ev.cold.1, symObjAddr: 0xA35C, symBinAddr: 0xE3E28, symSize: 0x1C }
  - { offset: 0x172043, size: 0x8, addend: 0x0, symName: __ZN6sentry9SentrySDKD2Ev.cold.1, symObjAddr: 0xA35C, symBinAddr: 0xE3E28, symSize: 0x1C }
  - { offset: 0x172057, size: 0x8, addend: 0x0, symName: __ZN6sentry9SentrySDKD2Ev.cold.1, symObjAddr: 0xA35C, symBinAddr: 0xE3E28, symSize: 0x1C }
  - { offset: 0x17206C, size: 0x8, addend: 0x0, symName: __ZN6sentry9SentrySDKD2Ev.cold.1, symObjAddr: 0xA35C, symBinAddr: 0xE3E28, symSize: 0x1C }
  - { offset: 0x172082, size: 0x8, addend: 0x0, symName: __ZN6sentry9SentrySDKD1Ev, symObjAddr: 0x31A8, symBinAddr: 0x31804, symSize: 0x4 }
  - { offset: 0x1720A5, size: 0x8, addend: 0x0, symName: __ZN6sentry9SentrySDKD1Ev, symObjAddr: 0x31A8, symBinAddr: 0x31804, symSize: 0x4 }
  - { offset: 0x1720D5, size: 0x8, addend: 0x0, symName: __ZN6sentry9SentrySDKD0Ev, symObjAddr: 0x31AC, symBinAddr: 0x31808, symSize: 0x14 }
  - { offset: 0x172135, size: 0x8, addend: 0x0, symName: __ZNK6sentry9SentrySDK19_is_extension_classEv, symObjAddr: 0x31C0, symBinAddr: 0x3181C, symSize: 0x8 }
  - { offset: 0x17215C, size: 0x8, addend: 0x0, symName: __ZN5godot6ObjectD1Ev.cold.1, symObjAddr: 0xA378, symBinAddr: 0xE3E44, symSize: 0x1C }
  - { offset: 0x172177, size: 0x8, addend: 0x0, symName: __ZN5godot6ObjectD1Ev.cold.1, symObjAddr: 0xA378, symBinAddr: 0xE3E44, symSize: 0x1C }
  - { offset: 0x17218B, size: 0x8, addend: 0x0, symName: __ZN5godot6ObjectD1Ev.cold.1, symObjAddr: 0xA378, symBinAddr: 0xE3E44, symSize: 0x1C }
  - { offset: 0x17219F, size: 0x8, addend: 0x0, symName: __ZN5godot6ObjectD1Ev.cold.1, symObjAddr: 0xA378, symBinAddr: 0xE3E44, symSize: 0x1C }
  - { offset: 0x1721B4, size: 0x8, addend: 0x0, symName: __ZN5godot6ObjectD1Ev.cold.1, symObjAddr: 0xA378, symBinAddr: 0xE3E44, symSize: 0x1C }
  - { offset: 0x1721E4, size: 0x8, addend: 0x0, symName: __ZN5godot6ObjectD0Ev.cold.1, symObjAddr: 0xA394, symBinAddr: 0xE3E60, symSize: 0x1C }
  - { offset: 0x1721FF, size: 0x8, addend: 0x0, symName: __ZN5godot6ObjectD0Ev.cold.1, symObjAddr: 0xA394, symBinAddr: 0xE3E60, symSize: 0x1C }
  - { offset: 0x172213, size: 0x8, addend: 0x0, symName: __ZN5godot6ObjectD0Ev.cold.1, symObjAddr: 0xA394, symBinAddr: 0xE3E60, symSize: 0x1C }
  - { offset: 0x172227, size: 0x8, addend: 0x0, symName: __ZN5godot6ObjectD0Ev.cold.1, symObjAddr: 0xA394, symBinAddr: 0xE3E60, symSize: 0x1C }
  - { offset: 0x17223B, size: 0x8, addend: 0x0, symName: __ZN5godot6ObjectD0Ev.cold.1, symObjAddr: 0xA394, symBinAddr: 0xE3E60, symSize: 0x1C }
  - { offset: 0x172250, size: 0x8, addend: 0x0, symName: __ZN5godot6ObjectD0Ev.cold.1, symObjAddr: 0xA394, symBinAddr: 0xE3E60, symSize: 0x1C }
  - { offset: 0x172267, size: 0x8, addend: 0x0, symName: __ZN5godot7WrappedD1Ev.cold.1, symObjAddr: 0xA3B0, symBinAddr: 0xE3E7C, symSize: 0x1C }
  - { offset: 0x172282, size: 0x8, addend: 0x0, symName: __ZN5godot7WrappedD1Ev.cold.1, symObjAddr: 0xA3B0, symBinAddr: 0xE3E7C, symSize: 0x1C }
  - { offset: 0x172296, size: 0x8, addend: 0x0, symName: __ZN5godot7WrappedD1Ev.cold.1, symObjAddr: 0xA3B0, symBinAddr: 0xE3E7C, symSize: 0x1C }
  - { offset: 0x1722AB, size: 0x8, addend: 0x0, symName: __ZN5godot7WrappedD1Ev.cold.1, symObjAddr: 0xA3B0, symBinAddr: 0xE3E7C, symSize: 0x1C }
  - { offset: 0x1722DA, size: 0x8, addend: 0x0, symName: __ZN5godot7WrappedD0Ev.cold.1, symObjAddr: 0xA3CC, symBinAddr: 0xE3E98, symSize: 0x1C }
  - { offset: 0x1722F5, size: 0x8, addend: 0x0, symName: __ZN5godot7WrappedD0Ev.cold.1, symObjAddr: 0xA3CC, symBinAddr: 0xE3E98, symSize: 0x1C }
  - { offset: 0x172309, size: 0x8, addend: 0x0, symName: __ZN5godot7WrappedD0Ev.cold.1, symObjAddr: 0xA3CC, symBinAddr: 0xE3E98, symSize: 0x1C }
  - { offset: 0x17231D, size: 0x8, addend: 0x0, symName: __ZN5godot7WrappedD0Ev.cold.1, symObjAddr: 0xA3CC, symBinAddr: 0xE3E98, symSize: 0x1C }
  - { offset: 0x172332, size: 0x8, addend: 0x0, symName: __ZN5godot7WrappedD0Ev.cold.1, symObjAddr: 0xA3CC, symBinAddr: 0xE3E98, symSize: 0x1C }
  - { offset: 0x172380, size: 0x8, addend: 0x0, symName: __ZN5godot4ListINS_12PropertyInfoENS_16DefaultAllocatorEE5_Data5eraseEPNS3_7ElementE.cold.2, symObjAddr: 0xA408, symBinAddr: 0xE3ED4, symSize: 0x20 }
  - { offset: 0x172398, size: 0x8, addend: 0x0, symName: __ZN5godot4ListINS_12PropertyInfoENS_16DefaultAllocatorEE5_Data5eraseEPNS3_7ElementE.cold.1, symObjAddr: 0xA3E8, symBinAddr: 0xE3EB4, symSize: 0x20 }
  - { offset: 0x1723B7, size: 0x8, addend: 0x0, symName: __ZN5godot8internal23EngineClassRegistrationINS_6ObjectEE8callbackEv.cold.1, symObjAddr: 0xA428, symBinAddr: 0xE3EF4, symSize: 0x5C }
  - { offset: 0x172411, size: 0x8, addend: 0x0, symName: __ZN5godot8internal23EngineClassRegistrationINS_16ClassDBSingletonEE8callbackEv.cold.1, symObjAddr: 0xA484, symBinAddr: 0xE3F50, symSize: 0x5C }
  - { offset: 0x172446, size: 0x8, addend: 0x0, symName: __ZN5godot8internal23EngineClassRegistrationINS_10RefCountedEE8callbackEv.cold.1, symObjAddr: 0xA4E0, symBinAddr: 0xE3FAC, symSize: 0x5C }
  - { offset: 0x1724B5, size: 0x8, addend: 0x0, symName: __ZN5godot10RefCountedD1Ev.cold.1, symObjAddr: 0xA53C, symBinAddr: 0xE4008, symSize: 0x1C }
  - { offset: 0x1724D0, size: 0x8, addend: 0x0, symName: __ZN5godot10RefCountedD1Ev.cold.1, symObjAddr: 0xA53C, symBinAddr: 0xE4008, symSize: 0x1C }
  - { offset: 0x1724E4, size: 0x8, addend: 0x0, symName: __ZN5godot10RefCountedD1Ev.cold.1, symObjAddr: 0xA53C, symBinAddr: 0xE4008, symSize: 0x1C }
  - { offset: 0x1724F8, size: 0x8, addend: 0x0, symName: __ZN5godot10RefCountedD1Ev.cold.1, symObjAddr: 0xA53C, symBinAddr: 0xE4008, symSize: 0x1C }
  - { offset: 0x17250C, size: 0x8, addend: 0x0, symName: __ZN5godot10RefCountedD1Ev.cold.1, symObjAddr: 0xA53C, symBinAddr: 0xE4008, symSize: 0x1C }
  - { offset: 0x172521, size: 0x8, addend: 0x0, symName: __ZN5godot10RefCountedD1Ev.cold.1, symObjAddr: 0xA53C, symBinAddr: 0xE4008, symSize: 0x1C }
  - { offset: 0x172554, size: 0x8, addend: 0x0, symName: __ZN5godot10RefCountedD0Ev.cold.1, symObjAddr: 0xA558, symBinAddr: 0xE4024, symSize: 0x1C }
  - { offset: 0x17256F, size: 0x8, addend: 0x0, symName: __ZN5godot10RefCountedD0Ev.cold.1, symObjAddr: 0xA558, symBinAddr: 0xE4024, symSize: 0x1C }
  - { offset: 0x172583, size: 0x8, addend: 0x0, symName: __ZN5godot10RefCountedD0Ev.cold.1, symObjAddr: 0xA558, symBinAddr: 0xE4024, symSize: 0x1C }
  - { offset: 0x172597, size: 0x8, addend: 0x0, symName: __ZN5godot10RefCountedD0Ev.cold.1, symObjAddr: 0xA558, symBinAddr: 0xE4024, symSize: 0x1C }
  - { offset: 0x1725AB, size: 0x8, addend: 0x0, symName: __ZN5godot10RefCountedD0Ev.cold.1, symObjAddr: 0xA558, symBinAddr: 0xE4024, symSize: 0x1C }
  - { offset: 0x1725BF, size: 0x8, addend: 0x0, symName: __ZN5godot10RefCountedD0Ev.cold.1, symObjAddr: 0xA558, symBinAddr: 0xE4024, symSize: 0x1C }
  - { offset: 0x1725D4, size: 0x8, addend: 0x0, symName: __ZN5godot10RefCountedD0Ev.cold.1, symObjAddr: 0xA558, symBinAddr: 0xE4024, symSize: 0x1C }
  - { offset: 0x1725F3, size: 0x8, addend: 0x0, symName: __ZN5godot8internal23EngineClassRegistrationINS_10ConfigFileEE8callbackEv.cold.1, symObjAddr: 0xA574, symBinAddr: 0xE4040, symSize: 0x5C }
  - { offset: 0x17263D, size: 0x8, addend: 0x0, symName: __ZN5godot10ConfigFileD1Ev.cold.1, symObjAddr: 0xA5D0, symBinAddr: 0xE409C, symSize: 0x1C }
  - { offset: 0x172658, size: 0x8, addend: 0x0, symName: __ZN5godot10ConfigFileD1Ev.cold.1, symObjAddr: 0xA5D0, symBinAddr: 0xE409C, symSize: 0x1C }
  - { offset: 0x17266C, size: 0x8, addend: 0x0, symName: __ZN5godot10ConfigFileD1Ev.cold.1, symObjAddr: 0xA5D0, symBinAddr: 0xE409C, symSize: 0x1C }
  - { offset: 0x172680, size: 0x8, addend: 0x0, symName: __ZN5godot10ConfigFileD1Ev.cold.1, symObjAddr: 0xA5D0, symBinAddr: 0xE409C, symSize: 0x1C }
  - { offset: 0x172694, size: 0x8, addend: 0x0, symName: __ZN5godot10ConfigFileD1Ev.cold.1, symObjAddr: 0xA5D0, symBinAddr: 0xE409C, symSize: 0x1C }
  - { offset: 0x1726A8, size: 0x8, addend: 0x0, symName: __ZN5godot10ConfigFileD1Ev.cold.1, symObjAddr: 0xA5D0, symBinAddr: 0xE409C, symSize: 0x1C }
  - { offset: 0x1726BD, size: 0x8, addend: 0x0, symName: __ZN5godot10ConfigFileD1Ev.cold.1, symObjAddr: 0xA5D0, symBinAddr: 0xE409C, symSize: 0x1C }
  - { offset: 0x1726F1, size: 0x8, addend: 0x0, symName: __ZN5godot10ConfigFileD0Ev.cold.1, symObjAddr: 0xA5EC, symBinAddr: 0xE40B8, symSize: 0x1C }
  - { offset: 0x17270C, size: 0x8, addend: 0x0, symName: __ZN5godot10ConfigFileD0Ev.cold.1, symObjAddr: 0xA5EC, symBinAddr: 0xE40B8, symSize: 0x1C }
  - { offset: 0x172720, size: 0x8, addend: 0x0, symName: __ZN5godot10ConfigFileD0Ev.cold.1, symObjAddr: 0xA5EC, symBinAddr: 0xE40B8, symSize: 0x1C }
  - { offset: 0x172734, size: 0x8, addend: 0x0, symName: __ZN5godot10ConfigFileD0Ev.cold.1, symObjAddr: 0xA5EC, symBinAddr: 0xE40B8, symSize: 0x1C }
  - { offset: 0x172748, size: 0x8, addend: 0x0, symName: __ZN5godot10ConfigFileD0Ev.cold.1, symObjAddr: 0xA5EC, symBinAddr: 0xE40B8, symSize: 0x1C }
  - { offset: 0x17275C, size: 0x8, addend: 0x0, symName: __ZN5godot10ConfigFileD0Ev.cold.1, symObjAddr: 0xA5EC, symBinAddr: 0xE40B8, symSize: 0x1C }
  - { offset: 0x172770, size: 0x8, addend: 0x0, symName: __ZN5godot10ConfigFileD0Ev.cold.1, symObjAddr: 0xA5EC, symBinAddr: 0xE40B8, symSize: 0x1C }
  - { offset: 0x172785, size: 0x8, addend: 0x0, symName: __ZN5godot10ConfigFileD0Ev.cold.1, symObjAddr: 0xA5EC, symBinAddr: 0xE40B8, symSize: 0x1C }
  - { offset: 0x1727A5, size: 0x8, addend: 0x0, symName: __ZN5godot8internal23EngineClassRegistrationINS_6LoggerEE8callbackEv.cold.1, symObjAddr: 0xA608, symBinAddr: 0xE40D4, symSize: 0x5C }
  - { offset: 0x1727DA, size: 0x8, addend: 0x0, symName: __ZN5godot8internal23EngineClassRegistrationINS_15ScriptBacktraceEE8callbackEv.cold.1, symObjAddr: 0xA664, symBinAddr: 0xE4130, symSize: 0x5C }
  - { offset: 0x172824, size: 0x8, addend: 0x0, symName: __ZN5godot15ScriptBacktraceD1Ev.cold.1, symObjAddr: 0xA6C0, symBinAddr: 0xE418C, symSize: 0x1C }
  - { offset: 0x17283F, size: 0x8, addend: 0x0, symName: __ZN5godot15ScriptBacktraceD1Ev.cold.1, symObjAddr: 0xA6C0, symBinAddr: 0xE418C, symSize: 0x1C }
  - { offset: 0x172853, size: 0x8, addend: 0x0, symName: __ZN5godot15ScriptBacktraceD1Ev.cold.1, symObjAddr: 0xA6C0, symBinAddr: 0xE418C, symSize: 0x1C }
  - { offset: 0x172867, size: 0x8, addend: 0x0, symName: __ZN5godot15ScriptBacktraceD1Ev.cold.1, symObjAddr: 0xA6C0, symBinAddr: 0xE418C, symSize: 0x1C }
  - { offset: 0x17287B, size: 0x8, addend: 0x0, symName: __ZN5godot15ScriptBacktraceD1Ev.cold.1, symObjAddr: 0xA6C0, symBinAddr: 0xE418C, symSize: 0x1C }
  - { offset: 0x17288F, size: 0x8, addend: 0x0, symName: __ZN5godot15ScriptBacktraceD1Ev.cold.1, symObjAddr: 0xA6C0, symBinAddr: 0xE418C, symSize: 0x1C }
  - { offset: 0x1728A4, size: 0x8, addend: 0x0, symName: __ZN5godot15ScriptBacktraceD1Ev.cold.1, symObjAddr: 0xA6C0, symBinAddr: 0xE418C, symSize: 0x1C }
  - { offset: 0x1728D8, size: 0x8, addend: 0x0, symName: __ZN5godot15ScriptBacktraceD0Ev.cold.1, symObjAddr: 0xA6DC, symBinAddr: 0xE41A8, symSize: 0x1C }
  - { offset: 0x1728F3, size: 0x8, addend: 0x0, symName: __ZN5godot15ScriptBacktraceD0Ev.cold.1, symObjAddr: 0xA6DC, symBinAddr: 0xE41A8, symSize: 0x1C }
  - { offset: 0x172907, size: 0x8, addend: 0x0, symName: __ZN5godot15ScriptBacktraceD0Ev.cold.1, symObjAddr: 0xA6DC, symBinAddr: 0xE41A8, symSize: 0x1C }
  - { offset: 0x17291B, size: 0x8, addend: 0x0, symName: __ZN5godot15ScriptBacktraceD0Ev.cold.1, symObjAddr: 0xA6DC, symBinAddr: 0xE41A8, symSize: 0x1C }
  - { offset: 0x17292F, size: 0x8, addend: 0x0, symName: __ZN5godot15ScriptBacktraceD0Ev.cold.1, symObjAddr: 0xA6DC, symBinAddr: 0xE41A8, symSize: 0x1C }
  - { offset: 0x172943, size: 0x8, addend: 0x0, symName: __ZN5godot15ScriptBacktraceD0Ev.cold.1, symObjAddr: 0xA6DC, symBinAddr: 0xE41A8, symSize: 0x1C }
  - { offset: 0x172957, size: 0x8, addend: 0x0, symName: __ZN5godot15ScriptBacktraceD0Ev.cold.1, symObjAddr: 0xA6DC, symBinAddr: 0xE41A8, symSize: 0x1C }
  - { offset: 0x17296C, size: 0x8, addend: 0x0, symName: __ZN5godot15ScriptBacktraceD0Ev.cold.1, symObjAddr: 0xA6DC, symBinAddr: 0xE41A8, symSize: 0x1C }
  - { offset: 0x17298C, size: 0x8, addend: 0x0, symName: __ZN5godot8internal23EngineClassRegistrationINS_5MutexEE8callbackEv.cold.1, symObjAddr: 0xA6F8, symBinAddr: 0xE41C4, symSize: 0x5C }
  - { offset: 0x1729D6, size: 0x8, addend: 0x0, symName: __ZN5godot5MutexD1Ev.cold.1, symObjAddr: 0xA754, symBinAddr: 0xE4220, symSize: 0x1C }
  - { offset: 0x1729F1, size: 0x8, addend: 0x0, symName: __ZN5godot5MutexD1Ev.cold.1, symObjAddr: 0xA754, symBinAddr: 0xE4220, symSize: 0x1C }
  - { offset: 0x172A05, size: 0x8, addend: 0x0, symName: __ZN5godot5MutexD1Ev.cold.1, symObjAddr: 0xA754, symBinAddr: 0xE4220, symSize: 0x1C }
  - { offset: 0x172A19, size: 0x8, addend: 0x0, symName: __ZN5godot5MutexD1Ev.cold.1, symObjAddr: 0xA754, symBinAddr: 0xE4220, symSize: 0x1C }
  - { offset: 0x172A2D, size: 0x8, addend: 0x0, symName: __ZN5godot5MutexD1Ev.cold.1, symObjAddr: 0xA754, symBinAddr: 0xE4220, symSize: 0x1C }
  - { offset: 0x172A41, size: 0x8, addend: 0x0, symName: __ZN5godot5MutexD1Ev.cold.1, symObjAddr: 0xA754, symBinAddr: 0xE4220, symSize: 0x1C }
  - { offset: 0x172A56, size: 0x8, addend: 0x0, symName: __ZN5godot5MutexD1Ev.cold.1, symObjAddr: 0xA754, symBinAddr: 0xE4220, symSize: 0x1C }
  - { offset: 0x172A8A, size: 0x8, addend: 0x0, symName: __ZN5godot5MutexD0Ev.cold.1, symObjAddr: 0xA770, symBinAddr: 0xE423C, symSize: 0x1C }
  - { offset: 0x172AA5, size: 0x8, addend: 0x0, symName: __ZN5godot5MutexD0Ev.cold.1, symObjAddr: 0xA770, symBinAddr: 0xE423C, symSize: 0x1C }
  - { offset: 0x172AB9, size: 0x8, addend: 0x0, symName: __ZN5godot5MutexD0Ev.cold.1, symObjAddr: 0xA770, symBinAddr: 0xE423C, symSize: 0x1C }
  - { offset: 0x172ACD, size: 0x8, addend: 0x0, symName: __ZN5godot5MutexD0Ev.cold.1, symObjAddr: 0xA770, symBinAddr: 0xE423C, symSize: 0x1C }
  - { offset: 0x172AE1, size: 0x8, addend: 0x0, symName: __ZN5godot5MutexD0Ev.cold.1, symObjAddr: 0xA770, symBinAddr: 0xE423C, symSize: 0x1C }
  - { offset: 0x172AF5, size: 0x8, addend: 0x0, symName: __ZN5godot5MutexD0Ev.cold.1, symObjAddr: 0xA770, symBinAddr: 0xE423C, symSize: 0x1C }
  - { offset: 0x172B09, size: 0x8, addend: 0x0, symName: __ZN5godot5MutexD0Ev.cold.1, symObjAddr: 0xA770, symBinAddr: 0xE423C, symSize: 0x1C }
  - { offset: 0x172B1E, size: 0x8, addend: 0x0, symName: __ZN5godot5MutexD0Ev.cold.1, symObjAddr: 0xA770, symBinAddr: 0xE423C, symSize: 0x1C }
  - { offset: 0x172B3E, size: 0x8, addend: 0x0, symName: __ZN5godot8internal23EngineClassRegistrationINS_9DirAccessEE8callbackEv.cold.1, symObjAddr: 0xA78C, symBinAddr: 0xE4258, symSize: 0x5C }
  - { offset: 0x172B88, size: 0x8, addend: 0x0, symName: __ZN5godot9DirAccessD1Ev.cold.1, symObjAddr: 0xA7E8, symBinAddr: 0xE42B4, symSize: 0x1C }
  - { offset: 0x172BA3, size: 0x8, addend: 0x0, symName: __ZN5godot9DirAccessD1Ev.cold.1, symObjAddr: 0xA7E8, symBinAddr: 0xE42B4, symSize: 0x1C }
  - { offset: 0x172BB7, size: 0x8, addend: 0x0, symName: __ZN5godot9DirAccessD1Ev.cold.1, symObjAddr: 0xA7E8, symBinAddr: 0xE42B4, symSize: 0x1C }
  - { offset: 0x172BCB, size: 0x8, addend: 0x0, symName: __ZN5godot9DirAccessD1Ev.cold.1, symObjAddr: 0xA7E8, symBinAddr: 0xE42B4, symSize: 0x1C }
  - { offset: 0x172BDF, size: 0x8, addend: 0x0, symName: __ZN5godot9DirAccessD1Ev.cold.1, symObjAddr: 0xA7E8, symBinAddr: 0xE42B4, symSize: 0x1C }
  - { offset: 0x172BF3, size: 0x8, addend: 0x0, symName: __ZN5godot9DirAccessD1Ev.cold.1, symObjAddr: 0xA7E8, symBinAddr: 0xE42B4, symSize: 0x1C }
  - { offset: 0x172C08, size: 0x8, addend: 0x0, symName: __ZN5godot9DirAccessD1Ev.cold.1, symObjAddr: 0xA7E8, symBinAddr: 0xE42B4, symSize: 0x1C }
  - { offset: 0x172C3C, size: 0x8, addend: 0x0, symName: __ZN5godot9DirAccessD0Ev.cold.1, symObjAddr: 0xA804, symBinAddr: 0xE42D0, symSize: 0x1C }
  - { offset: 0x172C57, size: 0x8, addend: 0x0, symName: __ZN5godot9DirAccessD0Ev.cold.1, symObjAddr: 0xA804, symBinAddr: 0xE42D0, symSize: 0x1C }
  - { offset: 0x172C6B, size: 0x8, addend: 0x0, symName: __ZN5godot9DirAccessD0Ev.cold.1, symObjAddr: 0xA804, symBinAddr: 0xE42D0, symSize: 0x1C }
  - { offset: 0x172C7F, size: 0x8, addend: 0x0, symName: __ZN5godot9DirAccessD0Ev.cold.1, symObjAddr: 0xA804, symBinAddr: 0xE42D0, symSize: 0x1C }
  - { offset: 0x172C93, size: 0x8, addend: 0x0, symName: __ZN5godot9DirAccessD0Ev.cold.1, symObjAddr: 0xA804, symBinAddr: 0xE42D0, symSize: 0x1C }
  - { offset: 0x172CA7, size: 0x8, addend: 0x0, symName: __ZN5godot9DirAccessD0Ev.cold.1, symObjAddr: 0xA804, symBinAddr: 0xE42D0, symSize: 0x1C }
  - { offset: 0x172CBB, size: 0x8, addend: 0x0, symName: __ZN5godot9DirAccessD0Ev.cold.1, symObjAddr: 0xA804, symBinAddr: 0xE42D0, symSize: 0x1C }
  - { offset: 0x172CD0, size: 0x8, addend: 0x0, symName: __ZN5godot9DirAccessD0Ev.cold.1, symObjAddr: 0xA804, symBinAddr: 0xE42D0, symSize: 0x1C }
  - { offset: 0x172CF0, size: 0x8, addend: 0x0, symName: __ZN5godot8internal23EngineClassRegistrationINS_6EngineEE8callbackEv.cold.1, symObjAddr: 0xA820, symBinAddr: 0xE42EC, symSize: 0x5C }
  - { offset: 0x172D25, size: 0x8, addend: 0x0, symName: __ZN5godot8internal23EngineClassRegistrationINS_10FileAccessEE8callbackEv, symObjAddr: 0x40C8, symBinAddr: 0x31824, symSize: 0x48 }
  - { offset: 0x172D6F, size: 0x8, addend: 0x0, symName: __ZN5godot8internal23EngineClassRegistrationINS_10FileAccessEE8callbackEv.cold.1, symObjAddr: 0xA87C, symBinAddr: 0xE4348, symSize: 0x5C }
  - { offset: 0x172DE7, size: 0x8, addend: 0x0, symName: __ZN5godot10FileAccess28_gde_binding_create_callbackEPvS1_, symObjAddr: 0x4110, symBinAddr: 0x3186C, symSize: 0x44 }
  - { offset: 0x172EA6, size: 0x8, addend: 0x0, symName: __ZN5godot10FileAccess26_gde_binding_free_callbackEPvS1_S1_, symObjAddr: 0x4154, symBinAddr: 0x318B0, symSize: 0x34 }
  - { offset: 0x172EFB, size: 0x8, addend: 0x0, symName: __ZN5godot10FileAccess31_gde_binding_reference_callbackEPvS1_h, symObjAddr: 0x4188, symBinAddr: 0x318E4, symSize: 0x8 }
  - { offset: 0x172F57, size: 0x8, addend: 0x0, symName: __ZN5godot10FileAccessD1Ev, symObjAddr: 0x4190, symBinAddr: 0x318EC, symSize: 0x8C }
  - { offset: 0x1730F5, size: 0x8, addend: 0x0, symName: __ZN5godot10FileAccessD1Ev.cold.1, symObjAddr: 0xA8D8, symBinAddr: 0xE43A4, symSize: 0x1C }
  - { offset: 0x173110, size: 0x8, addend: 0x0, symName: __ZN5godot10FileAccessD1Ev.cold.1, symObjAddr: 0xA8D8, symBinAddr: 0xE43A4, symSize: 0x1C }
  - { offset: 0x173124, size: 0x8, addend: 0x0, symName: __ZN5godot10FileAccessD1Ev.cold.1, symObjAddr: 0xA8D8, symBinAddr: 0xE43A4, symSize: 0x1C }
  - { offset: 0x173138, size: 0x8, addend: 0x0, symName: __ZN5godot10FileAccessD1Ev.cold.1, symObjAddr: 0xA8D8, symBinAddr: 0xE43A4, symSize: 0x1C }
  - { offset: 0x17314C, size: 0x8, addend: 0x0, symName: __ZN5godot10FileAccessD1Ev.cold.1, symObjAddr: 0xA8D8, symBinAddr: 0xE43A4, symSize: 0x1C }
  - { offset: 0x173160, size: 0x8, addend: 0x0, symName: __ZN5godot10FileAccessD1Ev.cold.1, symObjAddr: 0xA8D8, symBinAddr: 0xE43A4, symSize: 0x1C }
  - { offset: 0x173175, size: 0x8, addend: 0x0, symName: __ZN5godot10FileAccessD1Ev.cold.1, symObjAddr: 0xA8D8, symBinAddr: 0xE43A4, symSize: 0x1C }
  - { offset: 0x1731A9, size: 0x8, addend: 0x0, symName: __ZN5godot10FileAccessD0Ev, symObjAddr: 0x421C, symBinAddr: 0x31978, symSize: 0x74 }
  - { offset: 0x1732F4, size: 0x8, addend: 0x0, symName: __ZN5godot10FileAccessD0Ev.cold.1, symObjAddr: 0xA8F4, symBinAddr: 0xE43C0, symSize: 0x1C }
  - { offset: 0x17330F, size: 0x8, addend: 0x0, symName: __ZN5godot10FileAccessD0Ev.cold.1, symObjAddr: 0xA8F4, symBinAddr: 0xE43C0, symSize: 0x1C }
  - { offset: 0x173323, size: 0x8, addend: 0x0, symName: __ZN5godot10FileAccessD0Ev.cold.1, symObjAddr: 0xA8F4, symBinAddr: 0xE43C0, symSize: 0x1C }
  - { offset: 0x173337, size: 0x8, addend: 0x0, symName: __ZN5godot10FileAccessD0Ev.cold.1, symObjAddr: 0xA8F4, symBinAddr: 0xE43C0, symSize: 0x1C }
  - { offset: 0x17334B, size: 0x8, addend: 0x0, symName: __ZN5godot10FileAccessD0Ev.cold.1, symObjAddr: 0xA8F4, symBinAddr: 0xE43C0, symSize: 0x1C }
  - { offset: 0x17335F, size: 0x8, addend: 0x0, symName: __ZN5godot10FileAccessD0Ev.cold.1, symObjAddr: 0xA8F4, symBinAddr: 0xE43C0, symSize: 0x1C }
  - { offset: 0x173373, size: 0x8, addend: 0x0, symName: __ZN5godot10FileAccessD0Ev.cold.1, symObjAddr: 0xA8F4, symBinAddr: 0xE43C0, symSize: 0x1C }
  - { offset: 0x173388, size: 0x8, addend: 0x0, symName: __ZN5godot10FileAccessD0Ev.cold.1, symObjAddr: 0xA8F4, symBinAddr: 0xE43C0, symSize: 0x1C }
  - { offset: 0x1733A8, size: 0x8, addend: 0x0, symName: __ZN5godot8internal23EngineClassRegistrationINS_2OSEE8callbackEv.cold.1, symObjAddr: 0xA910, symBinAddr: 0xE43DC, symSize: 0x5C }
  - { offset: 0x1733DD, size: 0x8, addend: 0x0, symName: __ZN5godot8internal23EngineClassRegistrationINS_15ProjectSettingsEE8callbackEv.cold.1, symObjAddr: 0xA96C, symBinAddr: 0xE4438, symSize: 0x5C }
  - { offset: 0x173531, size: 0x8, addend: 0x0, symName: __ZNK5godot27CallableCustomMethodPointerIN6sentry9SentrySDKEJEE10get_objectEv, symObjAddr: 0x463C, symBinAddr: 0x319EC, symSize: 0x8 }
  - { offset: 0x173558, size: 0x8, addend: 0x0, symName: __ZNK5godot27CallableCustomMethodPointerIN6sentry9SentrySDKEJEE18get_argument_countERb, symObjAddr: 0x4644, symBinAddr: 0x319F4, symSize: 0x10 }
  - { offset: 0x17358D, size: 0x8, addend: 0x0, symName: __ZNK5godot27CallableCustomMethodPointerIN6sentry9SentrySDKEJEE4callEPPKNS_7VariantEiRS4_R20GDExtensionCallError, symObjAddr: 0x4654, symBinAddr: 0x31A04, symSize: 0x20 }
  - { offset: 0x17364E, size: 0x8, addend: 0x0, symName: __ZN5godot27CallableCustomMethodPointerIN6sentry9SentrySDKEJEED1Ev, symObjAddr: 0x4674, symBinAddr: 0x31A24, symSize: 0x4 }
  - { offset: 0x173679, size: 0x8, addend: 0x0, symName: __ZN5godot27CallableCustomMethodPointerIN6sentry9SentrySDKEJEED0Ev, symObjAddr: 0x4678, symBinAddr: 0x31A28, symSize: 0x4 }
  - { offset: 0x1736A4, size: 0x8, addend: 0x0, symName: __ZN5godot6Object7cast_toINS_6LoggerEEEPT_PS0_.cold.1, symObjAddr: 0xA9C8, symBinAddr: 0xE4494, symSize: 0x5C }
  - { offset: 0x173804, size: 0x8, addend: 0x0, symName: __ZNK5godot33CallableCustomStaticMethodPointerIJEE10get_objectEv, symObjAddr: 0x49E8, symBinAddr: 0x31D70, symSize: 0x8 }
  - { offset: 0x17382B, size: 0x8, addend: 0x0, symName: __ZNK5godot33CallableCustomStaticMethodPointerIJEE18get_argument_countERb, symObjAddr: 0x49F0, symBinAddr: 0x31D78, symSize: 0x10 }
  - { offset: 0x173860, size: 0x8, addend: 0x0, symName: __ZNK5godot33CallableCustomStaticMethodPointerIJEE4callEPPKNS_7VariantEiRS2_R20GDExtensionCallError, symObjAddr: 0x4A00, symBinAddr: 0x31D88, symSize: 0x78 }
  - { offset: 0x17391E, size: 0x8, addend: 0x0, symName: __ZN5godot33CallableCustomStaticMethodPointerIJEED1Ev, symObjAddr: 0x4A78, symBinAddr: 0x31E00, symSize: 0x4 }
  - { offset: 0x173949, size: 0x8, addend: 0x0, symName: __ZN5godot33CallableCustomStaticMethodPointerIJEED0Ev, symObjAddr: 0x4A7C, symBinAddr: 0x31E04, symSize: 0x4 }
  - { offset: 0x173AA1, size: 0x8, addend: 0x0, symName: __ZN5godot18create_method_bindIN6sentry9SentrySDKEJRKNS_8CallableEEEEPNS_10MethodBindEMT_FvDpT0_E.cold.1, symObjAddr: 0xAA24, symBinAddr: 0xE44F0, symSize: 0x5C }
  - { offset: 0x173BB9, size: 0x8, addend: 0x0, symName: __ZN5godot18create_method_bindIN6sentry9SentrySDKEJEEEPNS_10MethodBindEMT_FvDpT0_E.cold.1, symObjAddr: 0xAA80, symBinAddr: 0xE454C, symSize: 0x5C }
  - { offset: 0x173C4A, size: 0x8, addend: 0x0, symName: __ZN5godot18create_method_bindIN6sentry9SentrySDKEbJEEEPNS_10MethodBindEMT_KFT0_DpT1_E.cold.1, symObjAddr: 0xAADC, symBinAddr: 0xE45A8, symSize: 0x5C }
  - { offset: 0x173CDB, size: 0x8, addend: 0x0, symName: __ZN5godot18create_method_bindIN6sentry9SentrySDKEJRKNS_3RefINS1_16SentryBreadcrumbEEEEEEPNS_10MethodBindEMT_FvDpT0_E.cold.1, symObjAddr: 0xAB38, symBinAddr: 0xE4604, symSize: 0x5C }
  - { offset: 0x173D0A, size: 0x8, addend: 0x0, symName: __ZNK5godot11MethodBindTIJRKNS_3RefIN6sentry16SentryBreadcrumbEEEEE17gen_argument_typeEi, symObjAddr: 0x5A10, symBinAddr: 0x32270, symSize: 0x10 }
  - { offset: 0x173D40, size: 0x8, addend: 0x0, symName: __ZNK5godot11MethodBindTIJRKNS_3RefIN6sentry16SentryBreadcrumbEEEEE22gen_argument_type_infoEi, symObjAddr: 0x5A20, symBinAddr: 0x32280, symSize: 0x138 }
  - { offset: 0x173E79, size: 0x8, addend: 0x0, symName: __ZNK5godot11MethodBindTIJRKNS_3RefIN6sentry16SentryBreadcrumbEEEEE21get_argument_metadataEi, symObjAddr: 0x5B58, symBinAddr: 0x323B8, symSize: 0x8 }
  - { offset: 0x173EAF, size: 0x8, addend: 0x0, symName: __ZNK5godot11MethodBindTIJRKNS_3RefIN6sentry16SentryBreadcrumbEEEEE4callEPvPKPKvxR20GDExtensionCallError, symObjAddr: 0x5B60, symBinAddr: 0x323C0, symSize: 0x40 }
  - { offset: 0x17406C, size: 0x8, addend: 0x0, symName: __ZNK5godot11MethodBindTIJRKNS_3RefIN6sentry16SentryBreadcrumbEEEEE7ptrcallEPvPKPKvS8_, symObjAddr: 0x5BA0, symBinAddr: 0x32400, symSize: 0xC0 }
  - { offset: 0x174297, size: 0x8, addend: 0x0, symName: __ZN5godot11MethodBindTIJRKNS_3RefIN6sentry16SentryBreadcrumbEEEEED1Ev, symObjAddr: 0x5C60, symBinAddr: 0x324C0, symSize: 0x4 }
  - { offset: 0x1742BA, size: 0x8, addend: 0x0, symName: __ZN5godot11MethodBindTIJRKNS_3RefIN6sentry16SentryBreadcrumbEEEEED1Ev, symObjAddr: 0x5C60, symBinAddr: 0x324C0, symSize: 0x4 }
  - { offset: 0x1742F2, size: 0x8, addend: 0x0, symName: __ZN5godot11MethodBindTIJRKNS_3RefIN6sentry16SentryBreadcrumbEEEEED0Ev, symObjAddr: 0x5C64, symBinAddr: 0x324C4, symSize: 0x14 }
  - { offset: 0x17435A, size: 0x8, addend: 0x0, symName: __ZN5godot11GetTypeInfoIRKNS_3RefIN6sentry16SentryBreadcrumbEEEvE14get_class_infoEv, symObjAddr: 0x5D4C, symBinAddr: 0x325AC, symSize: 0x12C }
  - { offset: 0x174409, size: 0x8, addend: 0x0, symName: __ZN5godot11GetTypeInfoIRKNS_3RefIN6sentry16SentryBreadcrumbEEEvE14get_class_infoEv.cold.1, symObjAddr: 0xAB94, symBinAddr: 0xE4660, symSize: 0x58 }
  - { offset: 0x1744B0, size: 0x8, addend: 0x0, symName: __ZN5godot6Object7cast_toIN6sentry16SentryBreadcrumbEEEPT_PS0_, symObjAddr: 0x5FE8, symBinAddr: 0x32848, symSize: 0xE8 }
  - { offset: 0x174546, size: 0x8, addend: 0x0, symName: __ZN5godot6Object7cast_toIN6sentry16SentryBreadcrumbEEEPT_PS0_.cold.1, symObjAddr: 0xABEC, symBinAddr: 0xE46B8, symSize: 0x5C }
  - { offset: 0x1745D6, size: 0x8, addend: 0x0, symName: __ZN5godot18create_method_bindIN6sentry9SentrySDKENS_6StringEJRKS3_NS1_5LevelEEEEPNS_10MethodBindEMT_FT0_DpT1_E.cold.1, symObjAddr: 0xAC48, symBinAddr: 0xE4714, symSize: 0x5C }
  - { offset: 0x174605, size: 0x8, addend: 0x0, symName: __ZNK5godot12MethodBindTRINS_6StringEJRKS1_N6sentry5LevelEEE17gen_argument_typeEi, symObjAddr: 0x61F4, symBinAddr: 0x32A54, symSize: 0x28 }
  - { offset: 0x17464E, size: 0x8, addend: 0x0, symName: __ZNK5godot12MethodBindTRINS_6StringEJRKS1_N6sentry5LevelEEE22gen_argument_type_infoEi, symObjAddr: 0x621C, symBinAddr: 0x32A7C, symSize: 0x154 }
  - { offset: 0x1747E2, size: 0x8, addend: 0x0, symName: __ZNK5godot12MethodBindTRINS_6StringEJRKS1_N6sentry5LevelEEE21get_argument_metadataEi, symObjAddr: 0x6370, symBinAddr: 0x32BD0, symSize: 0x8 }
  - { offset: 0x174818, size: 0x8, addend: 0x0, symName: __ZNK5godot12MethodBindTRINS_6StringEJRKS1_N6sentry5LevelEEE4callEPvPKPKvxR20GDExtensionCallError, symObjAddr: 0x6378, symBinAddr: 0x32BD8, symSize: 0x64 }
  - { offset: 0x174904, size: 0x8, addend: 0x0, symName: __ZNK5godot12MethodBindTRINS_6StringEJRKS1_N6sentry5LevelEEE7ptrcallEPvPKPKvS7_, symObjAddr: 0x63DC, symBinAddr: 0x32C3C, symSize: 0xB0 }
  - { offset: 0x174A3C, size: 0x8, addend: 0x0, symName: __ZN5godot12MethodBindTRINS_6StringEJRKS1_N6sentry5LevelEEED1Ev, symObjAddr: 0x648C, symBinAddr: 0x32CEC, symSize: 0x4 }
  - { offset: 0x174A5F, size: 0x8, addend: 0x0, symName: __ZN5godot12MethodBindTRINS_6StringEJRKS1_N6sentry5LevelEEED1Ev, symObjAddr: 0x648C, symBinAddr: 0x32CEC, symSize: 0x4 }
  - { offset: 0x174A97, size: 0x8, addend: 0x0, symName: __ZN5godot12MethodBindTRINS_6StringEJRKS1_N6sentry5LevelEEED0Ev, symObjAddr: 0x6490, symBinAddr: 0x32CF0, symSize: 0x14 }
  - { offset: 0x174B8E, size: 0x8, addend: 0x0, symName: __ZN5godot18create_method_bindIN6sentry9SentrySDKENS_6StringEJEEEPNS_10MethodBindEMT_KFT0_DpT1_E.cold.1, symObjAddr: 0xACA4, symBinAddr: 0xE4770, symSize: 0x5C }
  - { offset: 0x174C1F, size: 0x8, addend: 0x0, symName: __ZN5godot18create_method_bindIN6sentry9SentrySDKEJRKNS_6StringERKNS_10DictionaryEEEEPNS_10MethodBindEMT_FvDpT0_E.cold.1, symObjAddr: 0xAD00, symBinAddr: 0xE47CC, symSize: 0x5C }
  - { offset: 0x174C4E, size: 0x8, addend: 0x0, symName: __ZNK5godot11MethodBindTIJRKNS_6StringERKNS_10DictionaryEEE17gen_argument_typeEi, symObjAddr: 0x6DE0, symBinAddr: 0x3318C, symSize: 0x24 }
  - { offset: 0x174C84, size: 0x8, addend: 0x0, symName: __ZNK5godot11MethodBindTIJRKNS_6StringERKNS_10DictionaryEEE22gen_argument_type_infoEi, symObjAddr: 0x6E04, symBinAddr: 0x331B0, symSize: 0x138 }
  - { offset: 0x174DE3, size: 0x8, addend: 0x0, symName: __ZNK5godot11MethodBindTIJRKNS_6StringERKNS_10DictionaryEEE21get_argument_metadataEi, symObjAddr: 0x6F3C, symBinAddr: 0x332E8, symSize: 0x8 }
  - { offset: 0x174E19, size: 0x8, addend: 0x0, symName: __ZNK5godot11MethodBindTIJRKNS_6StringERKNS_10DictionaryEEE4callEPvPKPKvxR20GDExtensionCallError, symObjAddr: 0x6F44, symBinAddr: 0x332F0, symSize: 0x40 }
  - { offset: 0x174ED9, size: 0x8, addend: 0x0, symName: __ZNK5godot11MethodBindTIJRKNS_6StringERKNS_10DictionaryEEE7ptrcallEPvPKPKvS8_, symObjAddr: 0x6F84, symBinAddr: 0x33330, symSize: 0xA4 }
  - { offset: 0x174FF4, size: 0x8, addend: 0x0, symName: __ZN5godot11MethodBindTIJRKNS_6StringERKNS_10DictionaryEEED1Ev, symObjAddr: 0x7028, symBinAddr: 0x333D4, symSize: 0x4 }
  - { offset: 0x175017, size: 0x8, addend: 0x0, symName: __ZN5godot11MethodBindTIJRKNS_6StringERKNS_10DictionaryEEED1Ev, symObjAddr: 0x7028, symBinAddr: 0x333D4, symSize: 0x4 }
  - { offset: 0x17504F, size: 0x8, addend: 0x0, symName: __ZN5godot11MethodBindTIJRKNS_6StringERKNS_10DictionaryEEED0Ev, symObjAddr: 0x702C, symBinAddr: 0x333D8, symSize: 0x14 }
  - { offset: 0x175133, size: 0x8, addend: 0x0, symName: __ZN5godot18create_method_bindIN6sentry9SentrySDKEJRKNS_6StringES5_EEEPNS_10MethodBindEMT_FvDpT0_E.cold.1, symObjAddr: 0xAD5C, symBinAddr: 0xE4828, symSize: 0x5C }
  - { offset: 0x1751C4, size: 0x8, addend: 0x0, symName: __ZN5godot18create_method_bindIN6sentry9SentrySDKEJRKNS_6StringEEEEPNS_10MethodBindEMT_FvDpT0_E.cold.1, symObjAddr: 0xADB8, symBinAddr: 0xE4884, symSize: 0x5C }
  - { offset: 0x175255, size: 0x8, addend: 0x0, symName: __ZN5godot18create_method_bindIN6sentry9SentrySDKEJRKNS_3RefINS1_10SentryUserEEEEEEPNS_10MethodBindEMT_FvDpT0_E.cold.1, symObjAddr: 0xAE14, symBinAddr: 0xE48E0, symSize: 0x5C }
  - { offset: 0x175284, size: 0x8, addend: 0x0, symName: __ZNK5godot11MethodBindTIJRKNS_3RefIN6sentry10SentryUserEEEEE17gen_argument_typeEi, symObjAddr: 0x7DDC, symBinAddr: 0x338CC, symSize: 0x10 }
  - { offset: 0x1752BA, size: 0x8, addend: 0x0, symName: __ZNK5godot11MethodBindTIJRKNS_3RefIN6sentry10SentryUserEEEEE22gen_argument_type_infoEi, symObjAddr: 0x7DEC, symBinAddr: 0x338DC, symSize: 0x138 }
  - { offset: 0x1753F3, size: 0x8, addend: 0x0, symName: __ZNK5godot11MethodBindTIJRKNS_3RefIN6sentry10SentryUserEEEEE21get_argument_metadataEi, symObjAddr: 0x7F24, symBinAddr: 0x33A14, symSize: 0x8 }
  - { offset: 0x175429, size: 0x8, addend: 0x0, symName: __ZNK5godot11MethodBindTIJRKNS_3RefIN6sentry10SentryUserEEEEE4callEPvPKPKvxR20GDExtensionCallError, symObjAddr: 0x7F2C, symBinAddr: 0x33A1C, symSize: 0x40 }
  - { offset: 0x1755E6, size: 0x8, addend: 0x0, symName: __ZNK5godot11MethodBindTIJRKNS_3RefIN6sentry10SentryUserEEEEE7ptrcallEPvPKPKvS8_, symObjAddr: 0x7F6C, symBinAddr: 0x33A5C, symSize: 0xC0 }
  - { offset: 0x175811, size: 0x8, addend: 0x0, symName: __ZN5godot11MethodBindTIJRKNS_3RefIN6sentry10SentryUserEEEEED1Ev, symObjAddr: 0x802C, symBinAddr: 0x33B1C, symSize: 0x4 }
  - { offset: 0x175834, size: 0x8, addend: 0x0, symName: __ZN5godot11MethodBindTIJRKNS_3RefIN6sentry10SentryUserEEEEED1Ev, symObjAddr: 0x802C, symBinAddr: 0x33B1C, symSize: 0x4 }
  - { offset: 0x17586C, size: 0x8, addend: 0x0, symName: __ZN5godot11MethodBindTIJRKNS_3RefIN6sentry10SentryUserEEEEED0Ev, symObjAddr: 0x8030, symBinAddr: 0x33B20, symSize: 0x14 }
  - { offset: 0x1758D4, size: 0x8, addend: 0x0, symName: __ZN5godot11GetTypeInfoIRKNS_3RefIN6sentry10SentryUserEEEvE14get_class_infoEv, symObjAddr: 0x8118, symBinAddr: 0x33C08, symSize: 0x12C }
  - { offset: 0x175983, size: 0x8, addend: 0x0, symName: __ZN5godot11GetTypeInfoIRKNS_3RefIN6sentry10SentryUserEEEvE14get_class_infoEv.cold.1, symObjAddr: 0xAE70, symBinAddr: 0xE493C, symSize: 0x58 }
  - { offset: 0x175A2A, size: 0x8, addend: 0x0, symName: __ZN5godot6Object7cast_toIN6sentry10SentryUserEEEPT_PS0_, symObjAddr: 0x83B4, symBinAddr: 0x33EA4, symSize: 0xE8 }
  - { offset: 0x175AC0, size: 0x8, addend: 0x0, symName: __ZN5godot6Object7cast_toIN6sentry10SentryUserEEEPT_PS0_.cold.1, symObjAddr: 0xAEC8, symBinAddr: 0xE4994, symSize: 0x5C }
  - { offset: 0x175B50, size: 0x8, addend: 0x0, symName: __ZN5godot18create_method_bindIN6sentry9SentrySDKENS_3RefINS1_11SentryEventEEEJEEEPNS_10MethodBindEMT_KFT0_DpT1_E.cold.1, symObjAddr: 0xAF24, symBinAddr: 0xE49F0, symSize: 0x5C }
  - { offset: 0x175B7F, size: 0x8, addend: 0x0, symName: __ZNK5godot13MethodBindTRCINS_3RefIN6sentry11SentryEventEEEJEE17gen_argument_typeEi, symObjAddr: 0x85C8, symBinAddr: 0x340B8, symSize: 0x8 }
  - { offset: 0x175BB5, size: 0x8, addend: 0x0, symName: __ZNK5godot13MethodBindTRCINS_3RefIN6sentry11SentryEventEEEJEE22gen_argument_type_infoEi, symObjAddr: 0x85D0, symBinAddr: 0x340C0, symSize: 0x4 }
  - { offset: 0x175BEC, size: 0x8, addend: 0x0, symName: __ZNK5godot13MethodBindTRCINS_3RefIN6sentry11SentryEventEEEJEE22gen_argument_type_infoEi, symObjAddr: 0x85D0, symBinAddr: 0x340C0, symSize: 0x4 }
  - { offset: 0x175BFF, size: 0x8, addend: 0x0, symName: __ZN5godot11GetTypeInfoINS_3RefIN6sentry11SentryEventEEEvE14get_class_infoEv, symObjAddr: 0x86F4, symBinAddr: 0x341E4, symSize: 0x12C }
  - { offset: 0x175CA7, size: 0x8, addend: 0x0, symName: __ZNK5godot13MethodBindTRCINS_3RefIN6sentry11SentryEventEEEJEE21get_argument_metadataEi, symObjAddr: 0x85D4, symBinAddr: 0x340C4, symSize: 0x8 }
  - { offset: 0x175CDD, size: 0x8, addend: 0x0, symName: __ZNK5godot13MethodBindTRCINS_3RefIN6sentry11SentryEventEEEJEE4callEPvPKPKvxR20GDExtensionCallError, symObjAddr: 0x85DC, symBinAddr: 0x340CC, symSize: 0x64 }
  - { offset: 0x175E14, size: 0x8, addend: 0x0, symName: __ZNK5godot13MethodBindTRCINS_3RefIN6sentry11SentryEventEEEJEE7ptrcallEPvPKPKvS6_, symObjAddr: 0x8640, symBinAddr: 0x34130, symSize: 0x9C }
  - { offset: 0x175F86, size: 0x8, addend: 0x0, symName: __ZNK5godot13MethodBindTRCINS_3RefIN6sentry11SentryEventEEEJEE7ptrcallEPvPKPKvS6_.cold.1, symObjAddr: 0xAF80, symBinAddr: 0xE4A4C, symSize: 0x30 }
  - { offset: 0x175FFD, size: 0x8, addend: 0x0, symName: __ZN5godot13MethodBindTRCINS_3RefIN6sentry11SentryEventEEEJEED1Ev, symObjAddr: 0x86DC, symBinAddr: 0x341CC, symSize: 0x4 }
  - { offset: 0x176020, size: 0x8, addend: 0x0, symName: __ZN5godot13MethodBindTRCINS_3RefIN6sentry11SentryEventEEEJEED1Ev, symObjAddr: 0x86DC, symBinAddr: 0x341CC, symSize: 0x4 }
  - { offset: 0x176058, size: 0x8, addend: 0x0, symName: __ZN5godot13MethodBindTRCINS_3RefIN6sentry11SentryEventEEEJEED0Ev, symObjAddr: 0x86E0, symBinAddr: 0x341D0, symSize: 0x14 }
  - { offset: 0x1760C7, size: 0x8, addend: 0x0, symName: __ZN5godot11GetTypeInfoINS_3RefIN6sentry11SentryEventEEEvE14get_class_infoEv.cold.1, symObjAddr: 0xAFB0, symBinAddr: 0xE4A7C, symSize: 0x58 }
  - { offset: 0x17616E, size: 0x8, addend: 0x0, symName: __ZN5godot18create_method_bindIN6sentry9SentrySDKENS_6StringEJRKNS_3RefINS1_11SentryEventEEEEEEPNS_10MethodBindEMT_FT0_DpT1_E.cold.1, symObjAddr: 0xB008, symBinAddr: 0xE4AD4, symSize: 0x5C }
  - { offset: 0x17619D, size: 0x8, addend: 0x0, symName: __ZNK5godot12MethodBindTRINS_6StringEJRKNS_3RefIN6sentry11SentryEventEEEEE17gen_argument_typeEi, symObjAddr: 0x8A24, symBinAddr: 0x34514, symSize: 0x14 }
  - { offset: 0x1761D3, size: 0x8, addend: 0x0, symName: __ZNK5godot12MethodBindTRINS_6StringEJRKNS_3RefIN6sentry11SentryEventEEEEE22gen_argument_type_infoEi, symObjAddr: 0x8A38, symBinAddr: 0x34528, symSize: 0x150 }
  - { offset: 0x176345, size: 0x8, addend: 0x0, symName: __ZNK5godot12MethodBindTRINS_6StringEJRKNS_3RefIN6sentry11SentryEventEEEEE21get_argument_metadataEi, symObjAddr: 0x8B88, symBinAddr: 0x34678, symSize: 0x8 }
  - { offset: 0x17637B, size: 0x8, addend: 0x0, symName: __ZNK5godot12MethodBindTRINS_6StringEJRKNS_3RefIN6sentry11SentryEventEEEEE4callEPvPKPKvxR20GDExtensionCallError, symObjAddr: 0x8B90, symBinAddr: 0x34680, symSize: 0x64 }
  - { offset: 0x176423, size: 0x8, addend: 0x0, symName: __ZNK5godot12MethodBindTRINS_6StringEJRKNS_3RefIN6sentry11SentryEventEEEEE7ptrcallEPvPKPKvS9_, symObjAddr: 0x8BF4, symBinAddr: 0x346E4, symSize: 0x18 }
  - { offset: 0x1764EA, size: 0x8, addend: 0x0, symName: __ZN5godot12MethodBindTRINS_6StringEJRKNS_3RefIN6sentry11SentryEventEEEEED1Ev, symObjAddr: 0x8C0C, symBinAddr: 0x346FC, symSize: 0x4 }
  - { offset: 0x17650D, size: 0x8, addend: 0x0, symName: __ZN5godot12MethodBindTRINS_6StringEJRKNS_3RefIN6sentry11SentryEventEEEEED1Ev, symObjAddr: 0x8C0C, symBinAddr: 0x346FC, symSize: 0x4 }
  - { offset: 0x176545, size: 0x8, addend: 0x0, symName: __ZN5godot12MethodBindTRINS_6StringEJRKNS_3RefIN6sentry11SentryEventEEEEED0Ev, symObjAddr: 0x8C10, symBinAddr: 0x34700, symSize: 0x14 }
  - { offset: 0x1765AD, size: 0x8, addend: 0x0, symName: __ZN5godot11GetTypeInfoIRKNS_3RefIN6sentry11SentryEventEEEvE14get_class_infoEv, symObjAddr: 0x8CF8, symBinAddr: 0x347E8, symSize: 0x12C }
  - { offset: 0x176655, size: 0x8, addend: 0x0, symName: __ZN5godot11GetTypeInfoIRKNS_3RefIN6sentry11SentryEventEEEvE14get_class_infoEv.cold.1, symObjAddr: 0xB064, symBinAddr: 0xE4B30, symSize: 0x58 }
  - { offset: 0x1766FC, size: 0x8, addend: 0x0, symName: __ZN5godot6Object7cast_toIN6sentry11SentryEventEEEPT_PS0_, symObjAddr: 0x9038, symBinAddr: 0x34B28, symSize: 0xE8 }
  - { offset: 0x176792, size: 0x8, addend: 0x0, symName: __ZN5godot6Object7cast_toIN6sentry11SentryEventEEEPT_PS0_.cold.1, symObjAddr: 0xB0BC, symBinAddr: 0xE4B88, symSize: 0x5C }
  - { offset: 0x1768E3, size: 0x8, addend: 0x0, symName: __ZN5godot18create_method_bindIN6sentry9SentrySDKEJRKNS_3RefINS1_16SentryAttachmentEEEEEEPNS_10MethodBindEMT_FvDpT0_E.cold.1, symObjAddr: 0xB118, symBinAddr: 0xE4BE4, symSize: 0x5C }
  - { offset: 0x176912, size: 0x8, addend: 0x0, symName: __ZNK5godot11MethodBindTIJRKNS_3RefIN6sentry16SentryAttachmentEEEEE17gen_argument_typeEi, symObjAddr: 0x9328, symBinAddr: 0x34E18, symSize: 0x10 }
  - { offset: 0x176948, size: 0x8, addend: 0x0, symName: __ZNK5godot11MethodBindTIJRKNS_3RefIN6sentry16SentryAttachmentEEEEE22gen_argument_type_infoEi, symObjAddr: 0x9338, symBinAddr: 0x34E28, symSize: 0x138 }
  - { offset: 0x176A81, size: 0x8, addend: 0x0, symName: __ZNK5godot11MethodBindTIJRKNS_3RefIN6sentry16SentryAttachmentEEEEE21get_argument_metadataEi, symObjAddr: 0x9470, symBinAddr: 0x34F60, symSize: 0x8 }
  - { offset: 0x176AB7, size: 0x8, addend: 0x0, symName: __ZNK5godot11MethodBindTIJRKNS_3RefIN6sentry16SentryAttachmentEEEEE4callEPvPKPKvxR20GDExtensionCallError, symObjAddr: 0x9478, symBinAddr: 0x34F68, symSize: 0x40 }
  - { offset: 0x176C74, size: 0x8, addend: 0x0, symName: __ZNK5godot11MethodBindTIJRKNS_3RefIN6sentry16SentryAttachmentEEEEE7ptrcallEPvPKPKvS8_, symObjAddr: 0x94B8, symBinAddr: 0x34FA8, symSize: 0xC0 }
  - { offset: 0x176E9F, size: 0x8, addend: 0x0, symName: __ZN5godot11MethodBindTIJRKNS_3RefIN6sentry16SentryAttachmentEEEEED1Ev, symObjAddr: 0x9578, symBinAddr: 0x35068, symSize: 0x4 }
  - { offset: 0x176EC2, size: 0x8, addend: 0x0, symName: __ZN5godot11MethodBindTIJRKNS_3RefIN6sentry16SentryAttachmentEEEEED1Ev, symObjAddr: 0x9578, symBinAddr: 0x35068, symSize: 0x4 }
  - { offset: 0x176EFA, size: 0x8, addend: 0x0, symName: __ZN5godot11MethodBindTIJRKNS_3RefIN6sentry16SentryAttachmentEEEEED0Ev, symObjAddr: 0x957C, symBinAddr: 0x3506C, symSize: 0x14 }
  - { offset: 0x176F62, size: 0x8, addend: 0x0, symName: __ZN5godot11GetTypeInfoIRKNS_3RefIN6sentry16SentryAttachmentEEEvE14get_class_infoEv, symObjAddr: 0x9664, symBinAddr: 0x35154, symSize: 0x12C }
  - { offset: 0x177011, size: 0x8, addend: 0x0, symName: __ZN5godot11GetTypeInfoIRKNS_3RefIN6sentry16SentryAttachmentEEEvE14get_class_infoEv.cold.1, symObjAddr: 0xB174, symBinAddr: 0xE4C40, symSize: 0x58 }
  - { offset: 0x1770B8, size: 0x8, addend: 0x0, symName: __ZN5godot6Object7cast_toIN6sentry16SentryAttachmentEEEPT_PS0_, symObjAddr: 0x9900, symBinAddr: 0x353F0, symSize: 0xE8 }
  - { offset: 0x17714E, size: 0x8, addend: 0x0, symName: __ZN5godot6Object7cast_toIN6sentry16SentryAttachmentEEEPT_PS0_.cold.1, symObjAddr: 0xB1CC, symBinAddr: 0xE4C98, symSize: 0x5C }
  - { offset: 0x1771DE, size: 0x8, addend: 0x0, symName: __ZN5godot18create_method_bindIN6sentry9SentrySDKENS_8CallableEJEEEPNS_10MethodBindEMT_FT0_DpT1_E.cold.1, symObjAddr: 0xB228, symBinAddr: 0xE4CF4, symSize: 0x5C }
  - { offset: 0x17720D, size: 0x8, addend: 0x0, symName: __ZNK5godot12MethodBindTRINS_8CallableEJEE17gen_argument_typeEi, symObjAddr: 0x9B08, symBinAddr: 0x355F8, symSize: 0x8 }
  - { offset: 0x17724A, size: 0x8, addend: 0x0, symName: __ZNK5godot12MethodBindTRINS_8CallableEJEE22gen_argument_type_infoEi, symObjAddr: 0x9B10, symBinAddr: 0x35600, symSize: 0xF8 }
  - { offset: 0x17730D, size: 0x8, addend: 0x0, symName: __ZNK5godot12MethodBindTRINS_8CallableEJEE21get_argument_metadataEi, symObjAddr: 0x9C08, symBinAddr: 0x356F8, symSize: 0x8 }
  - { offset: 0x177343, size: 0x8, addend: 0x0, symName: __ZNK5godot12MethodBindTRINS_8CallableEJEE4callEPvPKPKvxR20GDExtensionCallError, symObjAddr: 0x9C10, symBinAddr: 0x35700, symSize: 0xCC }
  - { offset: 0x177460, size: 0x8, addend: 0x0, symName: __ZNK5godot12MethodBindTRINS_8CallableEJEE7ptrcallEPvPKPKvS3_, symObjAddr: 0x9CDC, symBinAddr: 0x357CC, symSize: 0x80 }
  - { offset: 0x177554, size: 0x8, addend: 0x0, symName: __ZN5godot12MethodBindTRINS_8CallableEJEED1Ev, symObjAddr: 0x9D5C, symBinAddr: 0x3584C, symSize: 0x4 }
  - { offset: 0x177577, size: 0x8, addend: 0x0, symName: __ZN5godot12MethodBindTRINS_8CallableEJEED1Ev, symObjAddr: 0x9D5C, symBinAddr: 0x3584C, symSize: 0x4 }
  - { offset: 0x1775AF, size: 0x8, addend: 0x0, symName: __ZN5godot12MethodBindTRINS_8CallableEJEED0Ev, symObjAddr: 0x9D60, symBinAddr: 0x35850, symSize: 0x14 }
  - { offset: 0x177633, size: 0x8, addend: 0x0, symName: __ZNSt3__120__shared_ptr_emplaceIN6sentry5cocoa8CocoaSDKENS_9allocatorIS3_EEED1Ev, symObjAddr: 0x9D74, symBinAddr: 0x35864, symSize: 0x10 }
  - { offset: 0x177655, size: 0x8, addend: 0x0, symName: __ZNSt3__120__shared_ptr_emplaceIN6sentry5cocoa8CocoaSDKENS_9allocatorIS3_EEED1Ev, symObjAddr: 0x9D74, symBinAddr: 0x35864, symSize: 0x10 }
  - { offset: 0x17768B, size: 0x8, addend: 0x0, symName: __ZNSt3__120__shared_ptr_emplaceIN6sentry5cocoa8CocoaSDKENS_9allocatorIS3_EEED0Ev, symObjAddr: 0x9D84, symBinAddr: 0x35874, symSize: 0x20 }
  - { offset: 0x17777E, size: 0x8, addend: 0x0, symName: __ZNSt3__120__shared_ptr_emplaceIN6sentry5cocoa8CocoaSDKENS_9allocatorIS3_EEE16__on_zero_sharedEv, symObjAddr: 0x9DA4, symBinAddr: 0x35894, symSize: 0xC }
  - { offset: 0x1777A8, size: 0x8, addend: 0x0, symName: __ZNSt3__120__shared_ptr_emplaceIN6sentry5cocoa8CocoaSDKENS_9allocatorIS3_EEE16__on_zero_sharedEv, symObjAddr: 0x9DA4, symBinAddr: 0x35894, symSize: 0xC }
  - { offset: 0x1777C7, size: 0x8, addend: 0x0, symName: __ZNSt3__120__shared_ptr_emplaceIN6sentry5cocoa8CocoaSDKENS_9allocatorIS3_EEE16__on_zero_sharedEv, symObjAddr: 0x9DA4, symBinAddr: 0x35894, symSize: 0xC }
  - { offset: 0x1777E6, size: 0x8, addend: 0x0, symName: __ZNSt3__120__shared_ptr_emplaceIN6sentry5cocoa8CocoaSDKENS_9allocatorIS3_EEE16__on_zero_sharedEv, symObjAddr: 0x9DA4, symBinAddr: 0x35894, symSize: 0xC }
  - { offset: 0x17786C, size: 0x8, addend: 0x0, symName: __ZNSt3__120__shared_ptr_emplaceIN6sentry5cocoa8CocoaSDKENS_9allocatorIS3_EEE21__on_zero_shared_weakEv, symObjAddr: 0x9DB0, symBinAddr: 0x358A0, symSize: 0x4 }
  - { offset: 0x1778A1, size: 0x8, addend: 0x0, symName: __ZNSt3__120__shared_ptr_emplaceIN6sentry5cocoa8CocoaSDKENS_9allocatorIS3_EEE21__on_zero_shared_weakEv, symObjAddr: 0x9DB0, symBinAddr: 0x358A0, symSize: 0x4 }
  - { offset: 0x1778C5, size: 0x8, addend: 0x0, symName: __ZNSt3__120__shared_ptr_emplaceIN6sentry5cocoa8CocoaSDKENS_9allocatorIS3_EEE21__on_zero_shared_weakEv, symObjAddr: 0x9DB0, symBinAddr: 0x358A0, symSize: 0x4 }
  - { offset: 0x1778E8, size: 0x8, addend: 0x0, symName: __ZNSt3__120__shared_ptr_emplaceIN6sentry5cocoa8CocoaSDKENS_9allocatorIS3_EEE21__on_zero_shared_weakEv, symObjAddr: 0x9DB0, symBinAddr: 0x358A0, symSize: 0x4 }
  - { offset: 0x177916, size: 0x8, addend: 0x0, symName: __ZNSt3__120__shared_ptr_emplaceIN6sentry5cocoa8CocoaSDKENS_9allocatorIS3_EEE21__on_zero_shared_weakEv, symObjAddr: 0x9DB0, symBinAddr: 0x358A0, symSize: 0x4 }
  - { offset: 0x17793E, size: 0x8, addend: 0x0, symName: __ZNSt3__120__shared_ptr_emplaceIN6sentry5cocoa8CocoaSDKENS_9allocatorIS3_EEE21__on_zero_shared_weakEv, symObjAddr: 0x9DB0, symBinAddr: 0x358A0, symSize: 0x4 }
  - { offset: 0x177969, size: 0x8, addend: 0x0, symName: _OUTLINED_FUNCTION_0, symObjAddr: 0xB284, symBinAddr: 0x358A4, symSize: 0x10 }
  - { offset: 0x177981, size: 0x8, addend: 0x0, symName: _OUTLINED_FUNCTION_1, symObjAddr: 0xB294, symBinAddr: 0x358B4, symSize: 0xC }
  - { offset: 0x177999, size: 0x8, addend: 0x0, symName: _OUTLINED_FUNCTION_2, symObjAddr: 0xB2A0, symBinAddr: 0x358C0, symSize: 0xC }
  - { offset: 0x1779B1, size: 0x8, addend: 0x0, symName: _OUTLINED_FUNCTION_3, symObjAddr: 0xB2AC, symBinAddr: 0x358CC, symSize: 0xC }
  - { offset: 0x1779C9, size: 0x8, addend: 0x0, symName: _OUTLINED_FUNCTION_4, symObjAddr: 0xB2B8, symBinAddr: 0x358D8, symSize: 0x8 }
  - { offset: 0x1779E1, size: 0x8, addend: 0x0, symName: _OUTLINED_FUNCTION_5, symObjAddr: 0xB2C0, symBinAddr: 0x358E0, symSize: 0x8 }
  - { offset: 0x1779F9, size: 0x8, addend: 0x0, symName: _OUTLINED_FUNCTION_6, symObjAddr: 0xB2C8, symBinAddr: 0x358E8, symSize: 0x8 }
  - { offset: 0x177A11, size: 0x8, addend: 0x0, symName: _OUTLINED_FUNCTION_7, symObjAddr: 0xB2D0, symBinAddr: 0x358F0, symSize: 0x8 }
  - { offset: 0x177A29, size: 0x8, addend: 0x0, symName: _OUTLINED_FUNCTION_8, symObjAddr: 0xB2D8, symBinAddr: 0x358F8, symSize: 0xC }
  - { offset: 0x17C8E6, size: 0x8, addend: 0x0, symName: __ZN5godot7vformatIJiiiiiixEEENS_6StringERKS1_DpKT_, symObjAddr: 0x7C8, symBinAddr: 0x3645C, symSize: 0x1E4 }
  - { offset: 0x17CA9B, size: 0x8, addend: 0x0, symName: __ZN5godot18create_method_bindIN6sentry15SentryTimestampEJxEEEPNS_10MethodBindEMT_FvDpT0_E, symObjAddr: 0x2E40, symBinAddr: 0x37C90, symSize: 0x114 }
  - { offset: 0x17CBE3, size: 0x8, addend: 0x0, symName: __ZN5godot18create_method_bindIN6sentry15SentryTimestampExJEEEPNS_10MethodBindEMT_KFT0_DpT1_E, symObjAddr: 0x324C, symBinAddr: 0x3809C, symSize: 0x12C }
  - { offset: 0x17CD19, size: 0x8, addend: 0x0, symName: __ZN5godot18create_method_bindIN6sentry15SentryTimestampENS_6StringEJEEEPNS_10MethodBindEMT_KFT0_DpT1_E, symObjAddr: 0x3594, symBinAddr: 0x383E4, symSize: 0x12C }
  - { offset: 0x17CE4F, size: 0x8, addend: 0x0, symName: __ZN5godot18create_method_bindIN6sentry15SentryTimestampEbJRKNS_3RefIS2_EEEEEPNS_10MethodBindEMT_FT0_DpT1_E, symObjAddr: 0x392C, symBinAddr: 0x38510, symSize: 0x120 }
  - { offset: 0x17D525, size: 0x8, addend: 0x0, symName: __ZN5godot36call_with_variant_args_static_ret_dvINS_3RefIN6sentry15SentryTimestampEEEJRKNS_6StringEEEEvPFT_DpT0_EPKPKviRNS_7VariantER20GDExtensionCallErrorRKNSt3__16vectorISH_NSL_9allocatorISH_EEEE, symObjAddr: 0x22FC, symBinAddr: 0x372C0, symSize: 0x104 }
  - { offset: 0x17D6B7, size: 0x8, addend: 0x0, symName: __ZN5godot43call_with_ptr_args_static_method_ret_helperINS_3RefIN6sentry15SentryTimestampEEEJRKNS_6StringEEJLm0EEEEvPFT_DpT0_EPKPKvPvNS_13IndexSequenceIJXspT1_EEEE, symObjAddr: 0x24C4, symBinAddr: 0x37488, symSize: 0xD4 }
  - { offset: 0x17D897, size: 0x8, addend: 0x0, symName: __ZN5godot33call_with_variant_args_static_retINS_3RefIN6sentry15SentryTimestampEEEJRKNS_6StringEEJLm0EEEEvPFT_DpT0_EPPKNS_7VariantERSD_R20GDExtensionCallErrorNS_13IndexSequenceIJXspT1_EEEE, symObjAddr: 0x2400, symBinAddr: 0x373C4, symSize: 0xC4 }
  - { offset: 0x17DA40, size: 0x8, addend: 0x0, symName: __ZN5godot34call_get_argument_type_info_helperIxEEviRiRNS_12PropertyInfoE, symObjAddr: 0x2730, symBinAddr: 0x376F4, symSize: 0x174 }
  - { offset: 0x17DB63, size: 0x8, addend: 0x0, symName: __ZN5godot36call_with_variant_args_static_ret_dvINS_3RefIN6sentry15SentryTimestampEEEJxEEEvPFT_DpT0_EPKPKviRNS_7VariantER20GDExtensionCallErrorRKNSt3__16vectorISE_NSI_9allocatorISE_EEEE, symObjAddr: 0x28A4, symBinAddr: 0x37868, symSize: 0x144 }
  - { offset: 0x17E020, size: 0x8, addend: 0x0, symName: __ZN5godot36call_with_variant_args_static_ret_dvINS_3RefIN6sentry15SentryTimestampEEEJdEEEvPFT_DpT0_EPKPKviRNS_7VariantER20GDExtensionCallErrorRKNSt3__16vectorISE_NSI_9allocatorISE_EEEE, symObjAddr: 0x2CF4, symBinAddr: 0x37B44, symSize: 0x144 }
  - { offset: 0x17E507, size: 0x8, addend: 0x0, symName: __ZN5godot25call_with_variant_args_dvINS_20_gde_UnexistingClassEJxEEEvPT_MS2_FvDpT0_EPKPKviR20GDExtensionCallErrorRKNSt3__16vectorINS_7VariantENSE_9allocatorISG_EEEE, symObjAddr: 0x3124, symBinAddr: 0x37F74, symSize: 0x128 }
  - { offset: 0x17EDB8, size: 0x8, addend: 0x0, symName: __ZN5godot29call_with_variant_args_ret_dvINS_20_gde_UnexistingClassEbJRKNS_3RefIN6sentry15SentryTimestampEEEEEEvPT_MS8_FT0_DpT1_EPKPKviRNS_7VariantER20GDExtensionCallErrorRKNSt3__16vectorISJ_NSN_9allocatorISJ_EEEE, symObjAddr: 0x3EFC, symBinAddr: 0x388E0, symSize: 0x11C }
  - { offset: 0x17EFE1, size: 0x8, addend: 0x0, symName: __ZN5godot33call_with_variant_args_ret_helperINS_20_gde_UnexistingClassEbJRKNS_3RefIN6sentry15SentryTimestampEEEEJLm0EEEEvPT_MS8_FT0_DpT1_EPPKNS_7VariantERSF_R20GDExtensionCallErrorNS_13IndexSequenceIJXspT2_EEEE, symObjAddr: 0x4018, symBinAddr: 0x389FC, symSize: 0xEC }
  - { offset: 0x18CDFA, size: 0x8, addend: 0x0, symName: ___cxx_global_var_init, symObjAddr: 0x4888, symBinAddr: 0x38B40, symSize: 0x4C }
  - { offset: 0x18CE7F, size: 0x8, addend: 0x0, symName: ___cxx_global_var_init.1, symObjAddr: 0x48D4, symBinAddr: 0x38B8C, symSize: 0x4C }
  - { offset: 0x18CF04, size: 0x8, addend: 0x0, symName: ___cxx_global_var_init.2, symObjAddr: 0x4920, symBinAddr: 0x38BD8, symSize: 0x4C }
  - { offset: 0x18CF89, size: 0x8, addend: 0x0, symName: ___cxx_global_var_init.3, symObjAddr: 0x496C, symBinAddr: 0x38C24, symSize: 0x4C }
  - { offset: 0x18D06F, size: 0x8, addend: 0x0, symName: __ZN6sentry15SentryTimestamp18parse_rfc3339_cstrEPKc, symObjAddr: 0x0, symBinAddr: 0x35C94, symSize: 0x430 }
  - { offset: 0x18D3F5, size: 0x8, addend: 0x0, symName: __ZN5godot7VariantC1EPKc, symObjAddr: 0x430, symBinAddr: 0x360C4, symSize: 0x70 }
  - { offset: 0x18D43C, size: 0x8, addend: 0x0, symName: __ZN5godot3RefIN6sentry15SentryTimestampEE11instantiateEv, symObjAddr: 0x4A0, symBinAddr: 0x36134, symSize: 0x168 }
  - { offset: 0x18D809, size: 0x8, addend: 0x0, symName: __ZN5godot3RefIN6sentry15SentryTimestampEE11instantiateEv.cold.1, symObjAddr: 0x41EC, symBinAddr: 0xE4D50, symSize: 0x5C }
  - { offset: 0x18D876, size: 0x8, addend: 0x0, symName: __ZN6sentry15SentryTimestamp33set_microseconds_since_unix_epochEx, symObjAddr: 0x608, symBinAddr: 0x3629C, symSize: 0x8 }
  - { offset: 0x18D89D, size: 0x8, addend: 0x0, symName: __ZN6sentry15SentryTimestamp34from_microseconds_since_unix_epochEx, symObjAddr: 0x610, symBinAddr: 0x362A4, symSize: 0x34 }
  - { offset: 0x18D960, size: 0x8, addend: 0x0, symName: __ZN6sentry15SentryTimestamp14from_unix_timeEd, symObjAddr: 0x644, symBinAddr: 0x362D8, symSize: 0x44 }
  - { offset: 0x18DA32, size: 0x8, addend: 0x0, symName: __ZNK6sentry15SentryTimestamp10to_rfc3339Ev, symObjAddr: 0x688, symBinAddr: 0x3631C, symSize: 0x140 }
  - { offset: 0x18E0AF, size: 0x8, addend: 0x0, symName: __ZN6sentry15SentryTimestamp13_bind_methodsEv, symObjAddr: 0x9AC, symBinAddr: 0x36640, symSize: 0x718 }
  - { offset: 0x18F4DE, size: 0x8, addend: 0x0, symName: __ZN5godot7ClassDB18bind_static_methodINS_16MethodDefinitionEPFNS_3RefIN6sentry15SentryTimestampEEERKNS_6StringEEJEEEPNS_10MethodBindENS_10StringNameET_T0_DpT1_, symObjAddr: 0x10C4, symBinAddr: 0x36D58, symSize: 0x144 }
  - { offset: 0x18F660, size: 0x8, addend: 0x0, symName: __ZN5godot7ClassDB18bind_static_methodINS_16MethodDefinitionEPFNS_3RefIN6sentry15SentryTimestampEEExEJEEEPNS_10MethodBindENS_10StringNameET_T0_DpT1_, symObjAddr: 0x1278, symBinAddr: 0x36F0C, symSize: 0x144 }
  - { offset: 0x18F7E2, size: 0x8, addend: 0x0, symName: __ZN5godot7ClassDB18bind_static_methodINS_16MethodDefinitionEPFNS_3RefIN6sentry15SentryTimestampEEEdEJEEEPNS_10MethodBindENS_10StringNameET_T0_DpT1_, symObjAddr: 0x13BC, symBinAddr: 0x37050, symSize: 0x144 }
  - { offset: 0x18F953, size: 0x8, addend: 0x0, symName: __ZN6sentry15SentryTimestamp13_bind_methodsEv.cold.1, symObjAddr: 0x4248, symBinAddr: 0xE4DAC, symSize: 0x58 }
  - { offset: 0x18FBC2, size: 0x8, addend: 0x0, symName: __ZN6sentry15SentryTimestamp13parse_rfc3339ERKN5godot6StringE, symObjAddr: 0x1208, symBinAddr: 0x36E9C, symSize: 0x70 }
  - { offset: 0x18FE53, size: 0x8, addend: 0x0, symName: __ZN6sentry15SentryTimestamp6equalsERKN5godot3RefIS0_EE, symObjAddr: 0x1500, symBinAddr: 0x37194, symSize: 0x24 }
  - { offset: 0x18FE8A, size: 0x8, addend: 0x0, symName: __ZN6sentry15SentryTimestamp6equalsERKN5godot3RefIS0_EE, symObjAddr: 0x1500, symBinAddr: 0x37194, symSize: 0x24 }
  - { offset: 0x18FEAB, size: 0x8, addend: 0x0, symName: __ZN5godot8internal23EngineClassRegistrationINS_6ObjectEE8callbackEv.cold.1, symObjAddr: 0x42A0, symBinAddr: 0xE4E04, symSize: 0x5C }
  - { offset: 0x18FF41, size: 0x8, addend: 0x0, symName: __ZN5godot6ObjectD1Ev.cold.1, symObjAddr: 0x42FC, symBinAddr: 0xE4E60, symSize: 0x1C }
  - { offset: 0x18FF5C, size: 0x8, addend: 0x0, symName: __ZN5godot6ObjectD1Ev.cold.1, symObjAddr: 0x42FC, symBinAddr: 0xE4E60, symSize: 0x1C }
  - { offset: 0x18FF70, size: 0x8, addend: 0x0, symName: __ZN5godot6ObjectD1Ev.cold.1, symObjAddr: 0x42FC, symBinAddr: 0xE4E60, symSize: 0x1C }
  - { offset: 0x18FF84, size: 0x8, addend: 0x0, symName: __ZN5godot6ObjectD1Ev.cold.1, symObjAddr: 0x42FC, symBinAddr: 0xE4E60, symSize: 0x1C }
  - { offset: 0x18FF99, size: 0x8, addend: 0x0, symName: __ZN5godot6ObjectD1Ev.cold.1, symObjAddr: 0x42FC, symBinAddr: 0xE4E60, symSize: 0x1C }
  - { offset: 0x18FFC9, size: 0x8, addend: 0x0, symName: __ZN5godot6ObjectD0Ev.cold.1, symObjAddr: 0x4318, symBinAddr: 0xE4E7C, symSize: 0x1C }
  - { offset: 0x18FFE4, size: 0x8, addend: 0x0, symName: __ZN5godot6ObjectD0Ev.cold.1, symObjAddr: 0x4318, symBinAddr: 0xE4E7C, symSize: 0x1C }
  - { offset: 0x18FFF8, size: 0x8, addend: 0x0, symName: __ZN5godot6ObjectD0Ev.cold.1, symObjAddr: 0x4318, symBinAddr: 0xE4E7C, symSize: 0x1C }
  - { offset: 0x19000C, size: 0x8, addend: 0x0, symName: __ZN5godot6ObjectD0Ev.cold.1, symObjAddr: 0x4318, symBinAddr: 0xE4E7C, symSize: 0x1C }
  - { offset: 0x190020, size: 0x8, addend: 0x0, symName: __ZN5godot6ObjectD0Ev.cold.1, symObjAddr: 0x4318, symBinAddr: 0xE4E7C, symSize: 0x1C }
  - { offset: 0x190035, size: 0x8, addend: 0x0, symName: __ZN5godot6ObjectD0Ev.cold.1, symObjAddr: 0x4318, symBinAddr: 0xE4E7C, symSize: 0x1C }
  - { offset: 0x19004C, size: 0x8, addend: 0x0, symName: __ZN5godot7WrappedD1Ev.cold.1, symObjAddr: 0x4334, symBinAddr: 0xE4E98, symSize: 0x1C }
  - { offset: 0x190067, size: 0x8, addend: 0x0, symName: __ZN5godot7WrappedD1Ev.cold.1, symObjAddr: 0x4334, symBinAddr: 0xE4E98, symSize: 0x1C }
  - { offset: 0x19007B, size: 0x8, addend: 0x0, symName: __ZN5godot7WrappedD1Ev.cold.1, symObjAddr: 0x4334, symBinAddr: 0xE4E98, symSize: 0x1C }
  - { offset: 0x190090, size: 0x8, addend: 0x0, symName: __ZN5godot7WrappedD1Ev.cold.1, symObjAddr: 0x4334, symBinAddr: 0xE4E98, symSize: 0x1C }
  - { offset: 0x1900BF, size: 0x8, addend: 0x0, symName: __ZN5godot7WrappedD0Ev.cold.1, symObjAddr: 0x4350, symBinAddr: 0xE4EB4, symSize: 0x1C }
  - { offset: 0x1900DA, size: 0x8, addend: 0x0, symName: __ZN5godot7WrappedD0Ev.cold.1, symObjAddr: 0x4350, symBinAddr: 0xE4EB4, symSize: 0x1C }
  - { offset: 0x1900EE, size: 0x8, addend: 0x0, symName: __ZN5godot7WrappedD0Ev.cold.1, symObjAddr: 0x4350, symBinAddr: 0xE4EB4, symSize: 0x1C }
  - { offset: 0x190102, size: 0x8, addend: 0x0, symName: __ZN5godot7WrappedD0Ev.cold.1, symObjAddr: 0x4350, symBinAddr: 0xE4EB4, symSize: 0x1C }
  - { offset: 0x190117, size: 0x8, addend: 0x0, symName: __ZN5godot7WrappedD0Ev.cold.1, symObjAddr: 0x4350, symBinAddr: 0xE4EB4, symSize: 0x1C }
  - { offset: 0x19012D, size: 0x8, addend: 0x0, symName: __ZN5godot4ListINS_12PropertyInfoENS_16DefaultAllocatorEE5_Data5eraseEPNS3_7ElementE.cold.2, symObjAddr: 0x438C, symBinAddr: 0xE4EF0, symSize: 0x20 }
  - { offset: 0x190145, size: 0x8, addend: 0x0, symName: __ZN5godot4ListINS_12PropertyInfoENS_16DefaultAllocatorEE5_Data5eraseEPNS3_7ElementE.cold.1, symObjAddr: 0x436C, symBinAddr: 0xE4ED0, symSize: 0x20 }
  - { offset: 0x190164, size: 0x8, addend: 0x0, symName: __ZN5godot8internal23EngineClassRegistrationINS_16ClassDBSingletonEE8callbackEv.cold.1, symObjAddr: 0x43AC, symBinAddr: 0xE4F10, symSize: 0x5C }
  - { offset: 0x190199, size: 0x8, addend: 0x0, symName: __ZN5godot8internal23EngineClassRegistrationINS_10RefCountedEE8callbackEv.cold.1, symObjAddr: 0x4408, symBinAddr: 0xE4F6C, symSize: 0x5C }
  - { offset: 0x1901E3, size: 0x8, addend: 0x0, symName: __ZN5godot10RefCountedD1Ev.cold.1, symObjAddr: 0x4464, symBinAddr: 0xE4FC8, symSize: 0x1C }
  - { offset: 0x1901FE, size: 0x8, addend: 0x0, symName: __ZN5godot10RefCountedD1Ev.cold.1, symObjAddr: 0x4464, symBinAddr: 0xE4FC8, symSize: 0x1C }
  - { offset: 0x190212, size: 0x8, addend: 0x0, symName: __ZN5godot10RefCountedD1Ev.cold.1, symObjAddr: 0x4464, symBinAddr: 0xE4FC8, symSize: 0x1C }
  - { offset: 0x190226, size: 0x8, addend: 0x0, symName: __ZN5godot10RefCountedD1Ev.cold.1, symObjAddr: 0x4464, symBinAddr: 0xE4FC8, symSize: 0x1C }
  - { offset: 0x19023A, size: 0x8, addend: 0x0, symName: __ZN5godot10RefCountedD1Ev.cold.1, symObjAddr: 0x4464, symBinAddr: 0xE4FC8, symSize: 0x1C }
  - { offset: 0x19024F, size: 0x8, addend: 0x0, symName: __ZN5godot10RefCountedD1Ev.cold.1, symObjAddr: 0x4464, symBinAddr: 0xE4FC8, symSize: 0x1C }
  - { offset: 0x190282, size: 0x8, addend: 0x0, symName: __ZN5godot10RefCountedD0Ev.cold.1, symObjAddr: 0x4480, symBinAddr: 0xE4FE4, symSize: 0x1C }
  - { offset: 0x19029D, size: 0x8, addend: 0x0, symName: __ZN5godot10RefCountedD0Ev.cold.1, symObjAddr: 0x4480, symBinAddr: 0xE4FE4, symSize: 0x1C }
  - { offset: 0x1902B1, size: 0x8, addend: 0x0, symName: __ZN5godot10RefCountedD0Ev.cold.1, symObjAddr: 0x4480, symBinAddr: 0xE4FE4, symSize: 0x1C }
  - { offset: 0x1902C5, size: 0x8, addend: 0x0, symName: __ZN5godot10RefCountedD0Ev.cold.1, symObjAddr: 0x4480, symBinAddr: 0xE4FE4, symSize: 0x1C }
  - { offset: 0x1902D9, size: 0x8, addend: 0x0, symName: __ZN5godot10RefCountedD0Ev.cold.1, symObjAddr: 0x4480, symBinAddr: 0xE4FE4, symSize: 0x1C }
  - { offset: 0x1902ED, size: 0x8, addend: 0x0, symName: __ZN5godot10RefCountedD0Ev.cold.1, symObjAddr: 0x4480, symBinAddr: 0xE4FE4, symSize: 0x1C }
  - { offset: 0x190302, size: 0x8, addend: 0x0, symName: __ZN5godot10RefCountedD0Ev.cold.1, symObjAddr: 0x4480, symBinAddr: 0xE4FE4, symSize: 0x1C }
  - { offset: 0x190321, size: 0x8, addend: 0x0, symName: __ZN5godot8internal23EngineClassRegistrationINS_6LoggerEE8callbackEv.cold.1, symObjAddr: 0x449C, symBinAddr: 0xE5000, symSize: 0x5C }
  - { offset: 0x19056A, size: 0x8, addend: 0x0, symName: __ZN6sentry15SentryTimestampD1Ev.cold.1, symObjAddr: 0x44F8, symBinAddr: 0xE505C, symSize: 0x1C }
  - { offset: 0x190585, size: 0x8, addend: 0x0, symName: __ZN6sentry15SentryTimestampD1Ev.cold.1, symObjAddr: 0x44F8, symBinAddr: 0xE505C, symSize: 0x1C }
  - { offset: 0x190599, size: 0x8, addend: 0x0, symName: __ZN6sentry15SentryTimestampD1Ev.cold.1, symObjAddr: 0x44F8, symBinAddr: 0xE505C, symSize: 0x1C }
  - { offset: 0x1905AD, size: 0x8, addend: 0x0, symName: __ZN6sentry15SentryTimestampD1Ev.cold.1, symObjAddr: 0x44F8, symBinAddr: 0xE505C, symSize: 0x1C }
  - { offset: 0x1905C1, size: 0x8, addend: 0x0, symName: __ZN6sentry15SentryTimestampD1Ev.cold.1, symObjAddr: 0x44F8, symBinAddr: 0xE505C, symSize: 0x1C }
  - { offset: 0x1905D5, size: 0x8, addend: 0x0, symName: __ZN6sentry15SentryTimestampD1Ev.cold.1, symObjAddr: 0x44F8, symBinAddr: 0xE505C, symSize: 0x1C }
  - { offset: 0x1905EA, size: 0x8, addend: 0x0, symName: __ZN6sentry15SentryTimestampD1Ev.cold.1, symObjAddr: 0x44F8, symBinAddr: 0xE505C, symSize: 0x1C }
  - { offset: 0x19061E, size: 0x8, addend: 0x0, symName: __ZN6sentry15SentryTimestampD0Ev.cold.1, symObjAddr: 0x4514, symBinAddr: 0xE5078, symSize: 0x1C }
  - { offset: 0x190639, size: 0x8, addend: 0x0, symName: __ZN6sentry15SentryTimestampD0Ev.cold.1, symObjAddr: 0x4514, symBinAddr: 0xE5078, symSize: 0x1C }
  - { offset: 0x19064D, size: 0x8, addend: 0x0, symName: __ZN6sentry15SentryTimestampD0Ev.cold.1, symObjAddr: 0x4514, symBinAddr: 0xE5078, symSize: 0x1C }
  - { offset: 0x190661, size: 0x8, addend: 0x0, symName: __ZN6sentry15SentryTimestampD0Ev.cold.1, symObjAddr: 0x4514, symBinAddr: 0xE5078, symSize: 0x1C }
  - { offset: 0x190675, size: 0x8, addend: 0x0, symName: __ZN6sentry15SentryTimestampD0Ev.cold.1, symObjAddr: 0x4514, symBinAddr: 0xE5078, symSize: 0x1C }
  - { offset: 0x190689, size: 0x8, addend: 0x0, symName: __ZN6sentry15SentryTimestampD0Ev.cold.1, symObjAddr: 0x4514, symBinAddr: 0xE5078, symSize: 0x1C }
  - { offset: 0x19069D, size: 0x8, addend: 0x0, symName: __ZN6sentry15SentryTimestampD0Ev.cold.1, symObjAddr: 0x4514, symBinAddr: 0xE5078, symSize: 0x1C }
  - { offset: 0x1906B2, size: 0x8, addend: 0x0, symName: __ZN6sentry15SentryTimestampD0Ev.cold.1, symObjAddr: 0x4514, symBinAddr: 0xE5078, symSize: 0x1C }
  - { offset: 0x1906CB, size: 0x8, addend: 0x0, symName: __ZNK5godot13MethodBindTRSINS_3RefIN6sentry15SentryTimestampEEEJRKNS_6StringEEE17gen_argument_typeEi, symObjAddr: 0x1F54, symBinAddr: 0x371B8, symSize: 0x14 }
  - { offset: 0x190741, size: 0x8, addend: 0x0, symName: __ZNK5godot13MethodBindTRSINS_3RefIN6sentry15SentryTimestampEEEJRKNS_6StringEEE22gen_argument_type_infoEi, symObjAddr: 0x1F68, symBinAddr: 0x371CC, symSize: 0x68 }
  - { offset: 0x1908B0, size: 0x8, addend: 0x0, symName: __ZNK5godot13MethodBindTRSINS_3RefIN6sentry15SentryTimestampEEEJRKNS_6StringEEE21get_argument_metadataEi, symObjAddr: 0x1FD0, symBinAddr: 0x37234, symSize: 0x8 }
  - { offset: 0x190901, size: 0x8, addend: 0x0, symName: __ZNK5godot13MethodBindTRSINS_3RefIN6sentry15SentryTimestampEEEJRKNS_6StringEEE4callEPvPKPKvxR20GDExtensionCallError, symObjAddr: 0x1FD8, symBinAddr: 0x3723C, symSize: 0x5C }
  - { offset: 0x1909A9, size: 0x8, addend: 0x0, symName: __ZNK5godot13MethodBindTRSINS_3RefIN6sentry15SentryTimestampEEEJRKNS_6StringEEE7ptrcallEPvPKPKvS9_, symObjAddr: 0x2034, symBinAddr: 0x37298, symSize: 0x10 }
  - { offset: 0x190A69, size: 0x8, addend: 0x0, symName: __ZN5godot13MethodBindTRSINS_3RefIN6sentry15SentryTimestampEEEJRKNS_6StringEEED1Ev, symObjAddr: 0x2044, symBinAddr: 0x372A8, symSize: 0x4 }
  - { offset: 0x190A8C, size: 0x8, addend: 0x0, symName: __ZN5godot13MethodBindTRSINS_3RefIN6sentry15SentryTimestampEEEJRKNS_6StringEEED1Ev, symObjAddr: 0x2044, symBinAddr: 0x372A8, symSize: 0x4 }
  - { offset: 0x190AC4, size: 0x8, addend: 0x0, symName: __ZN5godot13MethodBindTRSINS_3RefIN6sentry15SentryTimestampEEEJRKNS_6StringEEED0Ev, symObjAddr: 0x2048, symBinAddr: 0x372AC, symSize: 0x14 }
  - { offset: 0x190B2C, size: 0x8, addend: 0x0, symName: __ZN5godot11GetTypeInfoINS_3RefIN6sentry15SentryTimestampEEEvE14get_class_infoEv.cold.1, symObjAddr: 0x4530, symBinAddr: 0xE5094, symSize: 0x58 }
  - { offset: 0x190C28, size: 0x8, addend: 0x0, symName: __ZN5godot43call_with_ptr_args_static_method_ret_helperINS_3RefIN6sentry15SentryTimestampEEEJRKNS_6StringEEJLm0EEEEvPFT_DpT0_EPKPKvPvNS_13IndexSequenceIJXspT1_EEEE.cold.1, symObjAddr: 0x4588, symBinAddr: 0xE50EC, symSize: 0x2C }
  - { offset: 0x190C57, size: 0x8, addend: 0x0, symName: __ZNK5godot13MethodBindTRSINS_3RefIN6sentry15SentryTimestampEEEJxEE17gen_argument_typeEi, symObjAddr: 0x2598, symBinAddr: 0x3755C, symSize: 0x14 }
  - { offset: 0x190C8D, size: 0x8, addend: 0x0, symName: __ZNK5godot13MethodBindTRSINS_3RefIN6sentry15SentryTimestampEEEJxEE22gen_argument_type_infoEi, symObjAddr: 0x25AC, symBinAddr: 0x37570, symSize: 0x68 }
  - { offset: 0x190D86, size: 0x8, addend: 0x0, symName: __ZNK5godot13MethodBindTRSINS_3RefIN6sentry15SentryTimestampEEEJxEE21get_argument_metadataEi, symObjAddr: 0x2614, symBinAddr: 0x375D8, symSize: 0x14 }
  - { offset: 0x190DBC, size: 0x8, addend: 0x0, symName: __ZNK5godot13MethodBindTRSINS_3RefIN6sentry15SentryTimestampEEEJxEE4callEPvPKPKvxR20GDExtensionCallError, symObjAddr: 0x2628, symBinAddr: 0x375EC, symSize: 0x5C }
  - { offset: 0x190E77, size: 0x8, addend: 0x0, symName: __ZNK5godot13MethodBindTRSINS_3RefIN6sentry15SentryTimestampEEEJxEE7ptrcallEPvPKPKvS6_, symObjAddr: 0x2684, symBinAddr: 0x37648, symSize: 0x94 }
  - { offset: 0x191025, size: 0x8, addend: 0x0, symName: __ZNK5godot13MethodBindTRSINS_3RefIN6sentry15SentryTimestampEEEJxEE7ptrcallEPvPKPKvS6_.cold.1, symObjAddr: 0x45B4, symBinAddr: 0xE5118, symSize: 0x2C }
  - { offset: 0x19109F, size: 0x8, addend: 0x0, symName: __ZN5godot13MethodBindTRSINS_3RefIN6sentry15SentryTimestampEEEJxEED1Ev, symObjAddr: 0x2718, symBinAddr: 0x376DC, symSize: 0x4 }
  - { offset: 0x1910C2, size: 0x8, addend: 0x0, symName: __ZN5godot13MethodBindTRSINS_3RefIN6sentry15SentryTimestampEEEJxEED1Ev, symObjAddr: 0x2718, symBinAddr: 0x376DC, symSize: 0x4 }
  - { offset: 0x1910FA, size: 0x8, addend: 0x0, symName: __ZN5godot13MethodBindTRSINS_3RefIN6sentry15SentryTimestampEEEJxEED0Ev, symObjAddr: 0x271C, symBinAddr: 0x376E0, symSize: 0x14 }
  - { offset: 0x19117C, size: 0x8, addend: 0x0, symName: __ZNK5godot13MethodBindTRSINS_3RefIN6sentry15SentryTimestampEEEJdEE17gen_argument_typeEi, symObjAddr: 0x29E8, symBinAddr: 0x379AC, symSize: 0x14 }
  - { offset: 0x1911B2, size: 0x8, addend: 0x0, symName: __ZNK5godot13MethodBindTRSINS_3RefIN6sentry15SentryTimestampEEEJdEE22gen_argument_type_infoEi, symObjAddr: 0x29FC, symBinAddr: 0x379C0, symSize: 0x68 }
  - { offset: 0x1912AB, size: 0x8, addend: 0x0, symName: __ZNK5godot13MethodBindTRSINS_3RefIN6sentry15SentryTimestampEEEJdEE21get_argument_metadataEi, symObjAddr: 0x2A64, symBinAddr: 0x37A28, symSize: 0x14 }
  - { offset: 0x1912E1, size: 0x8, addend: 0x0, symName: __ZNK5godot13MethodBindTRSINS_3RefIN6sentry15SentryTimestampEEEJdEE4callEPvPKPKvxR20GDExtensionCallError, symObjAddr: 0x2A78, symBinAddr: 0x37A3C, symSize: 0x5C }
  - { offset: 0x19139C, size: 0x8, addend: 0x0, symName: __ZNK5godot13MethodBindTRSINS_3RefIN6sentry15SentryTimestampEEEJdEE7ptrcallEPvPKPKvS6_, symObjAddr: 0x2AD4, symBinAddr: 0x37A98, symSize: 0x94 }
  - { offset: 0x19154A, size: 0x8, addend: 0x0, symName: __ZNK5godot13MethodBindTRSINS_3RefIN6sentry15SentryTimestampEEEJdEE7ptrcallEPvPKPKvS6_.cold.1, symObjAddr: 0x45E0, symBinAddr: 0xE5144, symSize: 0x2C }
  - { offset: 0x1915C4, size: 0x8, addend: 0x0, symName: __ZN5godot13MethodBindTRSINS_3RefIN6sentry15SentryTimestampEEEJdEED1Ev, symObjAddr: 0x2B68, symBinAddr: 0x37B2C, symSize: 0x4 }
  - { offset: 0x1915E7, size: 0x8, addend: 0x0, symName: __ZN5godot13MethodBindTRSINS_3RefIN6sentry15SentryTimestampEEEJdEED1Ev, symObjAddr: 0x2B68, symBinAddr: 0x37B2C, symSize: 0x4 }
  - { offset: 0x19161F, size: 0x8, addend: 0x0, symName: __ZN5godot13MethodBindTRSINS_3RefIN6sentry15SentryTimestampEEEJdEED0Ev, symObjAddr: 0x2B6C, symBinAddr: 0x37B30, symSize: 0x14 }
  - { offset: 0x1916A1, size: 0x8, addend: 0x0, symName: __ZNK6sentry15SentryTimestamp33get_microseconds_since_unix_epochEv, symObjAddr: 0x2E38, symBinAddr: 0x37C88, symSize: 0x8 }
  - { offset: 0x19172A, size: 0x8, addend: 0x0, symName: __ZN5godot18create_method_bindIN6sentry15SentryTimestampEJxEEEPNS_10MethodBindEMT_FvDpT0_E.cold.1, symObjAddr: 0x460C, symBinAddr: 0xE5170, symSize: 0x5C }
  - { offset: 0x191759, size: 0x8, addend: 0x0, symName: __ZNK5godot11MethodBindTIJxEE17gen_argument_typeEi, symObjAddr: 0x2F54, symBinAddr: 0x37DA4, symSize: 0x10 }
  - { offset: 0x19178F, size: 0x8, addend: 0x0, symName: __ZNK5godot11MethodBindTIJxEE22gen_argument_type_infoEi, symObjAddr: 0x2F64, symBinAddr: 0x37DB4, symSize: 0x138 }
  - { offset: 0x1918D2, size: 0x8, addend: 0x0, symName: __ZNK5godot11MethodBindTIJxEE21get_argument_metadataEi, symObjAddr: 0x309C, symBinAddr: 0x37EEC, symSize: 0x10 }
  - { offset: 0x191960, size: 0x8, addend: 0x0, symName: __ZNK5godot11MethodBindTIJxEE4callEPvPKPKvxR20GDExtensionCallError, symObjAddr: 0x30AC, symBinAddr: 0x37EFC, symSize: 0x40 }
  - { offset: 0x191A0D, size: 0x8, addend: 0x0, symName: __ZNK5godot11MethodBindTIJxEE7ptrcallEPvPKPKvS2_, symObjAddr: 0x30EC, symBinAddr: 0x37F3C, symSize: 0x20 }
  - { offset: 0x191AF8, size: 0x8, addend: 0x0, symName: __ZN5godot11MethodBindTIJxEED1Ev, symObjAddr: 0x310C, symBinAddr: 0x37F5C, symSize: 0x4 }
  - { offset: 0x191B1B, size: 0x8, addend: 0x0, symName: __ZN5godot11MethodBindTIJxEED1Ev, symObjAddr: 0x310C, symBinAddr: 0x37F5C, symSize: 0x4 }
  - { offset: 0x191B53, size: 0x8, addend: 0x0, symName: __ZN5godot11MethodBindTIJxEED0Ev, symObjAddr: 0x3110, symBinAddr: 0x37F60, symSize: 0x14 }
  - { offset: 0x191C1D, size: 0x8, addend: 0x0, symName: __ZN5godot18create_method_bindIN6sentry15SentryTimestampExJEEEPNS_10MethodBindEMT_KFT0_DpT1_E.cold.1, symObjAddr: 0x4668, symBinAddr: 0xE51CC, symSize: 0x5C }
  - { offset: 0x191C4C, size: 0x8, addend: 0x0, symName: __ZNK5godot13MethodBindTRCIxJEE17gen_argument_typeEi, symObjAddr: 0x3378, symBinAddr: 0x381C8, symSize: 0x8 }
  - { offset: 0x191C82, size: 0x8, addend: 0x0, symName: __ZNK5godot13MethodBindTRCIxJEE22gen_argument_type_infoEi, symObjAddr: 0x3380, symBinAddr: 0x381D0, symSize: 0xF8 }
  - { offset: 0x191D45, size: 0x8, addend: 0x0, symName: __ZNK5godot13MethodBindTRCIxJEE21get_argument_metadataEi, symObjAddr: 0x3478, symBinAddr: 0x382C8, symSize: 0xC }
